
AVRASM ver. 2.2.6  C:\Users\doug_000\Documents\GitHub\lb-Arduino-Code\LBCards\DisplayProc\AssemblerApplication1\AssemblerApplication1\main.asm Mon Nov 28 21:50:27 2016

[builtin](2): Including file 'C:/Program Files (x86)\Atmel\Studio\7.0\Packs\atmel\ATmega_DFP\1.1.130\avrasm\inc\m328pdef.inc'
C:\Users\doug_000\Documents\GitHub\lb-Arduino-Code\LBCards\DisplayProc\AssemblerApplication1\AssemblerApplication1\main.asm(13): Including file 'C:\Users\doug_000\Documents\GitHub\lb-Arduino-Code\LBCards\DisplayProc\AssemblerApplication1\AssemblerApplication1\defs.inc'
C:\Users\doug_000\Documents\GitHub\lb-Arduino-Code\LBCards\DisplayProc\AssemblerApplication1\AssemblerApplication1\main.asm(362): Including file 'C:\Users\doug_000\Documents\GitHub\lb-Arduino-Code\LBCards\DisplayProc\AssemblerApplication1\AssemblerApplication1\vidgen.inc'
C:\Users\doug_000\Documents\GitHub\lb-Arduino-Code\LBCards\DisplayProc\AssemblerApplication1\AssemblerApplication1\main.asm(368): Including file 'C:\Users\doug_000\Documents\GitHub\lb-Arduino-Code\LBCards\DisplayProc\AssemblerApplication1\AssemblerApplication1\ProcChr.inc'
C:\Users\doug_000\Documents\GitHub\lb-Arduino-Code\LBCards\DisplayProc\AssemblerApplication1\AssemblerApplication1\main.asm(370): Including file 'C:\Users\doug_000\Documents\GitHub\lb-Arduino-Code\LBCards\DisplayProc\AssemblerApplication1\AssemblerApplication1\CGANormalFont.inc'
C:\Users\doug_000\Documents\GitHub\lb-Arduino-Code\LBCards\DisplayProc\AssemblerApplication1\AssemblerApplication1\main.asm(371): Including file 'C:\Users\doug_000\Documents\GitHub\lb-Arduino-Code\LBCards\DisplayProc\AssemblerApplication1\AssemblerApplication1\CGANormalFontWide.inc'
C:\Users\doug_000\Documents\GitHub\lb-Arduino-Code\LBCards\DisplayProc\AssemblerApplication1\AssemblerApplication1\main.asm(372): Including file 'C:\Users\doug_000\Documents\GitHub\lb-Arduino-Code\LBCards\DisplayProc\AssemblerApplication1\AssemblerApplication1\CGABoldfont.inc'
C:\Users\doug_000\Documents\GitHub\lb-Arduino-Code\LBCards\DisplayProc\AssemblerApplication1\AssemblerApplication1\main.asm(373): Including file 'C:\Users\doug_000\Documents\GitHub\lb-Arduino-Code\LBCards\DisplayProc\AssemblerApplication1\AssemblerApplication1\CGABoldFontWide.inc'
C:\Users\doug_000\Documents\GitHub\lb-Arduino-Code\LBCards\DisplayProc\AssemblerApplication1\AssemblerApplication1\main.asm(374): Including file 'C:\Users\doug_000\Documents\GitHub\lb-Arduino-Code\LBCards\DisplayProc\AssemblerApplication1\AssemblerApplication1\BlockFont.inc'
[builtin](2): Including file 'C:/Program Files (x86)\Atmel\Studio\7.0\Packs\atmel\ATmega_DFP\1.1.130\avrasm\inc\m328pdef.inc'
C:\Users\doug_000\Documents\GitHub\lb-Arduino-Code\LBCards\DisplayProc\AssemblerApplication1\AssemblerApplication1\main.asm(13): Including file 'C:\Users\doug_000\Documents\GitHub\lb-Arduino-Code\LBCards\DisplayProc\AssemblerApplication1\AssemblerApplication1\defs.inc'
C:\Users\doug_000\Documents\GitHub\lb-Arduino-Code\LBCards\DisplayProc\AssemblerApplication1\AssemblerApplication1\main.asm(362): Including file 'C:\Users\doug_000\Documents\GitHub\lb-Arduino-Code\LBCards\DisplayProc\AssemblerApplication1\AssemblerApplication1\vidgen.inc'
C:\Users\doug_000\Documents\GitHub\lb-Arduino-Code\LBCards\DisplayProc\AssemblerApplication1\AssemblerApplication1\main.asm(368): Including file 'C:\Users\doug_000\Documents\GitHub\lb-Arduino-Code\LBCards\DisplayProc\AssemblerApplication1\AssemblerApplication1\ProcChr.inc'
C:\Users\doug_000\Documents\GitHub\lb-Arduino-Code\LBCards\DisplayProc\AssemblerApplication1\AssemblerApplication1\main.asm(370): Including file 'C:\Users\doug_000\Documents\GitHub\lb-Arduino-Code\LBCards\DisplayProc\AssemblerApplication1\AssemblerApplication1\CGANormalFont.inc'
C:\Users\doug_000\Documents\GitHub\lb-Arduino-Code\LBCards\DisplayProc\AssemblerApplication1\AssemblerApplication1\main.asm(371): Including file 'C:\Users\doug_000\Documents\GitHub\lb-Arduino-Code\LBCards\DisplayProc\AssemblerApplication1\AssemblerApplication1\CGANormalFontWide.inc'
C:\Users\doug_000\Documents\GitHub\lb-Arduino-Code\LBCards\DisplayProc\AssemblerApplication1\AssemblerApplication1\main.asm(372): Including file 'C:\Users\doug_000\Documents\GitHub\lb-Arduino-Code\LBCards\DisplayProc\AssemblerApplication1\AssemblerApplication1\CGABoldfont.inc'
C:\Users\doug_000\Documents\GitHub\lb-Arduino-Code\LBCards\DisplayProc\AssemblerApplication1\AssemblerApplication1\main.asm(373): Including file 'C:\Users\doug_000\Documents\GitHub\lb-Arduino-Code\LBCards\DisplayProc\AssemblerApplication1\AssemblerApplication1\CGABoldFontWide.inc'
C:\Users\doug_000\Documents\GitHub\lb-Arduino-Code\LBCards\DisplayProc\AssemblerApplication1\AssemblerApplication1\main.asm(374): Including file 'C:\Users\doug_000\Documents\GitHub\lb-Arduino-Code\LBCards\DisplayProc\AssemblerApplication1\AssemblerApplication1\BlockFont.inc'
                                 
                                 ;/**********************************************************************************/
                                 
                                 ;***** Created: 2011-02-09 12:03 ******* Source: ATmega328P.xml **********
                                 ;*************************************************************************
                                 ;* A P P L I C A T I O N   N O T E   F O R   T H E   A V R   F A M I L Y
                                 ;* 
                                 ;* Number            : AVR000
                                 ;* File Name         : "m328Pdef.inc"
                                 ;* Title             : Register/Bit Definitions for the ATmega328P
                                 ;* Date              : 2011-02-09
                                 ;* Version           : 2.35
                                 ;* Support E-mail    : avr@atmel.com
                                 ;* Target MCU        : ATmega328P
                                 ;* 
                                 ;* DESCRIPTION
                                 ;* When including this file in the assembly program file, all I/O register 
                                 ;* names and I/O register bit names appearing in the data book can be used.
                                 ;* In addition, the six registers forming the three data pointers X, Y and 
                                 ;* Z have been assigned names XL - ZH. Highest RAM address for Internal 
                                 ;* SRAM is also defined 
                                 ;* 
                                 ;* The Register names are represented by their hexadecimal address.
                                 ;* 
                                 ;* The Register Bit names are represented by their bit number (0-7).
                                 ;* 
                                 ;* Please observe the difference in using the bit names with instructions
                                 ;* such as "sbr"/"cbr" (set/clear bit in register) and "sbrs"/"sbrc"
                                 ;* (skip if bit in register set/cleared). The following example illustrates
                                 ;* this:
                                 ;* 
                                 ;* in    r16,PORTB             ;read PORTB latch
                                 ;* sbr   r16,(1<<PB6)+(1<<PB5) ;set PB6 and PB5 (use masks, not bit#)
                                 ;* out   PORTB,r16             ;output to PORTB
                                 ;* 
                                 ;* in    r16,TIFR              ;read the Timer Interrupt Flag Register
                                 ;* sbrc  r16,TOV0              ;test the overflow flag (use bit#)
                                 ;* rjmp  TOV0_is_set           ;jump if set
                                 ;* ...                         ;otherwise do something else
                                 ;*************************************************************************
                                 
                                 #ifndef _M328PDEF_INC_
                                 #define _M328PDEF_INC_
                                 
                                 
                                 #pragma partinc 0
                                 
                                 ; ***** SPECIFY DEVICE ***************************************************
                                 .device ATmega328P
                                 #pragma AVRPART ADMIN PART_NAME ATmega328P
                                 .equ	SIGNATURE_000	= 0x1e
                                 .equ	SIGNATURE_001	= 0x95
                                 .equ	SIGNATURE_002	= 0x0f
                                 
                                 #pragma AVRPART CORE CORE_VERSION V2E
                                 
                                 
                                 ; ***** I/O REGISTER DEFINITIONS *****************************************
                                 ; NOTE:
                                 ; Definitions marked "MEMORY MAPPED"are extended I/O ports
                                 ; and cannot be used with IN/OUT instructions
                                 .equ	UDR0	= 0xc6	; MEMORY MAPPED
                                 .equ	UBRR0L	= 0xc4	; MEMORY MAPPED
                                 .equ	UBRR0H	= 0xc5	; MEMORY MAPPED
                                 .equ	UCSR0C	= 0xc2	; MEMORY MAPPED
                                 .equ	UCSR0B	= 0xc1	; MEMORY MAPPED
                                 .equ	UCSR0A	= 0xc0	; MEMORY MAPPED
                                 .equ	TWAMR	= 0xbd	; MEMORY MAPPED
                                 .equ	TWCR	= 0xbc	; MEMORY MAPPED
                                 .equ	TWDR	= 0xbb	; MEMORY MAPPED
                                 .equ	TWAR	= 0xba	; MEMORY MAPPED
                                 .equ	TWSR	= 0xb9	; MEMORY MAPPED
                                 .equ	TWBR	= 0xb8	; MEMORY MAPPED
                                 .equ	ASSR	= 0xb6	; MEMORY MAPPED
                                 .equ	OCR2B	= 0xb4	; MEMORY MAPPED
                                 .equ	OCR2A	= 0xb3	; MEMORY MAPPED
                                 .equ	TCNT2	= 0xb2	; MEMORY MAPPED
                                 .equ	TCCR2B	= 0xb1	; MEMORY MAPPED
                                 .equ	TCCR2A	= 0xb0	; MEMORY MAPPED
                                 .equ	OCR1BL	= 0x8a	; MEMORY MAPPED
                                 .equ	OCR1BH	= 0x8b	; MEMORY MAPPED
                                 .equ	OCR1AL	= 0x88	; MEMORY MAPPED
                                 .equ	OCR1AH	= 0x89	; MEMORY MAPPED
                                 .equ	ICR1L	= 0x86	; MEMORY MAPPED
                                 .equ	ICR1H	= 0x87	; MEMORY MAPPED
                                 .equ	TCNT1L	= 0x84	; MEMORY MAPPED
                                 .equ	TCNT1H	= 0x85	; MEMORY MAPPED
                                 .equ	TCCR1C	= 0x82	; MEMORY MAPPED
                                 .equ	TCCR1B	= 0x81	; MEMORY MAPPED
                                 .equ	TCCR1A	= 0x80	; MEMORY MAPPED
                                 .equ	DIDR1	= 0x7f	; MEMORY MAPPED
                                 .equ	DIDR0	= 0x7e	; MEMORY MAPPED
                                 .equ	ADMUX	= 0x7c	; MEMORY MAPPED
                                 .equ	ADCSRB	= 0x7b	; MEMORY MAPPED
                                 .equ	ADCSRA	= 0x7a	; MEMORY MAPPED
                                 .equ	ADCH	= 0x79	; MEMORY MAPPED
                                 .equ	ADCL	= 0x78	; MEMORY MAPPED
                                 .equ	TIMSK2	= 0x70	; MEMORY MAPPED
                                 .equ	TIMSK1	= 0x6f	; MEMORY MAPPED
                                 .equ	TIMSK0	= 0x6e	; MEMORY MAPPED
                                 .equ	PCMSK1	= 0x6c	; MEMORY MAPPED
                                 .equ	PCMSK2	= 0x6d	; MEMORY MAPPED
                                 .equ	PCMSK0	= 0x6b	; MEMORY MAPPED
                                 .equ	EICRA	= 0x69	; MEMORY MAPPED
                                 .equ	PCICR	= 0x68	; MEMORY MAPPED
                                 .equ	OSCCAL	= 0x66	; MEMORY MAPPED
                                 .equ	PRR	= 0x64	; MEMORY MAPPED
                                 .equ	CLKPR	= 0x61	; MEMORY MAPPED
                                 .equ	WDTCSR	= 0x60	; MEMORY MAPPED
                                 .equ	SREG	= 0x3f
                                 .equ	SPL	= 0x3d
                                 .equ	SPH	= 0x3e
                                 .equ	SPMCSR	= 0x37
                                 .equ	MCUCR	= 0x35
                                 .equ	MCUSR	= 0x34
                                 .equ	SMCR	= 0x33
                                 .equ	ACSR	= 0x30
                                 .equ	SPDR	= 0x2e
                                 .equ	SPSR	= 0x2d
                                 .equ	SPCR	= 0x2c
                                 .equ	GPIOR2	= 0x2b
                                 .equ	GPIOR1	= 0x2a
                                 .equ	OCR0B	= 0x28
                                 .equ	OCR0A	= 0x27
                                 .equ	TCNT0	= 0x26
                                 .equ	TCCR0B	= 0x25
                                 .equ	TCCR0A	= 0x24
                                 .equ	GTCCR	= 0x23
                                 .equ	EEARH	= 0x22
                                 .equ	EEARL	= 0x21
                                 .equ	EEDR	= 0x20
                                 .equ	EECR	= 0x1f
                                 .equ	GPIOR0	= 0x1e
                                 .equ	EIMSK	= 0x1d
                                 .equ	EIFR	= 0x1c
                                 .equ	PCIFR	= 0x1b
                                 .equ	TIFR2	= 0x17
                                 .equ	TIFR1	= 0x16
                                 .equ	TIFR0	= 0x15
                                 .equ	PORTD	= 0x0b
                                 .equ	DDRD	= 0x0a
                                 .equ	PIND	= 0x09
                                 .equ	PORTC	= 0x08
                                 .equ	DDRC	= 0x07
                                 .equ	PINC	= 0x06
                                 .equ	PORTB	= 0x05
                                 .equ	DDRB	= 0x04
                                 .equ	PINB	= 0x03
                                 
                                 
                                 ; ***** BIT DEFINITIONS **************************************************
                                 
                                 ; ***** USART0 ***********************
                                 ; UDR0 - USART I/O Data Register
                                 .equ	UDR0_0	= 0	; USART I/O Data Register bit 0
                                 .equ	UDR0_1	= 1	; USART I/O Data Register bit 1
                                 .equ	UDR0_2	= 2	; USART I/O Data Register bit 2
                                 .equ	UDR0_3	= 3	; USART I/O Data Register bit 3
                                 .equ	UDR0_4	= 4	; USART I/O Data Register bit 4
                                 .equ	UDR0_5	= 5	; USART I/O Data Register bit 5
                                 .equ	UDR0_6	= 6	; USART I/O Data Register bit 6
                                 .equ	UDR0_7	= 7	; USART I/O Data Register bit 7
                                 
                                 ; UCSR0A - USART Control and Status Register A
                                 .equ	MPCM0	= 0	; Multi-processor Communication Mode
                                 .equ	U2X0	= 1	; Double the USART transmission speed
                                 .equ	UPE0	= 2	; Parity Error
                                 .equ	DOR0	= 3	; Data overRun
                                 .equ	FE0	= 4	; Framing Error
                                 .equ	UDRE0	= 5	; USART Data Register Empty
                                 .equ	TXC0	= 6	; USART Transmitt Complete
                                 .equ	RXC0	= 7	; USART Receive Complete
                                 
                                 ; UCSR0B - USART Control and Status Register B
                                 .equ	TXB80	= 0	; Transmit Data Bit 8
                                 .equ	RXB80	= 1	; Receive Data Bit 8
                                 .equ	UCSZ02	= 2	; Character Size
                                 .equ	TXEN0	= 3	; Transmitter Enable
                                 .equ	RXEN0	= 4	; Receiver Enable
                                 .equ	UDRIE0	= 5	; USART Data register Empty Interrupt Enable
                                 .equ	TXCIE0	= 6	; TX Complete Interrupt Enable
                                 .equ	RXCIE0	= 7	; RX Complete Interrupt Enable
                                 
                                 ; UCSR0C - USART Control and Status Register C
                                 .equ	UCPOL0	= 0	; Clock Polarity
                                 .equ	UCSZ00	= 1	; Character Size
                                 .equ	UCPHA0	= UCSZ00	; For compatibility
                                 .equ	UCSZ01	= 2	; Character Size
                                 .equ	UDORD0	= UCSZ01	; For compatibility
                                 .equ	USBS0	= 3	; Stop Bit Select
                                 .equ	UPM00	= 4	; Parity Mode Bit 0
                                 .equ	UPM01	= 5	; Parity Mode Bit 1
                                 .equ	UMSEL00	= 6	; USART Mode Select
                                 .equ	UMSEL0	= UMSEL00	; For compatibility
                                 .equ	UMSEL01	= 7	; USART Mode Select
                                 .equ	UMSEL1	= UMSEL01	; For compatibility
                                 
                                 ; UBRR0H - USART Baud Rate Register High Byte
                                 .equ	UBRR8	= 0	; USART Baud Rate Register bit 8
                                 .equ	UBRR9	= 1	; USART Baud Rate Register bit 9
                                 .equ	UBRR10	= 2	; USART Baud Rate Register bit 10
                                 .equ	UBRR11	= 3	; USART Baud Rate Register bit 11
                                 
                                 ; UBRR0L - USART Baud Rate Register Low Byte
                                 .equ	_UBRR0	= 0	; USART Baud Rate Register bit 0
                                 .equ	_UBRR1	= 1	; USART Baud Rate Register bit 1
                                 .equ	UBRR2	= 2	; USART Baud Rate Register bit 2
                                 .equ	UBRR3	= 3	; USART Baud Rate Register bit 3
                                 .equ	UBRR4	= 4	; USART Baud Rate Register bit 4
                                 .equ	UBRR5	= 5	; USART Baud Rate Register bit 5
                                 .equ	UBRR6	= 6	; USART Baud Rate Register bit 6
                                 .equ	UBRR7	= 7	; USART Baud Rate Register bit 7
                                 
                                 
                                 ; ***** TWI **************************
                                 ; TWAMR - TWI (Slave) Address Mask Register
                                 .equ	TWAM0	= 1	; 
                                 .equ	TWAMR0	= TWAM0	; For compatibility
                                 .equ	TWAM1	= 2	; 
                                 .equ	TWAMR1	= TWAM1	; For compatibility
                                 .equ	TWAM2	= 3	; 
                                 .equ	TWAMR2	= TWAM2	; For compatibility
                                 .equ	TWAM3	= 4	; 
                                 .equ	TWAMR3	= TWAM3	; For compatibility
                                 .equ	TWAM4	= 5	; 
                                 .equ	TWAMR4	= TWAM4	; For compatibility
                                 .equ	TWAM5	= 6	; 
                                 .equ	TWAMR5	= TWAM5	; For compatibility
                                 .equ	TWAM6	= 7	; 
                                 .equ	TWAMR6	= TWAM6	; For compatibility
                                 
                                 ; TWBR - TWI Bit Rate register
                                 .equ	TWBR0	= 0	; 
                                 .equ	TWBR1	= 1	; 
                                 .equ	TWBR2	= 2	; 
                                 .equ	TWBR3	= 3	; 
                                 .equ	TWBR4	= 4	; 
                                 .equ	TWBR5	= 5	; 
                                 .equ	TWBR6	= 6	; 
                                 .equ	TWBR7	= 7	; 
                                 
                                 ; TWCR - TWI Control Register
                                 .equ	TWIE	= 0	; TWI Interrupt Enable
                                 .equ	TWEN	= 2	; TWI Enable Bit
                                 .equ	TWWC	= 3	; TWI Write Collition Flag
                                 .equ	TWSTO	= 4	; TWI Stop Condition Bit
                                 .equ	TWSTA	= 5	; TWI Start Condition Bit
                                 .equ	TWEA	= 6	; TWI Enable Acknowledge Bit
                                 .equ	TWINT	= 7	; TWI Interrupt Flag
                                 
                                 ; TWSR - TWI Status Register
                                 .equ	TWPS0	= 0	; TWI Prescaler
                                 .equ	TWPS1	= 1	; TWI Prescaler
                                 .equ	TWS3	= 3	; TWI Status
                                 .equ	TWS4	= 4	; TWI Status
                                 .equ	TWS5	= 5	; TWI Status
                                 .equ	TWS6	= 6	; TWI Status
                                 .equ	TWS7	= 7	; TWI Status
                                 
                                 ; TWDR - TWI Data register
                                 .equ	TWD0	= 0	; TWI Data Register Bit 0
                                 .equ	TWD1	= 1	; TWI Data Register Bit 1
                                 .equ	TWD2	= 2	; TWI Data Register Bit 2
                                 .equ	TWD3	= 3	; TWI Data Register Bit 3
                                 .equ	TWD4	= 4	; TWI Data Register Bit 4
                                 .equ	TWD5	= 5	; TWI Data Register Bit 5
                                 .equ	TWD6	= 6	; TWI Data Register Bit 6
                                 .equ	TWD7	= 7	; TWI Data Register Bit 7
                                 
                                 ; TWAR - TWI (Slave) Address register
                                 .equ	TWGCE	= 0	; TWI General Call Recognition Enable Bit
                                 .equ	TWA0	= 1	; TWI (Slave) Address register Bit 0
                                 .equ	TWA1	= 2	; TWI (Slave) Address register Bit 1
                                 .equ	TWA2	= 3	; TWI (Slave) Address register Bit 2
                                 .equ	TWA3	= 4	; TWI (Slave) Address register Bit 3
                                 .equ	TWA4	= 5	; TWI (Slave) Address register Bit 4
                                 .equ	TWA5	= 6	; TWI (Slave) Address register Bit 5
                                 .equ	TWA6	= 7	; TWI (Slave) Address register Bit 6
                                 
                                 
                                 ; ***** TIMER_COUNTER_1 **************
                                 ; TIMSK1 - Timer/Counter Interrupt Mask Register
                                 .equ	TOIE1	= 0	; Timer/Counter1 Overflow Interrupt Enable
                                 .equ	OCIE1A	= 1	; Timer/Counter1 Output CompareA Match Interrupt Enable
                                 .equ	OCIE1B	= 2	; Timer/Counter1 Output CompareB Match Interrupt Enable
                                 .equ	ICIE1	= 5	; Timer/Counter1 Input Capture Interrupt Enable
                                 
                                 ; TIFR1 - Timer/Counter Interrupt Flag register
                                 .equ	TOV1	= 0	; Timer/Counter1 Overflow Flag
                                 .equ	OCF1A	= 1	; Output Compare Flag 1A
                                 .equ	OCF1B	= 2	; Output Compare Flag 1B
                                 .equ	ICF1	= 5	; Input Capture Flag 1
                                 
                                 ; TCCR1A - Timer/Counter1 Control Register A
                                 .equ	WGM10	= 0	; Waveform Generation Mode
                                 .equ	WGM11	= 1	; Waveform Generation Mode
                                 .equ	COM1B0	= 4	; Compare Output Mode 1B, bit 0
                                 .equ	COM1B1	= 5	; Compare Output Mode 1B, bit 1
                                 .equ	COM1A0	= 6	; Comparet Ouput Mode 1A, bit 0
                                 .equ	COM1A1	= 7	; Compare Output Mode 1A, bit 1
                                 
                                 ; TCCR1B - Timer/Counter1 Control Register B
                                 .equ	CS10	= 0	; Prescaler source of Timer/Counter 1
                                 .equ	CS11	= 1	; Prescaler source of Timer/Counter 1
                                 .equ	CS12	= 2	; Prescaler source of Timer/Counter 1
                                 .equ	WGM12	= 3	; Waveform Generation Mode
                                 .equ	WGM13	= 4	; Waveform Generation Mode
                                 .equ	ICES1	= 6	; Input Capture 1 Edge Select
                                 .equ	ICNC1	= 7	; Input Capture 1 Noise Canceler
                                 
                                 ; TCCR1C - Timer/Counter1 Control Register C
                                 .equ	FOC1B	= 6	; 
                                 .equ	FOC1A	= 7	; 
                                 
                                 ; GTCCR - General Timer/Counter Control Register
                                 .equ	PSRSYNC	= 0	; Prescaler Reset Timer/Counter1 and Timer/Counter0
                                 .equ	TSM	= 7	; Timer/Counter Synchronization Mode
                                 
                                 
                                 ; ***** TIMER_COUNTER_2 **************
                                 ; TIMSK2 - Timer/Counter Interrupt Mask register
                                 .equ	TOIE2	= 0	; Timer/Counter2 Overflow Interrupt Enable
                                 .equ	TOIE2A	= TOIE2	; For compatibility
                                 .equ	OCIE2A	= 1	; Timer/Counter2 Output Compare Match A Interrupt Enable
                                 .equ	OCIE2B	= 2	; Timer/Counter2 Output Compare Match B Interrupt Enable
                                 
                                 ; TIFR2 - Timer/Counter Interrupt Flag Register
                                 .equ	TOV2	= 0	; Timer/Counter2 Overflow Flag
                                 .equ	OCF2A	= 1	; Output Compare Flag 2A
                                 .equ	OCF2B	= 2	; Output Compare Flag 2B
                                 
                                 ; TCCR2A - Timer/Counter2 Control Register A
                                 .equ	WGM20	= 0	; Waveform Genration Mode
                                 .equ	WGM21	= 1	; Waveform Genration Mode
                                 .equ	COM2B0	= 4	; Compare Output Mode bit 0
                                 .equ	COM2B1	= 5	; Compare Output Mode bit 1
                                 .equ	COM2A0	= 6	; Compare Output Mode bit 1
                                 .equ	COM2A1	= 7	; Compare Output Mode bit 1
                                 
                                 ; TCCR2B - Timer/Counter2 Control Register B
                                 .equ	CS20	= 0	; Clock Select bit 0
                                 .equ	CS21	= 1	; Clock Select bit 1
                                 .equ	CS22	= 2	; Clock Select bit 2
                                 .equ	WGM22	= 3	; Waveform Generation Mode
                                 .equ	FOC2B	= 6	; Force Output Compare B
                                 .equ	FOC2A	= 7	; Force Output Compare A
                                 
                                 ; TCNT2 - Timer/Counter2
                                 .equ	TCNT2_0	= 0	; Timer/Counter 2 bit 0
                                 .equ	TCNT2_1	= 1	; Timer/Counter 2 bit 1
                                 .equ	TCNT2_2	= 2	; Timer/Counter 2 bit 2
                                 .equ	TCNT2_3	= 3	; Timer/Counter 2 bit 3
                                 .equ	TCNT2_4	= 4	; Timer/Counter 2 bit 4
                                 .equ	TCNT2_5	= 5	; Timer/Counter 2 bit 5
                                 .equ	TCNT2_6	= 6	; Timer/Counter 2 bit 6
                                 .equ	TCNT2_7	= 7	; Timer/Counter 2 bit 7
                                 
                                 ; OCR2A - Timer/Counter2 Output Compare Register A
                                 .equ	OCR2A_0	= 0	; Timer/Counter2 Output Compare Register Bit 0
                                 .equ	OCR2A_1	= 1	; Timer/Counter2 Output Compare Register Bit 1
                                 .equ	OCR2A_2	= 2	; Timer/Counter2 Output Compare Register Bit 2
                                 .equ	OCR2A_3	= 3	; Timer/Counter2 Output Compare Register Bit 3
                                 .equ	OCR2A_4	= 4	; Timer/Counter2 Output Compare Register Bit 4
                                 .equ	OCR2A_5	= 5	; Timer/Counter2 Output Compare Register Bit 5
                                 .equ	OCR2A_6	= 6	; Timer/Counter2 Output Compare Register Bit 6
                                 .equ	OCR2A_7	= 7	; Timer/Counter2 Output Compare Register Bit 7
                                 
                                 ; OCR2B - Timer/Counter2 Output Compare Register B
                                 .equ	OCR2B_0	= 0	; Timer/Counter2 Output Compare Register Bit 0
                                 .equ	OCR2B_1	= 1	; Timer/Counter2 Output Compare Register Bit 1
                                 .equ	OCR2B_2	= 2	; Timer/Counter2 Output Compare Register Bit 2
                                 .equ	OCR2B_3	= 3	; Timer/Counter2 Output Compare Register Bit 3
                                 .equ	OCR2B_4	= 4	; Timer/Counter2 Output Compare Register Bit 4
                                 .equ	OCR2B_5	= 5	; Timer/Counter2 Output Compare Register Bit 5
                                 .equ	OCR2B_6	= 6	; Timer/Counter2 Output Compare Register Bit 6
                                 .equ	OCR2B_7	= 7	; Timer/Counter2 Output Compare Register Bit 7
                                 
                                 ; ASSR - Asynchronous Status Register
                                 .equ	TCR2BUB	= 0	; Timer/Counter Control Register2 Update Busy
                                 .equ	TCR2AUB	= 1	; Timer/Counter Control Register2 Update Busy
                                 .equ	OCR2BUB	= 2	; Output Compare Register 2 Update Busy
                                 .equ	OCR2AUB	= 3	; Output Compare Register2 Update Busy
                                 .equ	TCN2UB	= 4	; Timer/Counter2 Update Busy
                                 .equ	AS2	= 5	; Asynchronous Timer/Counter2
                                 .equ	EXCLK	= 6	; Enable External Clock Input
                                 
                                 ; GTCCR - General Timer Counter Control register
                                 .equ	PSRASY	= 1	; Prescaler Reset Timer/Counter2
                                 .equ	PSR2	= PSRASY	; For compatibility
                                 ;.equ	TSM	= 7	; Timer/Counter Synchronization Mode
                                 
                                 
                                 ; ***** AD_CONVERTER *****************
                                 ; ADMUX - The ADC multiplexer Selection Register
                                 .equ	MUX0	= 0	; Analog Channel and Gain Selection Bits
                                 .equ	MUX1	= 1	; Analog Channel and Gain Selection Bits
                                 .equ	MUX2	= 2	; Analog Channel and Gain Selection Bits
                                 .equ	MUX3	= 3	; Analog Channel and Gain Selection Bits
                                 .equ	ADLAR	= 5	; Left Adjust Result
                                 .equ	REFS0	= 6	; Reference Selection Bit 0
                                 .equ	REFS1	= 7	; Reference Selection Bit 1
                                 
                                 ; ADCSRA - The ADC Control and Status register A
                                 .equ	ADPS0	= 0	; ADC  Prescaler Select Bits
                                 .equ	ADPS1	= 1	; ADC  Prescaler Select Bits
                                 .equ	ADPS2	= 2	; ADC  Prescaler Select Bits
                                 .equ	ADIE	= 3	; ADC Interrupt Enable
                                 .equ	ADIF	= 4	; ADC Interrupt Flag
                                 .equ	ADATE	= 5	; ADC  Auto Trigger Enable
                                 .equ	ADSC	= 6	; ADC Start Conversion
                                 .equ	ADEN	= 7	; ADC Enable
                                 
                                 ; ADCSRB - The ADC Control and Status register B
                                 .equ	ADTS0	= 0	; ADC Auto Trigger Source bit 0
                                 .equ	ADTS1	= 1	; ADC Auto Trigger Source bit 1
                                 .equ	ADTS2	= 2	; ADC Auto Trigger Source bit 2
                                 .equ	ACME	= 6	; 
                                 
                                 ; ADCH - ADC Data Register High Byte
                                 .equ	ADCH0	= 0	; ADC Data Register High Byte Bit 0
                                 .equ	ADCH1	= 1	; ADC Data Register High Byte Bit 1
                                 .equ	ADCH2	= 2	; ADC Data Register High Byte Bit 2
                                 .equ	ADCH3	= 3	; ADC Data Register High Byte Bit 3
                                 .equ	ADCH4	= 4	; ADC Data Register High Byte Bit 4
                                 .equ	ADCH5	= 5	; ADC Data Register High Byte Bit 5
                                 .equ	ADCH6	= 6	; ADC Data Register High Byte Bit 6
                                 .equ	ADCH7	= 7	; ADC Data Register High Byte Bit 7
                                 
                                 ; ADCL - ADC Data Register Low Byte
                                 .equ	ADCL0	= 0	; ADC Data Register Low Byte Bit 0
                                 .equ	ADCL1	= 1	; ADC Data Register Low Byte Bit 1
                                 .equ	ADCL2	= 2	; ADC Data Register Low Byte Bit 2
                                 .equ	ADCL3	= 3	; ADC Data Register Low Byte Bit 3
                                 .equ	ADCL4	= 4	; ADC Data Register Low Byte Bit 4
                                 .equ	ADCL5	= 5	; ADC Data Register Low Byte Bit 5
                                 .equ	ADCL6	= 6	; ADC Data Register Low Byte Bit 6
                                 .equ	ADCL7	= 7	; ADC Data Register Low Byte Bit 7
                                 
                                 ; DIDR0 - Digital Input Disable Register
                                 .equ	ADC0D	= 0	; 
                                 .equ	ADC1D	= 1	; 
                                 .equ	ADC2D	= 2	; 
                                 .equ	ADC3D	= 3	; 
                                 .equ	ADC4D	= 4	; 
                                 .equ	ADC5D	= 5	; 
                                 
                                 
                                 ; ***** ANALOG_COMPARATOR ************
                                 ; ACSR - Analog Comparator Control And Status Register
                                 .equ	ACIS0	= 0	; Analog Comparator Interrupt Mode Select bit 0
                                 .equ	ACIS1	= 1	; Analog Comparator Interrupt Mode Select bit 1
                                 .equ	ACIC	= 2	; Analog Comparator Input Capture Enable
                                 .equ	ACIE	= 3	; Analog Comparator Interrupt Enable
                                 .equ	ACI	= 4	; Analog Comparator Interrupt Flag
                                 .equ	ACO	= 5	; Analog Compare Output
                                 .equ	ACBG	= 6	; Analog Comparator Bandgap Select
                                 .equ	ACD	= 7	; Analog Comparator Disable
                                 
                                 ; DIDR1 - Digital Input Disable Register 1
                                 .equ	AIN0D	= 0	; AIN0 Digital Input Disable
                                 .equ	AIN1D	= 1	; AIN1 Digital Input Disable
                                 
                                 
                                 ; ***** PORTB ************************
                                 ; PORTB - Port B Data Register
                                 .equ	PORTB0	= 0	; Port B Data Register bit 0
                                 .equ	PB0	= 0	; For compatibility
                                 .equ	PORTB1	= 1	; Port B Data Register bit 1
                                 .equ	PB1	= 1	; For compatibility
                                 .equ	PORTB2	= 2	; Port B Data Register bit 2
                                 .equ	PB2	= 2	; For compatibility
                                 .equ	PORTB3	= 3	; Port B Data Register bit 3
                                 .equ	PB3	= 3	; For compatibility
                                 .equ	PORTB4	= 4	; Port B Data Register bit 4
                                 .equ	PB4	= 4	; For compatibility
                                 .equ	PORTB5	= 5	; Port B Data Register bit 5
                                 .equ	PB5	= 5	; For compatibility
                                 .equ	PORTB6	= 6	; Port B Data Register bit 6
                                 .equ	PB6	= 6	; For compatibility
                                 .equ	PORTB7	= 7	; Port B Data Register bit 7
                                 .equ	PB7	= 7	; For compatibility
                                 
                                 ; DDRB - Port B Data Direction Register
                                 .equ	DDB0	= 0	; Port B Data Direction Register bit 0
                                 .equ	DDB1	= 1	; Port B Data Direction Register bit 1
                                 .equ	DDB2	= 2	; Port B Data Direction Register bit 2
                                 .equ	DDB3	= 3	; Port B Data Direction Register bit 3
                                 .equ	DDB4	= 4	; Port B Data Direction Register bit 4
                                 .equ	DDB5	= 5	; Port B Data Direction Register bit 5
                                 .equ	DDB6	= 6	; Port B Data Direction Register bit 6
                                 .equ	DDB7	= 7	; Port B Data Direction Register bit 7
                                 
                                 ; PINB - Port B Input Pins
                                 .equ	PINB0	= 0	; Port B Input Pins bit 0
                                 .equ	PINB1	= 1	; Port B Input Pins bit 1
                                 .equ	PINB2	= 2	; Port B Input Pins bit 2
                                 .equ	PINB3	= 3	; Port B Input Pins bit 3
                                 .equ	PINB4	= 4	; Port B Input Pins bit 4
                                 .equ	PINB5	= 5	; Port B Input Pins bit 5
                                 .equ	PINB6	= 6	; Port B Input Pins bit 6
                                 .equ	PINB7	= 7	; Port B Input Pins bit 7
                                 
                                 
                                 ; ***** PORTC ************************
                                 ; PORTC - Port C Data Register
                                 .equ	PORTC0	= 0	; Port C Data Register bit 0
                                 .equ	PC0	= 0	; For compatibility
                                 .equ	PORTC1	= 1	; Port C Data Register bit 1
                                 .equ	PC1	= 1	; For compatibility
                                 .equ	PORTC2	= 2	; Port C Data Register bit 2
                                 .equ	PC2	= 2	; For compatibility
                                 .equ	PORTC3	= 3	; Port C Data Register bit 3
                                 .equ	PC3	= 3	; For compatibility
                                 .equ	PORTC4	= 4	; Port C Data Register bit 4
                                 .equ	PC4	= 4	; For compatibility
                                 .equ	PORTC5	= 5	; Port C Data Register bit 5
                                 .equ	PC5	= 5	; For compatibility
                                 .equ	PORTC6	= 6	; Port C Data Register bit 6
                                 .equ	PC6	= 6	; For compatibility
                                 
                                 ; DDRC - Port C Data Direction Register
                                 .equ	DDC0	= 0	; Port C Data Direction Register bit 0
                                 .equ	DDC1	= 1	; Port C Data Direction Register bit 1
                                 .equ	DDC2	= 2	; Port C Data Direction Register bit 2
                                 .equ	DDC3	= 3	; Port C Data Direction Register bit 3
                                 .equ	DDC4	= 4	; Port C Data Direction Register bit 4
                                 .equ	DDC5	= 5	; Port C Data Direction Register bit 5
                                 .equ	DDC6	= 6	; Port C Data Direction Register bit 6
                                 
                                 ; PINC - Port C Input Pins
                                 .equ	PINC0	= 0	; Port C Input Pins bit 0
                                 .equ	PINC1	= 1	; Port C Input Pins bit 1
                                 .equ	PINC2	= 2	; Port C Input Pins bit 2
                                 .equ	PINC3	= 3	; Port C Input Pins bit 3
                                 .equ	PINC4	= 4	; Port C Input Pins bit 4
                                 .equ	PINC5	= 5	; Port C Input Pins bit 5
                                 .equ	PINC6	= 6	; Port C Input Pins bit 6
                                 
                                 
                                 ; ***** PORTD ************************
                                 ; PORTD - Port D Data Register
                                 .equ	PORTD0	= 0	; Port D Data Register bit 0
                                 .equ	PD0	= 0	; For compatibility
                                 .equ	PORTD1	= 1	; Port D Data Register bit 1
                                 .equ	PD1	= 1	; For compatibility
                                 .equ	PORTD2	= 2	; Port D Data Register bit 2
                                 .equ	PD2	= 2	; For compatibility
                                 .equ	PORTD3	= 3	; Port D Data Register bit 3
                                 .equ	PD3	= 3	; For compatibility
                                 .equ	PORTD4	= 4	; Port D Data Register bit 4
                                 .equ	PD4	= 4	; For compatibility
                                 .equ	PORTD5	= 5	; Port D Data Register bit 5
                                 .equ	PD5	= 5	; For compatibility
                                 .equ	PORTD6	= 6	; Port D Data Register bit 6
                                 .equ	PD6	= 6	; For compatibility
                                 .equ	PORTD7	= 7	; Port D Data Register bit 7
                                 .equ	PD7	= 7	; For compatibility
                                 
                                 ; DDRD - Port D Data Direction Register
                                 .equ	DDD0	= 0	; Port D Data Direction Register bit 0
                                 .equ	DDD1	= 1	; Port D Data Direction Register bit 1
                                 .equ	DDD2	= 2	; Port D Data Direction Register bit 2
                                 .equ	DDD3	= 3	; Port D Data Direction Register bit 3
                                 .equ	DDD4	= 4	; Port D Data Direction Register bit 4
                                 .equ	DDD5	= 5	; Port D Data Direction Register bit 5
                                 .equ	DDD6	= 6	; Port D Data Direction Register bit 6
                                 .equ	DDD7	= 7	; Port D Data Direction Register bit 7
                                 
                                 ; PIND - Port D Input Pins
                                 .equ	PIND0	= 0	; Port D Input Pins bit 0
                                 .equ	PIND1	= 1	; Port D Input Pins bit 1
                                 .equ	PIND2	= 2	; Port D Input Pins bit 2
                                 .equ	PIND3	= 3	; Port D Input Pins bit 3
                                 .equ	PIND4	= 4	; Port D Input Pins bit 4
                                 .equ	PIND5	= 5	; Port D Input Pins bit 5
                                 .equ	PIND6	= 6	; Port D Input Pins bit 6
                                 .equ	PIND7	= 7	; Port D Input Pins bit 7
                                 
                                 
                                 ; ***** TIMER_COUNTER_0 **************
                                 ; TIMSK0 - Timer/Counter0 Interrupt Mask Register
                                 .equ	TOIE0	= 0	; Timer/Counter0 Overflow Interrupt Enable
                                 .equ	OCIE0A	= 1	; Timer/Counter0 Output Compare Match A Interrupt Enable
                                 .equ	OCIE0B	= 2	; Timer/Counter0 Output Compare Match B Interrupt Enable
                                 
                                 ; TIFR0 - Timer/Counter0 Interrupt Flag register
                                 .equ	TOV0	= 0	; Timer/Counter0 Overflow Flag
                                 .equ	OCF0A	= 1	; Timer/Counter0 Output Compare Flag 0A
                                 .equ	OCF0B	= 2	; Timer/Counter0 Output Compare Flag 0B
                                 
                                 ; TCCR0A - Timer/Counter  Control Register A
                                 .equ	WGM00	= 0	; Waveform Generation Mode
                                 .equ	WGM01	= 1	; Waveform Generation Mode
                                 .equ	COM0B0	= 4	; Compare Output Mode, Fast PWm
                                 .equ	COM0B1	= 5	; Compare Output Mode, Fast PWm
                                 .equ	COM0A0	= 6	; Compare Output Mode, Phase Correct PWM Mode
                                 .equ	COM0A1	= 7	; Compare Output Mode, Phase Correct PWM Mode
                                 
                                 ; TCCR0B - Timer/Counter Control Register B
                                 .equ	CS00	= 0	; Clock Select
                                 .equ	CS01	= 1	; Clock Select
                                 .equ	CS02	= 2	; Clock Select
                                 .equ	WGM02	= 3	; 
                                 .equ	FOC0B	= 6	; Force Output Compare B
                                 .equ	FOC0A	= 7	; Force Output Compare A
                                 
                                 ; TCNT0 - Timer/Counter0
                                 .equ	TCNT0_0	= 0	; 
                                 .equ	TCNT0_1	= 1	; 
                                 .equ	TCNT0_2	= 2	; 
                                 .equ	TCNT0_3	= 3	; 
                                 .equ	TCNT0_4	= 4	; 
                                 .equ	TCNT0_5	= 5	; 
                                 .equ	TCNT0_6	= 6	; 
                                 .equ	TCNT0_7	= 7	; 
                                 
                                 ; OCR0A - Timer/Counter0 Output Compare Register
                                 .equ	OCR0A_0	= 0	; 
                                 .equ	OCR0A_1	= 1	; 
                                 .equ	OCR0A_2	= 2	; 
                                 .equ	OCR0A_3	= 3	; 
                                 .equ	OCR0A_4	= 4	; 
                                 .equ	OCR0A_5	= 5	; 
                                 .equ	OCR0A_6	= 6	; 
                                 .equ	OCR0A_7	= 7	; 
                                 
                                 ; OCR0B - Timer/Counter0 Output Compare Register
                                 .equ	OCR0B_0	= 0	; 
                                 .equ	OCR0B_1	= 1	; 
                                 .equ	OCR0B_2	= 2	; 
                                 .equ	OCR0B_3	= 3	; 
                                 .equ	OCR0B_4	= 4	; 
                                 .equ	OCR0B_5	= 5	; 
                                 .equ	OCR0B_6	= 6	; 
                                 .equ	OCR0B_7	= 7	; 
                                 
                                 ; GTCCR - General Timer/Counter Control Register
                                 ;.equ	PSRSYNC	= 0	; Prescaler Reset Timer/Counter1 and Timer/Counter0
                                 .equ	PSR10	= PSRSYNC	; For compatibility
                                 ;.equ	TSM	= 7	; Timer/Counter Synchronization Mode
                                 
                                 
                                 ; ***** EXTERNAL_INTERRUPT ***********
                                 ; EICRA - External Interrupt Control Register
                                 .equ	ISC00	= 0	; External Interrupt Sense Control 0 Bit 0
                                 .equ	ISC01	= 1	; External Interrupt Sense Control 0 Bit 1
                                 .equ	ISC10	= 2	; External Interrupt Sense Control 1 Bit 0
                                 .equ	ISC11	= 3	; External Interrupt Sense Control 1 Bit 1
                                 
                                 ; EIMSK - External Interrupt Mask Register
                                 .equ	INT0	= 0	; External Interrupt Request 0 Enable
                                 .equ	INT1	= 1	; External Interrupt Request 1 Enable
                                 
                                 ; EIFR - External Interrupt Flag Register
                                 .equ	INTF0	= 0	; External Interrupt Flag 0
                                 .equ	INTF1	= 1	; External Interrupt Flag 1
                                 
                                 ; PCICR - Pin Change Interrupt Control Register
                                 .equ	PCIE0	= 0	; Pin Change Interrupt Enable 0
                                 .equ	PCIE1	= 1	; Pin Change Interrupt Enable 1
                                 .equ	PCIE2	= 2	; Pin Change Interrupt Enable 2
                                 
                                 ; PCMSK2 - Pin Change Mask Register 2
                                 .equ	PCINT16	= 0	; Pin Change Enable Mask 16
                                 .equ	PCINT17	= 1	; Pin Change Enable Mask 17
                                 .equ	PCINT18	= 2	; Pin Change Enable Mask 18
                                 .equ	PCINT19	= 3	; Pin Change Enable Mask 19
                                 .equ	PCINT20	= 4	; Pin Change Enable Mask 20
                                 .equ	PCINT21	= 5	; Pin Change Enable Mask 21
                                 .equ	PCINT22	= 6	; Pin Change Enable Mask 22
                                 .equ	PCINT23	= 7	; Pin Change Enable Mask 23
                                 
                                 ; PCMSK1 - Pin Change Mask Register 1
                                 .equ	PCINT8	= 0	; Pin Change Enable Mask 8
                                 .equ	PCINT9	= 1	; Pin Change Enable Mask 9
                                 .equ	PCINT10	= 2	; Pin Change Enable Mask 10
                                 .equ	PCINT11	= 3	; Pin Change Enable Mask 11
                                 .equ	PCINT12	= 4	; Pin Change Enable Mask 12
                                 .equ	PCINT13	= 5	; Pin Change Enable Mask 13
                                 .equ	PCINT14	= 6	; Pin Change Enable Mask 14
                                 
                                 ; PCMSK0 - Pin Change Mask Register 0
                                 .equ	PCINT0	= 0	; Pin Change Enable Mask 0
                                 .equ	PCINT1	= 1	; Pin Change Enable Mask 1
                                 .equ	PCINT2	= 2	; Pin Change Enable Mask 2
                                 .equ	PCINT3	= 3	; Pin Change Enable Mask 3
                                 .equ	PCINT4	= 4	; Pin Change Enable Mask 4
                                 .equ	PCINT5	= 5	; Pin Change Enable Mask 5
                                 .equ	PCINT6	= 6	; Pin Change Enable Mask 6
                                 .equ	PCINT7	= 7	; Pin Change Enable Mask 7
                                 
                                 ; PCIFR - Pin Change Interrupt Flag Register
                                 .equ	PCIF0	= 0	; Pin Change Interrupt Flag 0
                                 .equ	PCIF1	= 1	; Pin Change Interrupt Flag 1
                                 .equ	PCIF2	= 2	; Pin Change Interrupt Flag 2
                                 
                                 
                                 ; ***** SPI **************************
                                 ; SPDR - SPI Data Register
                                 .equ	SPDR0	= 0	; SPI Data Register bit 0
                                 .equ	SPDR1	= 1	; SPI Data Register bit 1
                                 .equ	SPDR2	= 2	; SPI Data Register bit 2
                                 .equ	SPDR3	= 3	; SPI Data Register bit 3
                                 .equ	SPDR4	= 4	; SPI Data Register bit 4
                                 .equ	SPDR5	= 5	; SPI Data Register bit 5
                                 .equ	SPDR6	= 6	; SPI Data Register bit 6
                                 .equ	SPDR7	= 7	; SPI Data Register bit 7
                                 
                                 ; SPSR - SPI Status Register
                                 .equ	SPI2X	= 0	; Double SPI Speed Bit
                                 .equ	WCOL	= 6	; Write Collision Flag
                                 .equ	SPIF	= 7	; SPI Interrupt Flag
                                 
                                 ; SPCR - SPI Control Register
                                 .equ	SPR0	= 0	; SPI Clock Rate Select 0
                                 .equ	SPR1	= 1	; SPI Clock Rate Select 1
                                 .equ	CPHA	= 2	; Clock Phase
                                 .equ	CPOL	= 3	; Clock polarity
                                 .equ	MSTR	= 4	; Master/Slave Select
                                 .equ	DORD	= 5	; Data Order
                                 .equ	SPE	= 6	; SPI Enable
                                 .equ	SPIE	= 7	; SPI Interrupt Enable
                                 
                                 
                                 ; ***** WATCHDOG *********************
                                 ; WDTCSR - Watchdog Timer Control Register
                                 .equ	WDP0	= 0	; Watch Dog Timer Prescaler bit 0
                                 .equ	WDP1	= 1	; Watch Dog Timer Prescaler bit 1
                                 .equ	WDP2	= 2	; Watch Dog Timer Prescaler bit 2
                                 .equ	WDE	= 3	; Watch Dog Enable
                                 .equ	WDCE	= 4	; Watchdog Change Enable
                                 .equ	WDP3	= 5	; Watchdog Timer Prescaler Bit 3
                                 .equ	WDIE	= 6	; Watchdog Timeout Interrupt Enable
                                 .equ	WDIF	= 7	; Watchdog Timeout Interrupt Flag
                                 
                                 
                                 ; ***** CPU **************************
                                 ; SREG - Status Register
                                 .equ	SREG_C	= 0	; Carry Flag
                                 .equ	SREG_Z	= 1	; Zero Flag
                                 .equ	SREG_N	= 2	; Negative Flag
                                 .equ	SREG_V	= 3	; Two's Complement Overflow Flag
                                 .equ	SREG_S	= 4	; Sign Bit
                                 .equ	SREG_H	= 5	; Half Carry Flag
                                 .equ	SREG_T	= 6	; Bit Copy Storage
                                 .equ	SREG_I	= 7	; Global Interrupt Enable
                                 
                                 ; OSCCAL - Oscillator Calibration Value
                                 .equ	CAL0	= 0	; Oscillator Calibration Value Bit0
                                 .equ	CAL1	= 1	; Oscillator Calibration Value Bit1
                                 .equ	CAL2	= 2	; Oscillator Calibration Value Bit2
                                 .equ	CAL3	= 3	; Oscillator Calibration Value Bit3
                                 .equ	CAL4	= 4	; Oscillator Calibration Value Bit4
                                 .equ	CAL5	= 5	; Oscillator Calibration Value Bit5
                                 .equ	CAL6	= 6	; Oscillator Calibration Value Bit6
                                 .equ	CAL7	= 7	; Oscillator Calibration Value Bit7
                                 
                                 ; CLKPR - Clock Prescale Register
                                 .equ	CLKPS0	= 0	; Clock Prescaler Select Bit 0
                                 .equ	CLKPS1	= 1	; Clock Prescaler Select Bit 1
                                 .equ	CLKPS2	= 2	; Clock Prescaler Select Bit 2
                                 .equ	CLKPS3	= 3	; Clock Prescaler Select Bit 3
                                 .equ	CLKPCE	= 7	; Clock Prescaler Change Enable
                                 
                                 ; SPMCSR - Store Program Memory Control and Status Register
                                 .equ    SELFPRGEN = 0; Added for backwards compatibility
                                 .equ	SPMEN	= 0	; Store Program Memory
                                 .equ	PGERS	= 1	; Page Erase
                                 .equ	PGWRT	= 2	; Page Write
                                 .equ	BLBSET	= 3	; Boot Lock Bit Set
                                 .equ	RWWSRE	= 4	; Read-While-Write section read enable
                                 .equ    SIGRD   = 5 ; Signature Row Read
                                 .equ	RWWSB	= 6	; Read-While-Write Section Busy
                                 .equ	SPMIE	= 7	; SPM Interrupt Enable
                                 
                                 ; MCUCR - MCU Control Register
                                 .equ	IVCE	= 0	; 
                                 .equ	IVSEL	= 1	; 
                                 .equ	PUD	= 4	; 
                                 .equ	BODSE	= 5	; BOD Sleep Enable
                                 .equ	BODS	= 6	; BOD Sleep
                                 
                                 ; MCUSR - MCU Status Register
                                 .equ	PORF	= 0	; Power-on reset flag
                                 .equ	EXTRF	= 1	; External Reset Flag
                                 .equ	EXTREF	= EXTRF	; For compatibility
                                 .equ	BORF	= 2	; Brown-out Reset Flag
                                 .equ	WDRF	= 3	; Watchdog Reset Flag
                                 
                                 ; SMCR - Sleep Mode Control Register
                                 .equ	SE	= 0	; Sleep Enable
                                 .equ	SM0	= 1	; Sleep Mode Select Bit 0
                                 .equ	SM1	= 2	; Sleep Mode Select Bit 1
                                 .equ	SM2	= 3	; Sleep Mode Select Bit 2
                                 
                                 ; GPIOR2 - General Purpose I/O Register 2
                                 .equ	GPIOR20	= 0	; 
                                 .equ	GPIOR21	= 1	; 
                                 .equ	GPIOR22	= 2	; 
                                 .equ	GPIOR23	= 3	; 
                                 .equ	GPIOR24	= 4	; 
                                 .equ	GPIOR25	= 5	; 
                                 .equ	GPIOR26	= 6	; 
                                 .equ	GPIOR27	= 7	; 
                                 
                                 ; GPIOR1 - General Purpose I/O Register 1
                                 .equ	GPIOR10	= 0	; 
                                 .equ	GPIOR11	= 1	; 
                                 .equ	GPIOR12	= 2	; 
                                 .equ	GPIOR13	= 3	; 
                                 .equ	GPIOR14	= 4	; 
                                 .equ	GPIOR15	= 5	; 
                                 .equ	GPIOR16	= 6	; 
                                 .equ	GPIOR17	= 7	; 
                                 
                                 ; GPIOR0 - General Purpose I/O Register 0
                                 .equ	GPIOR00	= 0	; 
                                 .equ	GPIOR01	= 1	; 
                                 .equ	GPIOR02	= 2	; 
                                 .equ	GPIOR03	= 3	; 
                                 .equ	GPIOR04	= 4	; 
                                 .equ	GPIOR05	= 5	; 
                                 .equ	GPIOR06	= 6	; 
                                 .equ	GPIOR07	= 7	; 
                                 
                                 ; PRR - Power Reduction Register
                                 .equ	PRADC	= 0	; Power Reduction ADC
                                 .equ	PRUSART0	= 1	; Power Reduction USART
                                 .equ	PRSPI	= 2	; Power Reduction Serial Peripheral Interface
                                 .equ	PRTIM1	= 3	; Power Reduction Timer/Counter1
                                 .equ	PRTIM0	= 5	; Power Reduction Timer/Counter0
                                 .equ	PRTIM2	= 6	; Power Reduction Timer/Counter2
                                 .equ	PRTWI	= 7	; Power Reduction TWI
                                 
                                 
                                 ; ***** EEPROM ***********************
                                 ; EEARL - EEPROM Address Register Low Byte
                                 .equ	EEAR0	= 0	; EEPROM Read/Write Access Bit 0
                                 .equ	EEAR1	= 1	; EEPROM Read/Write Access Bit 1
                                 .equ	EEAR2	= 2	; EEPROM Read/Write Access Bit 2
                                 .equ	EEAR3	= 3	; EEPROM Read/Write Access Bit 3
                                 .equ	EEAR4	= 4	; EEPROM Read/Write Access Bit 4
                                 .equ	EEAR5	= 5	; EEPROM Read/Write Access Bit 5
                                 .equ	EEAR6	= 6	; EEPROM Read/Write Access Bit 6
                                 .equ	EEAR7	= 7	; EEPROM Read/Write Access Bit 7
                                 
                                 ; EEARH - EEPROM Address Register High Byte
                                 .equ	EEAR8	= 0	; EEPROM Read/Write Access Bit 8
                                 .equ	EEAR9	= 1	; EEPROM Read/Write Access Bit 9
                                 
                                 ; EEDR - EEPROM Data Register
                                 .equ	EEDR0	= 0	; EEPROM Data Register bit 0
                                 .equ	EEDR1	= 1	; EEPROM Data Register bit 1
                                 .equ	EEDR2	= 2	; EEPROM Data Register bit 2
                                 .equ	EEDR3	= 3	; EEPROM Data Register bit 3
                                 .equ	EEDR4	= 4	; EEPROM Data Register bit 4
                                 .equ	EEDR5	= 5	; EEPROM Data Register bit 5
                                 .equ	EEDR6	= 6	; EEPROM Data Register bit 6
                                 .equ	EEDR7	= 7	; EEPROM Data Register bit 7
                                 
                                 ; EECR - EEPROM Control Register
                                 .equ	EERE	= 0	; EEPROM Read Enable
                                 .equ	EEPE	= 1	; EEPROM Write Enable
                                 .equ	EEMPE	= 2	; EEPROM Master Write Enable
                                 .equ	EERIE	= 3	; EEPROM Ready Interrupt Enable
                                 .equ	EEPM0	= 4	; EEPROM Programming Mode Bit 0
                                 .equ	EEPM1	= 5	; EEPROM Programming Mode Bit 1
                                 
                                 
                                 
                                 ; ***** LOCKSBITS ********************************************************
                                 .equ	LB1	= 0	; Lock bit
                                 .equ	LB2	= 1	; Lock bit
                                 .equ	BLB01	= 2	; Boot Lock bit
                                 .equ	BLB02	= 3	; Boot Lock bit
                                 .equ	BLB11	= 4	; Boot lock bit
                                 .equ	BLB12	= 5	; Boot lock bit
                                 
                                 
                                 ; ***** FUSES ************************************************************
                                 ; LOW fuse bits
                                 .equ	CKSEL0	= 0	; Select Clock Source
                                 .equ	CKSEL1	= 1	; Select Clock Source
                                 .equ	CKSEL2	= 2	; Select Clock Source
                                 .equ	CKSEL3	= 3	; Select Clock Source
                                 .equ	SUT0	= 4	; Select start-up time
                                 .equ	SUT1	= 5	; Select start-up time
                                 .equ	CKOUT	= 6	; Clock output
                                 .equ	CKDIV8	= 7	; Divide clock by 8
                                 
                                 ; HIGH fuse bits
                                 .equ	BOOTRST	= 0	; Select reset vector
                                 .equ	BOOTSZ0	= 1	; Select boot size
                                 .equ	BOOTSZ1	= 2	; Select boot size
                                 .equ	EESAVE	= 3	; EEPROM memory is preserved through chip erase
                                 .equ	WDTON	= 4	; Watchdog Timer Always On
                                 .equ	SPIEN	= 5	; Enable Serial programming and Data Downloading
                                 .equ	DWEN	= 6	; debugWIRE Enable
                                 .equ	RSTDISBL	= 7	; External reset disable
                                 
                                 ; EXTENDED fuse bits
                                 .equ	BODLEVEL0	= 0	; Brown-out Detector trigger level
                                 .equ	BODLEVEL1	= 1	; Brown-out Detector trigger level
                                 .equ	BODLEVEL2	= 2	; Brown-out Detector trigger level
                                 
                                 
                                 
                                 ; ***** CPU REGISTER DEFINITIONS *****************************************
                                 .def	XH	= r27
                                 .def	XL	= r26
                                 .def	YH	= r29
                                 .def	YL	= r28
                                 .def	ZH	= r31
                                 .def	ZL	= r30
                                 
                                 
                                 
                                 ; ***** DATA MEMORY DECLARATIONS *****************************************
                                 .equ	FLASHEND	= 0x3fff	; Note: Word address
                                 .equ	IOEND	= 0x00ff
                                 .equ	SRAM_START	= 0x0100
                                 .equ	SRAM_SIZE	= 2048
                                 .equ	RAMEND	= 0x08ff
                                 .equ	XRAMEND	= 0x0000
                                 .equ	E2END	= 0x03ff
                                 .equ	EEPROMEND	= 0x03ff
                                 .equ	EEADRBITS	= 10
                                 #pragma AVRPART MEMORY PROG_FLASH 32768
                                 #pragma AVRPART MEMORY EEPROM 1024
                                 #pragma AVRPART MEMORY INT_SRAM SIZE 2048
                                 #pragma AVRPART MEMORY INT_SRAM START_ADDR 0x100
                                 
                                 
                                 
                                 ; ***** BOOTLOADER DECLARATIONS ******************************************
                                 .equ	NRWW_START_ADDR	= 0x3800
                                 .equ	NRWW_STOP_ADDR	= 0x3fff
                                 .equ	RWW_START_ADDR	= 0x0
                                 .equ	RWW_STOP_ADDR	= 0x37ff
                                 .equ	PAGESIZE	= 64
                                 .equ	FIRSTBOOTSTART	= 0x3f00
                                 .equ	SECONDBOOTSTART	= 0x3e00
                                 .equ	THIRDBOOTSTART	= 0x3c00
                                 .equ	FOURTHBOOTSTART	= 0x3800
                                 .equ	SMALLBOOTSTART	= FIRSTBOOTSTART
                                 .equ	LARGEBOOTSTART	= FOURTHBOOTSTART
                                 
                                 
                                 
                                 ; ***** INTERRUPT VECTORS ************************************************
                                 .equ	INT0addr	= 0x0002	; External Interrupt Request 0
                                 .equ	INT1addr	= 0x0004	; External Interrupt Request 1
                                 .equ	PCI0addr	= 0x0006	; Pin Change Interrupt Request 0
                                 .equ	PCI1addr	= 0x0008	; Pin Change Interrupt Request 0
                                 .equ	PCI2addr	= 0x000a	; Pin Change Interrupt Request 1
                                 .equ	WDTaddr	= 0x000c	; Watchdog Time-out Interrupt
                                 .equ	OC2Aaddr	= 0x000e	; Timer/Counter2 Compare Match A
                                 .equ	OC2Baddr	= 0x0010	; Timer/Counter2 Compare Match A
                                 .equ	OVF2addr	= 0x0012	; Timer/Counter2 Overflow
                                 .equ	ICP1addr	= 0x0014	; Timer/Counter1 Capture Event
                                 .equ	OC1Aaddr	= 0x0016	; Timer/Counter1 Compare Match A
                                 .equ	OC1Baddr	= 0x0018	; Timer/Counter1 Compare Match B
                                 .equ	OVF1addr	= 0x001a	; Timer/Counter1 Overflow
                                 .equ	OC0Aaddr	= 0x001c	; TimerCounter0 Compare Match A
                                 .equ	OC0Baddr	= 0x001e	; TimerCounter0 Compare Match B
                                 .equ	OVF0addr	= 0x0020	; Timer/Couner0 Overflow
                                 .equ	SPIaddr	= 0x0022	; SPI Serial Transfer Complete
                                 .equ	URXCaddr	= 0x0024	; USART Rx Complete
                                 .equ	UDREaddr	= 0x0026	; USART, Data Register Empty
                                 .equ	UTXCaddr	= 0x0028	; USART Tx Complete
                                 .equ	ADCCaddr	= 0x002a	; ADC Conversion Complete
                                 .equ	ERDYaddr	= 0x002c	; EEPROM Ready
                                 .equ	ACIaddr	= 0x002e	; Analog Comparator
                                 .equ	TWIaddr	= 0x0030	; Two-wire Serial Interface
                                 .equ	SPMRaddr	= 0x0032	; Store Program Memory Read
                                 
                                 .equ	INT_VECTORS_SIZE	= 52	; size in words
                                 
                                 #endif  /* _M328PDEF_INC_ */
                                 
                                 ; ***** END OF FILE ******************************************************
                                 
                                 ;/  NTSC/PAL Video Display (40/80 character x 25 line monochrome text/graphics)		/
                                 ;/																					/
                                 ;/  Original 40x25 text designed and written by Daryl Rictor (c)2003-2004			/
                                 ;/																					/
                                 ;/  Modified by Grant Searle 2007-2013												/
                                 ;/      - 80x25 or 40x25 display                                                    /
                                 ;/      - Handshaking/data transfer rewritten										/
                                 ;/      - 8bit and 4bit and I2C interface (with help from Dave Curran)				/
                                 ;/**********************************************************************************/
                                 
                                 ; include program specific definitions and macros
                                 .include  "defs.inc"
                                 
                                 ;  Originally designed and written by Daryl Rictor (c)2003-2004
                                 ;
                                 ;  Modified by Grant Searle 2007-13
                                 ;
                                 
                                 ;  Define Registers and Port Pins
                                 ;   Acc = R00, R01 (results of multiply command)
                                 .def  Acc		=	R0				; Reserved - maths accumulator for multiply operations
                                 .def  Acch		=	R1				;					" 
                                 
                                 .def  nibbleTemp=	R2				; Temp storage for 4-bit (nibble) transfer		
                                 
                                 .def configByte =	R3				; As read from PORT D at startup
                                 .set CONFIG_PAL = 7					; 0xxxxxxx = NTSC, 0xxxxxxx = PAL
                                 .set CONFIG_8_OR_4_BIT = 6			; x0xxxxxx = 4 bit, x1xxxxxx= 8 bit
                                 .set CONFIG_N_TWI = 5				; xx1xxxxx = 4/8 bit, xx0xxxxx= Two wire
                                 .set CONFIG_80_CHAR_PER_LINE = 4	; xxx0xxxx = 40, xxx1xxxx=80
                                 .set CONFIG_SINGLE_HEIGHT = 3		; xxxx1xxx = Normal, xxxx0xxx = Double height
                                 .set CONFIG_BOLD = 2				; xxxxx0xx = Normal, xxxxx1xx = Bold
                                 
                                 .def  currLineAtt = R4				; Reserved for scanline processing
                                 .set ATT_80_CHAR_PER_LINE = 0		; xxxxxxx0 = 40, xxxxxxx1=80
                                 .set ATT_BOLD = 1			
                                 .set ATT_DBL_TOP = 2				; xxxx00xx = Normal, xxxx01xx = Double top row, xxxx10xx = Double bottom row
                                 .set ATT_DBL_BOTTOM = 3
                                 			
                                 .def  activeLineAtt = R5			; Font/graphic style currently being used
                                 .set ATT_DBL_HEIGHT = 2
                                 .set ATT_GRAPHICS = 7
                                 
                                 .def  previousInpt = R6
                                 .def  charUnderCursor	=   R7	; character under the cursor
                                 .def  temp1s    =   R8
                                 .def  temp0s    =   R9
                                 .def  lastline	=	R10
                                 .def  line1		= 	R11
                                 .def  cmdVal	=	R12
                                 .def  temp		=	R13			; General purpose temp
                                 .def  temp2		=	R14			; General purpose temp
                                 .def  temp3		=	R15			; General purpose temp
                                 
                                 ;-------------------------------------------------
                                 .def  J			=	R16			; scratch 8 bit reg
                                 .def  K			=	R17			; scratch 8 bit reg
                                 .def  column	=	R18			; hor cursor pos  0-79
                                 .def  row		=	R19			; vert cursor pos 0-24
                                 .def  vline		=	R20			;\ vertical display line counter 0-261
                                 .def  vlineh 	=	R21			;/ hi byte of vline counter
                                 .def  chrln		=  	R22			; display chr line 0 - 199
                                 .def  inpt		=	R23			; host input 
                                 .def  cursorChar=   R24			; cursor character
                                 .def  cursorClk	=	R25			; the cursor blink timer
                                 
                                 ;    X pair = R26,27
                                 ;    Y pair = R28,29
                                 ;    Z pair = R30,31
                                 ;
                                 ;  X pair used to point to SRAM by refresh routines
                                 ;  Y pair used to point to SRAM by HOST processor
                                 ;  Z pair used to point to Font data in Program Memory & scrolling
                                 
                                 
                                 ;PORT pin defs
                                 .set  syncpin		=	PB0			; output
                                 .set  ldsrpin		=	PC3			; output
                                 .set  ackdpin		=	PC4			; output
                                 .set  availpin		=	PC5			; input
                                 .set  ntscpin		=	PD7
                                 .set  datalenpin	=	PD6
                                 .set  twowireselpin =   PD5
                                 
                                 ; TWI defs
                                 .equ TW_SR_DATA_ACK =   0x80 		; x80 10000000 (the previously addressed (SLA + W) data has been received , ACK has been returned
                                 
                                 ;---------------------------------------------------------------------------------------------------------------------------
                                 ; Standard ATmega328 jump vectors
                                 
000000 940c 0034                  jmp RESET ; Reset Handler
000002 940c 0034                  jmp EXT_INT0 ; IRQ0 Handler
000004 940c 0034                  jmp EXT_INT1 ; IRQ1 Handler
000006 940c 0034                  jmp PC_INT0 ; PCINT0 Handler
000008 940c 0034                  jmp PC_INT1 ; PCINT1 Handler
00000a 940c 0034                  jmp PC_INT2 ; PCINT2 Handler
00000c 940c 0034                  jmp WDT ; Watchdog Timer Handler
00000e 940c 0034                  jmp TIM2_COMPA ; Timer2 Compare A Handler
000010 940c 0034                  jmp TIM2_COMPB ; Timer2 Compare B Handler
000012 940c 0034                  jmp TIM2_OVF ; Timer2 Overflow Handler
000014 940c 0034                  jmp TIM1_CAPT ; Timer1 Capture Handler
000016 940c 0101                  jmp TIM1_COMPA ; Timer1 Compare A Handler
000018 940c 0034                  jmp TIM1_COMPB ; Timer1 Compare B Handler
00001a 940c 0034                  jmp TIM1_OVF ; Timer1 Overflow Handler
00001c 940c 0034                  jmp TIM0_COMPA ; Timer0 Compare A Handler
00001e 940c 0034                  jmp TIM0_COMPB ; Timer0 Compare B Handler
000020 940c 0034                  jmp TIM0_OVF ; Timer0 Overflow Handler
000022 940c 0034                  jmp SPI_STC ; SPI Transfer Complete Handler
000024 940c 0034                  jmp USART_RXC ; USART, RX Complete Handler
000026 940c 0034                  jmp USART_UDRE ; USART, UDR Empty Handler
000028 940c 0034                  jmp USART_TXC ; USART, TX Complete Handler
00002a 940c 0034                  jmp ADCC ; ADC Conversion Complete Handler
00002c 940c 0034                  jmp EE_RDY ; EEPROM Ready Handler
00002e 940c 0034                  jmp ANA_COMP ; Analog Comparator Handler
000030 940c 0034                  jmp TWI ; 2-wire Serial Interface Handler
000032 940c 0034                  jmp SPM_RDY ; Store Program Memory Ready Handler
                                 	
                                 ;---------------------------------------------------------------------------------------------------------------------------
                                 ; unused vectors point to software reset code
                                  EXT_INT0:
                                  EXT_INT1:
                                  PC_INT0:
                                  PC_INT1:
                                  PC_INT2:
                                  WDT:
                                  TIM2_COMPA:
                                  TIM2_COMPB:
                                  TIM2_OVF:
                                  TIM1_CAPT:
                                  ;TIM1_COMPA: //used elsewhere
                                  TIM1_COMPB:
                                  TIM1_OVF:
                                  TIM0_COMPA:
                                  TIM0_COMPB:
                                  TIM0_OVF:
                                  SPI_STC:
                                  USART_RXC:
                                  USART_UDRE:
                                  USART_TXC:
                                  ADCC:
                                  EE_RDY:
                                  ANA_COMP:
                                  TWI:
                                  SPM_RDY:
                                 
                                 ;---------------------------------------------------------------------------------------------------------------------------
                                 ; Program start
                                 
                                 RESET:							
000034 94f8                      	CLI							; disable interupts
                                 
                                 ; Initialize the I/O Ports
000035 ef0f                      	LDI		J, 0xFF				
000036 b905                      	out		PORTB, J			; enable pullups
000037 b908                      	out		PORTC, J			; enable pullups
000038 b90b                      	out		PORTD, J			; enable pullups
                                 
000039 e000                      	LDI		J, 0x00				; pins 0 - 7 of port D
00003a b90a                      	out		DDRD, J				; set PORTD pins to inputs TEMPORARILY to read config bits
                                 
00003b e001                      	LDI		J, 0x01				; pin 1 of port B is output (sync)
00003c b904                      	out		DDRB, J			
                                 
                                 ; Initialize Timer 1 
                                 ;   OCR1A will hold the value of 1016/1024 and be used to reset the counter and 
                                 ;   cause an IRQ that will start the HSYNC process
                                 ;   The counter will count each clock cycle (16MHz - no prescaling)
                                 
00003d e000                      	ldi     J, 0x00
00003e 9300 0080                 	sts     TCCR1A, J
000040 e009                      	ldi     J, 0x09				; set timer 1 to CTC mode 4
000041 9300 0081                 	sts     TCCR1B, J		
                                 
000043 e002                      	ldi     J, 0x02				; allow OCR1A IRQ's
000044 9300 006f                 	sts     TIMSK1, J			
                                 
                                 ; Initialise other registers
000046 e000                      	ldi		J,0x00
000047 9300 00c1                 	sts		UCSR0B,J			; Turn off serial
                                 
000049 e800                      	ldi     J, 0x80
00004a bf00                      	out     ACSR, J				; turn off comparator
                                 
00004b e008                      	ldi		J, 0x08				; set stack pointer to top of SRAM 
00004c bf0e                      	out		SPH, J				;
00004d ef0f                      	ldi		J, 0xFF				;
00004e bf0d                      	out		SPL, J				;
                                 
                                 ; Initialise Program Variables
00004f e060                      	ldi		chrln, 0x00			; keeps track of font gen line (0-7)
000050 e050                      	ldi		vlineh, 0x00		; vertical line counter 0-262
000051 e040                      	ldi		vline, 0x00			;			"
000052 e0c0                      	ldi		YL, 0x00			;
000053 e0d1                      	ldi		YH, 0x01			; init y pointer
000054 e020                      	ldi		column, 0x00		; keeps track of horizontal chr pos (0-79)
000055 e030                      	ldi		row, 0x00			; keeps track of vertical chr pos (0-24)
000056 e090                      	ldi		cursorClk, 0x00		; init cursor blink timer
000057 8078                      	ld		charUnderCursor, Y	; init cursor character
000058 e58f                      	ldi		cursorChar, 0x5F	; init cursor '_' character
000059 ef0f                      	ldi		J,	0xFF	
00005a 2e60                      	mov		previousInpt, J
00005b e000                      	ldi		J,	0x00
00005c 2ec0                      	mov		cmdVal, J
                                 
                                 ;---------------------------------------------------------------------------------------------------------------------------
                                 ; Set configuration from PORTD
00005d b039                      	in		configByte,PIND		; Read configuration bits (PORTD pins)
                                 
                                 								; Configuration now read, so set PORTD pins to outputs
00005e e000                      	ldi		J, 0x00				; 
00005f b90b                      	out		PORTD, J			; set port D outputs to 0
000060 ef0f                      	LDI		J, 0xFF				; pins 0 - 7 of port B
000061 b90a                      	out		DDRD, J				; set PORTD pins to outputs
                                 
                                 ; HARD CODED OVERRIDE IF PREFERRED
                                 ;	ldi		J, 1<<CONFIG_PAL | 0<<CONFIG_8_OR_4_BIT | 1<<CONFIG_N_TWI | 1<<CONFIG_80_CHAR_PER_LINE | 1<<CONFIG_SINGLE_HEIGHT | 0<<CONFIG_BOLD
                                 ;	mov		configByte,J
                                 
                                 ;---------------------------------------------------------------------------------------------------------------------------
                                 ; Set default font
000062 e000                      	ldi		J, 0x00
000063 fc34                      	sbrc	configByte,CONFIG_80_CHAR_PER_LINE ; 80 if high
000064 6001                      	ori		J, 1<<ATT_80_CHAR_PER_LINE
000065 fc32                      	sbrc	configByte,CONFIG_BOLD ; Bold if high
000066 6002                      	ori		J, 1<<ATT_BOLD
000067 fe33                      	sbrs	configByte,CONFIG_SINGLE_HEIGHT ; Double if low
000068 6004                      	ori		J, 1<<ATT_DBL_HEIGHT
000069 2e50                      	mov		activeLineAtt, J
                                 
                                 ;---------------------------------------------------------------------------------------------------------------------------
                                 ; Select PAL/NTSC System
00006a fe37                      	sbrs	configByte, CONFIG_PAL	; low = NTSC
00006b c00b                      	rjmp	setNTSC				; Yes, set NTSC mode
                                 
                                 setPAL:
00006c e308                      	ldi		J, 0x38				; 0x0138 Last vertical line 312
00006d 2ea0                      	mov		lastline, J			;
00006e e400                      	ldi		J, 0x40				; first vertical line of active disp
00006f 2eb0                      	mov		line1, J			;
000070 e004                      	ldi		J, 0x04				;  0x0400 = 1024 clocks per line		
000071 9300 0089                 	sts     OCR1AH, J        
000073 e000                      	ldi		J, 0x00				;  0x0400 = 1024 clocks per line		
000074 9300 0088                 	sts     OCR1AL, J			; set Counter 1 to cycle from 0 to 1024 and IRQ
000076 c00a                      	rjmp	palOrNtscSet		;
                                 
                                 setNTSC:						; no, set NTSC mode
000077 e006                      	ldi		J, 0x06				; 0x0106 Last vertical line 262
000078 2ea0                      	mov		lastline, J			;
000079 e208                      	ldi		J, 0x28				; first vertical line of active disp
00007a 2eb0                      	mov		line1, J			;
00007b e003                      	ldi		J, 0x03				; 0x03f8 = 1016 clocks per line (63.5us)
00007c 9300 0089                 	sts     OCR1AH, J        
00007e ef08                      	ldi		J, 0xf8				; 0x03f8 = 1016 clocks per line (63.5us)
00007f 9300 0088                 	sts     OCR1AL, J			; set Counter 1 to cycle from 0 to 1016 and IRQ
                                 
                                 palOrNtscSet:
                                 
                                 ;---------------------------------------------------------------------------------------------------------------------------
                                 ;  Initialise TWI if used otherwise setup ack/avail pins
000081 fe35                      	sbrs	configByte,CONFIG_N_TWI	; low = TWI
000082 c003                      	rjmp	twoWireSelected		; Yes, set TWI mode otherwise setup ack/avail pins
                                 
                                 twoWireNotUsed:
000083 e108                      	LDI		J, 0x18				; pins 3,4 of port C are outputs
000084 b907                      	out		DDRC, J	
000085 c008                      	rjmp	twiSet
                                 
                                 twoWireSelected:
000086 e008                      	LDI		J, 0x08				; only pin 3 of port C is an output
000087 b907                      	out		DDRC, J	
                                 
000088 e002                      	ldi		J, 0x02				; Set address to 0x01, format aaaaaaag (a=address, g=general call enable)
000089 9300 00ba                 	sts		TWAR, J				;
00008b e404                      	ldi		J, (1<<TWEA)|(1<<TWEN)	
00008c 9300 00bc                 	sts		TWCR, J				; Enable TWI and allow ACK when slave is addressed.
                                 
                                 twiSet:
                                 
                                 ;---------------------------------------------------------------------------------------------------------------------------
                                 ;  Reset Timer 1 and clear Busy Status Flag
00008e e000                      	ldi     J, 0x00				; clear timer 1
00008f 9300 0085                 	sts     TCNT1H, J			; 
000091 9300 0084                 	sts     TCNT1L, J			; 
                                 
000093 e10c                      	ldi		J, 0x1C				; clear timer 1 IRQ's
000094 bb06                      	out		TIFR1, J			; clear timer 1 IRQ's
                                 
                                 	; Set the default attributes for each line (Screen 0100-08CF (2000 bytes), Attributes for each line 08D0-08E9 (25 bytes) )
000095 ede0                      	ldi		ZL, 0xD0
000096 e0f8                      	ldi		ZH, 0x08			; set to start of attribute SRAM
000097 e1c9                      	ldi		YL, 0x19
000098 e0d0                      	ldi		YH,	0x00			; set Y to 25 (19 HEX)
                                 loop1:
000099 9251                      	st 		Z+, activeLineAtt	; save to attribute SRAM			
00009a 9721                      	sbiw	YL, 0x01			; dec Y
00009b f7e9                      	brne	loop1	
                                 
00009c e07c                      	ldi 	inpt,0x0C			; CLS
00009d d452                      	rcall	processChar
                                 
00009e 9478                      	SEI							; Initialisation complete. Enable IRQ's
                                 		
                                 ;---------------------------------------------------------------------------------------------------------------------------
                                 ; Main Loop 
                                 
                                 main:
00009f 3080                      	cpi		cursorChar, 0x00	; is the cursor turned on?
0000a0 f0c1                      	breq	endOfCursor			; no, skip cursor code
0000a1 3f9f                      	cpi		cursorClk, 0xff		; is clk at 0xFF?
0000a2 f041                      	breq	solidCursor			; yes - solid cursor (no blink)
0000a3 319c                      	cpi		cursorClk, 0x1C		; is it above 28 frames?
0000a4 f462                      	brpl	blinkCursor			; if >25, show Cursor
0000a5 2d77                      	mov		inpt,charUnderCursor
0000a6 940e 05f7                 	call	setYfromRowCol
0000a8 940e 0600                 	call	putCharAtY
0000aa c00e                      	rjmp	endOfCursor			
                                 solidCursor:
0000ab 2f78                      	mov		inpt,cursorChar
0000ac 940e 05f7                 	call	setYfromRowCol
0000ae 940e 0600                 	call	putCharAtY
0000b0 c008                      	rjmp	endOfCursor
                                 blinkCursor:
0000b1 2f78                      	mov		inpt,cursorChar
0000b2 940e 05f7                 	call	setYfromRowCol
0000b4 940e 0600                 	call	putCharAtY
0000b6 3397                      	cpi		cursorClk, 0x37		; is clock >56 
0000b7 f00a                      	brmi	endOfCursor			; no
0000b8 2799                      	clr		cursorClk				; reset timer
                                 endOfCursor:
                                 
0000b9 fe35                      	sbrs	configByte,CONFIG_N_TWI	; low = TWI
0000ba c032                      	rjmp	twiMode			; Yes, set TWI mode
                                 
                                 eightOrFourBit:
                                 	; If the ack and data rdy are the same state then there is no
                                 	; data waiting
0000bb b108                      	in		J,PORTC
0000bc 7100                      	andi	J,0x10
0000bd b116                      	in		K,PINC
0000be 7210                      	andi	K,0x20
0000bf 9516                      	lsr		K
0000c0 2701                      	eor		J,K
0000c1 f2e9                      	breq	Main
                                 
                                 	; Data ready, so check if 4bit or 8bit data transfer is being used
0000c2 fe36                      	sbrs	configByte,CONFIG_8_OR_4_BIT
0000c3 c011                      	rjmp	fourBit			; Low = 4 bit
                                 
                                 eightBit:
                                 	; 8 bit Input is split between portB and portC
                                 	; so read both, shift then OR together to form the 8 bit data
0000c4 b103                      	in		J,PINB
0000c5 730e                      	andi	J,0x3E
0000c6 9506                      	lsr		J
0000c7 b176                      	in		inpt,PINC
0000c8 7077                      	andi	inpt,0x07
0000c9 0f77                      	lsl		inpt
0000ca 0f77                      	lsl		inpt
0000cb 0f77                      	lsl		inpt
0000cc 0f77                      	lsl		inpt
0000cd 0f77                      	lsl		inpt
0000ce 2b70                      	or		inpt,J
                                 
                                 	; Data read, so flip the ack bit
0000cf b118                      	in		K,PORTC
0000d0 e100                      	ldi		J,0x10
0000d1 2710                      	eor		K,J
0000d2 b918                      	out		PORTC,K
                                 
0000d3 d41c                      	rcall	processChar			; process the host data
0000d4 cfca                      	rjmp	Main				; repeat
                                 
                                 fourBit:
                                 	; 4 bit Input is on portB only
0000d5 9b35                      	sbis	PINC,availpin
0000d6 c00b                      	rjmp	Nibble2 ; Process lower 4 bits if clear
                                 nibble1:
0000d7 b173                      	in		inpt,PINB
0000d8 717e                      	andi	inpt,0x1E
0000d9 0f77                      	lsl		inpt				; Move to upper 4 bits
0000da 0f77                      	lsl		inpt
0000db 0f77                      	lsl		inpt	
0000dc 2e27                      	mov		nibbleTemp,inpt			
                                 	; Data read, so flip the ack bit
0000dd b118                      	in		K,PORTC
0000de e100                      	ldi		J,0x10
0000df 2710                      	eor		K,J
0000e0 b918                      	out		PORTC,K
0000e1 cfbd                      	rjmp	Main				; repeat
                                 	
                                 nibble2:
0000e2 b103                      	in		J,PINB
0000e3 710e                      	andi	J,0x1E
0000e4 9506                      	lsr		J					; Move to lower 4 bits
0000e5 2a20                      	or		nibbleTemp,J		; Combine it with the first 4 bits
0000e6 2d72                      	mov		inpt,nibbleTemp
                                 
                                 	; Data read, so flip the ack bit
0000e7 b118                      	in		K,PORTC
0000e8 e100                      	ldi		J,0x10
0000e9 2710                      	eor		K,J
0000ea b918                      	out		PORTC,K
0000eb d404                      	rcall	processChar			; process the host data
0000ec cfb2                      	rjmp	main				; repeat
                                 
                                 twiMode:
0000ed 9100 00bc                 	lds		J, TWCR				; check the twi status register
0000ef ff07                      	sbrs	J, TWINT			; is the twint bit set?
0000f0 cfae                      	rjmp	main				; no, back to main loop
                                 
0000f1 9100 00b9                 	lds		J, TWSR				; Check status register						
0000f3 7f08                      	andi	J, 0xF8				; Ignore bits 0..2 (prescaler and reserved bit)	
                                 
                                 ;	cpi		J, 0xA0				; Stop - ignore
                                 ;	breq	toMain				; no new data
                                 
0000f4 3800                      	cpi		J, TW_SR_DATA_ACK   ; 0x80 - address already received received, ACK had been returned
0000f5 f439                      	brne	noTWIdata			; no new data
                                 
0000f6 9170 00bb                 	lds    	inpt, TWDR			; Store the received data
0000f8 ec04                      	ldi		J, (1<<TWINT)|(1<<TWEA)|(1<<TWEN)	; clear the TWINT flag immediately to allow two wire transmission to resume
0000f9 9300 00bc                 	sts		TWCR,J
0000fb d3f4                      	rcall	processChar			; process the host data
0000fc cfa2                      	rjmp	main				; back to main loop
                                 	
                                 noTWIdata:
0000fd ec04                      	ldi		J, (1<<TWINT)|(1<<TWEA)|(1<<TWEN) ; clear the TWINT flag (logic 1)
0000fe 9300 00bc                 	sts		TWCR,J
                                 toMain:
000100 cf9e                      	rjmp	main				; back to main loop
                                 
                                 ;---------------------------------------------------------------------------------------------------------------------------
                                 ; IRQ Service routine for the video line generation
                                 TIM1_COMPA:						; IRQ service for OCR1A 
                                 	.include "vidgen.inc"		; file that holds the video generation code	
                                 
                                 ; NTSC/PAL Video Generation Code (16MHZ System Clock)
                                 ;
                                 ;  Originally designed and written by Daryl Rictor (c)2003-2004
                                 ;
                                 ;  Modified by Grant Searle 2007-13
                                 ;     - Multi size fonts
                                 ;     - Now uses a single clock interrupt
                                 ;     - Supports 40 chars or 80 chars per line
                                 ;******************************************************************************
                                 
000101 920f                      	push	acc
000102 921f                      	push	accH
000103 93ef                      	push	ZL
000104 93ff                      	push	ZH
000105 930f                      	push	J
000106 b70f                      	in		J,SREG
000107 930f                      	push 	J
                                 
                                 ;Get exact sync with clock (remove jitter)
000108 9100 0084                 	lds      J, TCNT1L				  
00010a 3104                      	cpi     J, 0x14
00010b f059                      	breq	clkSync0
00010c 3105                      	cpi     J, 0x15
00010d f061                      	breq	clkSync1
00010e 3106                      	cpi     J, 0x16
00010f f069                      	breq	clkSync2
000110 3107                      	cpi     J, 0x17
000111 f071                      	breq	clkSync3
000112 3108                      	cpi     J, 0x18
000113 f079                      	breq	clkSync4
000114 0000                      	nop
000115 0000                      	nop
000116 0000                      	nop
                                 clkSync0:	 
000117 0000                      	nop
000118 0000                      	nop
000119 0000                      	nop
                                 clkSync1:	 
00011a 0000                      	nop
00011b 0000                      	nop
00011c 0000                      	nop
                                 clkSync2:	 
00011d 0000                      	nop
00011e 0000                      	nop
00011f 0000                      	nop
                                 clkSync3:	 
000120 0000                      	nop
000121 0000                      	nop
000122 0000                      	nop
                                 clkSync4:
                                 
                                 ; Timer now always 0x24 at this point 
000123 9828                      	cbi		portb, syncpin			; drop the csync pin
                                 
                                 LINECHECK:
000124 3050                      	cpi		vlineh, 0x00		
000125 f479                      	brne	NOTFIRST256				
                                 
000126 3044                      	cpi		vline, 0x04			
000127 f008                      	brlo	VSYNC					; no, wait for hsync end
000128 c001                      	rjmp	CHECKTOPBLANK
                                 
                                 VSYNC:
000129 c3ba                      	rjmp	EOL						; line 0 is a VSYNC line, we're done
                                 
                                 CHECKTOPBLANK:
00012a 154b                      	cp		vline, line1
00012b f008                      	brlo	TOPBLANK
00012c c001                      	rjmp	CHECKFIRSTLINE
                                 
                                 TOPBLANK:
00012d c010                      	rjmp	BLANK					 
                                 
                                 CHECKFIRSTLINE:
00012e 154b                      	cp		vline, line1
00012f f411                      	brne	CHECKLASTLINE
                                 
                                 FIRSTLINE:
000130 e060                      	ldi		chrln, 0x00				; sync chrlin with first active line	
000131 c010                      	rjmp	DISPLAY				
                                 
                                 CHECKLASTLINE:
000132 3c68                      	cpi		chrln, 0xC8				; have we passed line 200?
000133 f070                      	brlo	DISPLAY					; no, get ready for active display line
000134 c009                      	rjmp	BLANK
                                 
                                 NOTFIRST256:
000135 3c68                      	cpi		chrln, 0xC8				; have we passed line 200?
000136 f058                      	brlo	DISPLAY					; no, get ready for active display line
                                 
000137 154a                      	cp		vline, lastline			
000138 f429                      	brne	BLANK					; no, wait for hsync end
                                 
000139 e050                      	ldi		vlineh, 0x00			; yes, reset vert counters
00013a e040                      	ldi		vline, 0x00				;
00013b 3f9f                      	cpi		cursorClk, 0xff			; 
00013c f009                      	breq	vs1						;
00013d 9593                      	inc		cursorClk					; inc cursor clock
                                 vs1:
                                 
                                 BLANK:
                                 
00013e ef6f                      	ldi		chrln, 0xFF				; reset pointer
00013f c020                      	rjmp	WAITSYNCEND				; 
                                 
                                 graphics:
000140 62f8                      	ori		ZH,0x28
000141 c01e                      	rjmp	WAITSYNCEND
                                 
                                 DISPLAY:
000142 2f06                      	mov		J, chrln				; Get current display line
000143 9506                      	lsr		J						; divide by 8 
000144 9506                      	lsr		J						; 
000145 9506                      	lsr		J						; J now contains the text line number (0..24)
                                 
                                 	; get attribute definition for current line
000146 eda0                      	ldi		XL, 0xD0
000147 e0b8                      	ldi		XH, 0x08				; set to start of attribute SRAM
000148 0fa0                      	add		XL, J
000149 904c                      	ld		currLineAtt,X
                                 
                                 	; set the SRAM character pointer (X) to the start of the current line (chrln)
00014a e5a0                      	ldi		XL, 0x50				; # chrs per line
00014b 9fa0                      	mul		XL, J					; multiply by chrs per line
00014c e001                      	ldi		J, 0x01					; offset to start of display
00014d 0e10                      	add		R1, J
00014e 01d0                      	movw	XL, R0					; mov it to X reg
                                 
                                 	; set Z to point to base of font row
00014f e0e0                      	ldi		ZL, 0x00				; ZL=0, ASCII code will be added for each character
000150 2ff6                      	mov 	ZH, chrln				; ZH= current display line 
000151 70f7                      	andi	ZH, 0x07				; do ZH MOD 8
                                 
                                 	; If graphics then point to the graphics block font
000152 fc47                      	sbrc	currLineAtt,ATT_GRAPHICS
000153 cfec                      	rjmp	graphics
                                 
                                 	; Check if single or double height to be drawn
000154 fc42                      	sbrc	currLineAtt,ATT_DBL_TOP
000155 95f6                      	lsr		ZH						; If double height top then linecounter incremented at half speed
000156 fc43                      	sbrc	currLineAtt,ATT_DBL_BOTTOM
000157 95f6                      	lsr		ZH						; If double height bottom then linecounter incremented at half speed
000158 fc43                      	sbrc	currLineAtt,ATT_DBL_BOTTOM
000159 60f4                      	ori		ZH,0x04					; Display bottom 4 lines if bottom of a double line
                                 
                                 	; Check if bold or normal font
00015a fe41                      	sbrs	currLineAtt,ATT_BOLD
00015b 62f0                      	ori		ZH,0x20					;0x20 (Normal) or 0x40 (Bold)
00015c fc41                      	sbrc	currLineAtt,ATT_BOLD
00015d 64f0                      	ori		ZH,0x40					;0x20 (Normal) or 0x40 (Bold)
                                 
                                 	; Check if 40 or 80 chars
00015e fe40                      	sbrs	currLineAtt,ATT_80_CHAR_PER_LINE
00015f 61f0                      	ori		ZH, 0x10				; add $1000 for offset to start of wide font table
                                 
                                 WAITSYNCEND:                        ;  else wait sync pulse end
000160 9100 0084                 	lds      J, TCNT1L				;  
000162 350a                      	cpi     J, 0x5A	               
000163 f3e0                      	brlo    WAITSYNCEND				; no, look again
                                 ; Get exact sync with clock (remove jitter)
000164 9100 0084                 	lds      J, TCNT1L				  
000166 350c                      	cpi     J, 0x5C
000167 f079                      	breq	syncEnd0
000168 350d                      	cpi     J, 0x5D
000169 f081                      	breq	syncEnd1
00016a 350e                      	cpi     J, 0x5E
00016b f089                      	breq	syncEnd2
00016c 350f                      	cpi     J, 0x5F
00016d f091                      	breq	syncEnd3
00016e 3600                      	cpi     J, 0x60
00016f f099                      	breq	syncEnd4
000170 3601                      	cpi     J, 0x61
000171 f0a1                      	breq	syncEnd5
000172 3602                      	cpi     J, 0x62
000173 f0a9                      	breq	HSYNCEND
000174 0000                      	nop
000175 0000                      	nop
000176 0000                      	nop
                                 syncEnd0:	 
000177 0000                      	nop
000178 0000                      	nop
000179 0000                      	nop
                                 syncEnd1:	 
00017a 0000                      	nop
00017b 0000                      	nop
00017c 0000                      	nop
                                 syncEnd2:	 
00017d 0000                      	nop
00017e 0000                      	nop
00017f 0000                      	nop
                                 syncEnd3:	 
000180 0000                      	nop
000181 0000                      	nop
000182 0000                      	nop
                                 syncEnd4:	 
000183 0000                      	nop
000184 0000                      	nop
000185 0000                      	nop
                                 syncEnd5:
000186 0000                      	nop
000187 0000                      	nop
000188 0000                      	nop
                                 ; Timer now always 0x72 at this point 
                                 HSYNCEND:        
000189 9a28                      	sbi		portb, syncpin			; raise sync (approx 4.7uS hsync pulse)
00018a 3f6f                      	cpi		chrln, 0xFF				; are we on an active display line?
00018b f409                      	brne	WAITVISIBLEPORTION		; yes, active display line
00018c c357                      	rjmp	EOL						; no, blank line, we're done
                                 
                                 WAITVISIBLEPORTION:        
                                 	
00018d e000                      	ldi		J,0
                                 leftBlank:
00018e 9503                      	inc 	J
00018f 320a                      	cpi 	J,42
000190 f3e8                      	brlo	leftBlank
                                 
000191 b108                      	in		J,PORTC					; read current port C
000192 2e80                      	mov		temp1s,J				; store in temp
000193 7f07                      	andi	J, 0xF7					; Clear sh/ld bit
000194 2e90                      	mov		temp0s,J				; store in temp
                                 
                                 	; Check if 40 or 80 chars per line to be drawn
000195 fe40                      	sbrs	currLineAtt,ATT_80_CHAR_PER_LINE
000196 c193                      	rjmp	DRAWLINE40
000197 c000                      	rjmp	DRAWLINE80
                                 
                                 DRAWLINE80:
                                 ;
                                 ; each line consists of 80 macro calls, each 8 clocks long.  Here is the macro:
                                 .macro DispChr
                                 ;
                                 ;  gets the font byte of the current character and outputs it to the shift register
                                 ;	
                                 ;  8 clocks
                                 
                                 	ld 		ZL, X+				; 2   move curr chr in ZL
                                 	lpm 	J, Z				; 3   get font byte for current chr on curr line
                                 	out		PORTD, J			; 1
                                 	out		PORTC, temp0s		; 1   lower load pin
                                 	out		PORTC, temp1s	    ; 1   raise load pin
                                 .endmacro
                                 
000198 91ed
000199 9104
00019a b90b
00019b b898
00019c b888                      	DispChr							; display 1 chr
00019d 91ed
00019e 9104
00019f b90b
0001a0 b898
0001a1 b888                      	DispChr							; display 1 chr
0001a2 91ed
0001a3 9104
0001a4 b90b
0001a5 b898
0001a6 b888                      	DispChr							; display 1 chr
0001a7 91ed
0001a8 9104
0001a9 b90b
0001aa b898
0001ab b888                      	DispChr							; display 1 chr
0001ac 91ed
0001ad 9104
0001ae b90b
0001af b898
0001b0 b888                      	DispChr							; display 1 chr
0001b1 91ed
0001b2 9104
0001b3 b90b
0001b4 b898
0001b5 b888                      	DispChr							; display 1 chr
0001b6 91ed
0001b7 9104
0001b8 b90b
0001b9 b898
0001ba b888                      	DispChr							; display 1 chr
0001bb 91ed
0001bc 9104
0001bd b90b
0001be b898
0001bf b888                      	DispChr							; display 1 chr
0001c0 91ed
0001c1 9104
0001c2 b90b
0001c3 b898
0001c4 b888                      	DispChr							; display 1 chr
0001c5 91ed
0001c6 9104
0001c7 b90b
0001c8 b898
0001c9 b888                      	DispChr							; display 1 chr
0001ca 91ed
0001cb 9104
0001cc b90b
0001cd b898
0001ce b888                      	DispChr							; display 1 chr
0001cf 91ed
0001d0 9104
0001d1 b90b
0001d2 b898
0001d3 b888                      	DispChr							; display 1 chr
0001d4 91ed
0001d5 9104
0001d6 b90b
0001d7 b898
0001d8 b888                      	DispChr							; display 1 chr
0001d9 91ed
0001da 9104
0001db b90b
0001dc b898
0001dd b888                      	DispChr							; display 1 chr
0001de 91ed
0001df 9104
0001e0 b90b
0001e1 b898
0001e2 b888                      	DispChr							; display 1 chr
0001e3 91ed
0001e4 9104
0001e5 b90b
0001e6 b898
0001e7 b888                      	DispChr							; display 1 chr
0001e8 91ed
0001e9 9104
0001ea b90b
0001eb b898
0001ec b888                      	DispChr							; display 1 chr
0001ed 91ed
0001ee 9104
0001ef b90b
0001f0 b898
0001f1 b888                      	DispChr							; display 1 chr
0001f2 91ed
0001f3 9104
0001f4 b90b
0001f5 b898
0001f6 b888                      	DispChr							; display 1 chr
0001f7 91ed
0001f8 9104
0001f9 b90b
0001fa b898
0001fb b888                      	DispChr							; display 1 chr
0001fc 91ed
0001fd 9104
0001fe b90b
0001ff b898
000200 b888                      	DispChr							; display 1 chr
000201 91ed
000202 9104
000203 b90b
000204 b898
000205 b888                      	DispChr							; display 1 chr
000206 91ed
000207 9104
000208 b90b
000209 b898
00020a b888                      	DispChr							; display 1 chr
00020b 91ed
00020c 9104
00020d b90b
00020e b898
00020f b888                      	DispChr							; display 1 chr
000210 91ed
000211 9104
000212 b90b
000213 b898
000214 b888                      	DispChr							; display 1 chr
000215 91ed
000216 9104
000217 b90b
000218 b898
000219 b888                      	DispChr							; display 1 chr
00021a 91ed
00021b 9104
00021c b90b
00021d b898
00021e b888                      	DispChr							; display 1 chr
00021f 91ed
000220 9104
000221 b90b
000222 b898
000223 b888                      	DispChr							; display 1 chr
000224 91ed
000225 9104
000226 b90b
000227 b898
000228 b888                      	DispChr							; display 1 chr
000229 91ed
00022a 9104
00022b b90b
00022c b898
00022d b888                      	DispChr							; display 1 chr
00022e 91ed
00022f 9104
000230 b90b
000231 b898
000232 b888                      	DispChr							; display 1 chr
000233 91ed
000234 9104
000235 b90b
000236 b898
000237 b888                      	DispChr							; display 1 chr
000238 91ed
000239 9104
00023a b90b
00023b b898
00023c b888                      	DispChr							; display 1 chr
00023d 91ed
00023e 9104
00023f b90b
000240 b898
000241 b888                      	DispChr							; display 1 chr
000242 91ed
000243 9104
000244 b90b
000245 b898
000246 b888                      	DispChr							; display 1 chr
000247 91ed
000248 9104
000249 b90b
00024a b898
00024b b888                      	DispChr							; display 1 chr
00024c 91ed
00024d 9104
00024e b90b
00024f b898
000250 b888                      	DispChr							; display 1 chr
000251 91ed
000252 9104
000253 b90b
000254 b898
000255 b888                      	DispChr							; display 1 chr
000256 91ed
000257 9104
000258 b90b
000259 b898
00025a b888                      	DispChr							; display 1 chr
00025b 91ed
00025c 9104
00025d b90b
00025e b898
00025f b888                      	DispChr							; display 1 chr
                                 
                                 
000260 91ed
000261 9104
000262 b90b
000263 b898
000264 b888                      	DispChr							; display 1 chr
000265 91ed
000266 9104
000267 b90b
000268 b898
000269 b888                      	DispChr							; display 1 chr
00026a 91ed
00026b 9104
00026c b90b
00026d b898
00026e b888                      	DispChr							; display 1 chr
00026f 91ed
000270 9104
000271 b90b
000272 b898
000273 b888                      	DispChr							; display 1 chr
000274 91ed
000275 9104
000276 b90b
000277 b898
000278 b888                      	DispChr							; display 1 chr
000279 91ed
00027a 9104
00027b b90b
00027c b898
00027d b888                      	DispChr							; display 1 chr
00027e 91ed
00027f 9104
000280 b90b
000281 b898
000282 b888                      	DispChr							; display 1 chr
000283 91ed
000284 9104
000285 b90b
000286 b898
000287 b888                      	DispChr							; display 1 chr
000288 91ed
000289 9104
00028a b90b
00028b b898
00028c b888                      	DispChr							; display 1 chr
00028d 91ed
00028e 9104
00028f b90b
000290 b898
000291 b888                      	DispChr							; display 1 chr
000292 91ed
000293 9104
000294 b90b
000295 b898
000296 b888                      	DispChr							; display 1 chr
000297 91ed
000298 9104
000299 b90b
00029a b898
00029b b888                      	DispChr							; display 1 chr
00029c 91ed
00029d 9104
00029e b90b
00029f b898
0002a0 b888                      	DispChr							; display 1 chr
0002a1 91ed
0002a2 9104
0002a3 b90b
0002a4 b898
0002a5 b888                      	DispChr							; display 1 chr
0002a6 91ed
0002a7 9104
0002a8 b90b
0002a9 b898
0002aa b888                      	DispChr							; display 1 chr
0002ab 91ed
0002ac 9104
0002ad b90b
0002ae b898
0002af b888                      	DispChr							; display 1 chr
0002b0 91ed
0002b1 9104
0002b2 b90b
0002b3 b898
0002b4 b888                      	DispChr							; display 1 chr
0002b5 91ed
0002b6 9104
0002b7 b90b
0002b8 b898
0002b9 b888                      	DispChr							; display 1 chr
0002ba 91ed
0002bb 9104
0002bc b90b
0002bd b898
0002be b888                      	DispChr							; display 1 chr
0002bf 91ed
0002c0 9104
0002c1 b90b
0002c2 b898
0002c3 b888                      	DispChr							; display 1 chr
0002c4 91ed
0002c5 9104
0002c6 b90b
0002c7 b898
0002c8 b888                      	DispChr							; display 1 chr
0002c9 91ed
0002ca 9104
0002cb b90b
0002cc b898
0002cd b888                      	DispChr							; display 1 chr
0002ce 91ed
0002cf 9104
0002d0 b90b
0002d1 b898
0002d2 b888                      	DispChr							; display 1 chr
0002d3 91ed
0002d4 9104
0002d5 b90b
0002d6 b898
0002d7 b888                      	DispChr							; display 1 chr
0002d8 91ed
0002d9 9104
0002da b90b
0002db b898
0002dc b888                      	DispChr							; display 1 chr
0002dd 91ed
0002de 9104
0002df b90b
0002e0 b898
0002e1 b888                      	DispChr							; display 1 chr
0002e2 91ed
0002e3 9104
0002e4 b90b
0002e5 b898
0002e6 b888                      	DispChr							; display 1 chr
0002e7 91ed
0002e8 9104
0002e9 b90b
0002ea b898
0002eb b888                      	DispChr							; display 1 chr
0002ec 91ed
0002ed 9104
0002ee b90b
0002ef b898
0002f0 b888                      	DispChr							; display 1 chr
0002f1 91ed
0002f2 9104
0002f3 b90b
0002f4 b898
0002f5 b888                      	DispChr							; display 1 chr
0002f6 91ed
0002f7 9104
0002f8 b90b
0002f9 b898
0002fa b888                      	DispChr							; display 1 chr
0002fb 91ed
0002fc 9104
0002fd b90b
0002fe b898
0002ff b888                      	DispChr							; display 1 chr
000300 91ed
000301 9104
000302 b90b
000303 b898
000304 b888                      	DispChr							; display 1 chr
000305 91ed
000306 9104
000307 b90b
000308 b898
000309 b888                      	DispChr							; display 1 chr
00030a 91ed
00030b 9104
00030c b90b
00030d b898
00030e b888                      	DispChr							; display 1 chr
00030f 91ed
000310 9104
000311 b90b
000312 b898
000313 b888                      	DispChr							; display 1 chr
000314 91ed
000315 9104
000316 b90b
000317 b898
000318 b888                      	DispChr							; display 1 chr
000319 91ed
00031a 9104
00031b b90b
00031c b898
00031d b888                      	DispChr							; display 1 chr
00031e 91ed
00031f 9104
000320 b90b
000321 b898
000322 b888                      	DispChr							; display 1 chr
000323 91ed
000324 9104
000325 b90b
000326 b898
000327 b888                      	DispChr							; display 1 chr
000328 940c 04e3                 	jmp EndOfChars
                                 
                                 DRAWLINE40:
00032a 0000                      	nop							; Exact sync with 80 char lines
                                 ;
                                 ; each line consists of 40 macro calls, each 16 clocks long.  Here is the macro:
                                 .macro DispChrWide
                                 ;
                                 ;  gets the two font bytes of the current character and output them to the shift register
                                 ;	
                                 ;  16 clocks
                                 
                                 	ld 		ZL, X+				; 2   move curr chr in ZL
                                 	lpm 	J, Z				; 3   get left half font byte for current chr on curr line
                                 	out		PORTD, J			; 1
                                 	out		PORTC, temp0s		; 1   lower load pin
                                 	out		PORTC, temp1s	    ; 1   raise load pin
                                 
                                 	ori		ZH, 0x08			; 1   get next font page
                                 	lpm 	J, Z				; 3   get right half font byte for current chr on curr line
                                 	andi	ZH, 0xF7			; 1   get back to first font page
                                 	out		PORTD, J			; 1
                                 	out		PORTC, temp0s		; 1   lower load pin
                                 	out		PORTC, temp1s	    ; 1   raise load pin
                                 
                                 .endmacro
                                 
00032b 91ed
00032c 9104
00032d b90b
00032e b898
00032f b888
000330 60f8
000331 9104
000332 7ff7
000333 b90b
000334 b898
000335 b888                      	DispChrWide					; display 1 wide chr
000336 91ed
000337 9104
000338 b90b
000339 b898
00033a b888
00033b 60f8
00033c 9104
00033d 7ff7
00033e b90b
00033f b898
000340 b888                      	DispChrWide					; display 1 wide chr
000341 91ed
000342 9104
000343 b90b
000344 b898
000345 b888
000346 60f8
000347 9104
000348 7ff7
000349 b90b
00034a b898
00034b b888                      	DispChrWide					; display 1 wide chr
00034c 91ed
00034d 9104
00034e b90b
00034f b898
000350 b888
000351 60f8
000352 9104
000353 7ff7
000354 b90b
000355 b898
000356 b888                      	DispChrWide					; display 1 wide chr
000357 91ed
000358 9104
000359 b90b
00035a b898
00035b b888
00035c 60f8
00035d 9104
00035e 7ff7
00035f b90b
000360 b898
000361 b888                      	DispChrWide					; display 1 wide chr
000362 91ed
000363 9104
000364 b90b
000365 b898
000366 b888
000367 60f8
000368 9104
000369 7ff7
00036a b90b
00036b b898
00036c b888                      	DispChrWide					; display 1 wide chr
00036d 91ed
00036e 9104
00036f b90b
000370 b898
000371 b888
000372 60f8
000373 9104
000374 7ff7
000375 b90b
000376 b898
000377 b888                      	DispChrWide					; display 1 wide chr
000378 91ed
000379 9104
00037a b90b
00037b b898
00037c b888
00037d 60f8
00037e 9104
00037f 7ff7
000380 b90b
000381 b898
000382 b888                      	DispChrWide					; display 1 wide chr
000383 91ed
000384 9104
000385 b90b
000386 b898
000387 b888
000388 60f8
000389 9104
00038a 7ff7
00038b b90b
00038c b898
00038d b888                      	DispChrWide					; display 1 wide chr
00038e 91ed
00038f 9104
000390 b90b
000391 b898
000392 b888
000393 60f8
000394 9104
000395 7ff7
000396 b90b
000397 b898
000398 b888                      	DispChrWide					; display 1 wide chr
000399 91ed
00039a 9104
00039b b90b
00039c b898
00039d b888
00039e 60f8
00039f 9104
0003a0 7ff7
0003a1 b90b
0003a2 b898
0003a3 b888                      	DispChrWide					; display 1 wide chr
0003a4 91ed
0003a5 9104
0003a6 b90b
0003a7 b898
0003a8 b888
0003a9 60f8
0003aa 9104
0003ab 7ff7
0003ac b90b
0003ad b898
0003ae b888                      	DispChrWide					; display 1 wide chr
0003af 91ed
0003b0 9104
0003b1 b90b
0003b2 b898
0003b3 b888
0003b4 60f8
0003b5 9104
0003b6 7ff7
0003b7 b90b
0003b8 b898
0003b9 b888                      	DispChrWide					; display 1 wide chr
0003ba 91ed
0003bb 9104
0003bc b90b
0003bd b898
0003be b888
0003bf 60f8
0003c0 9104
0003c1 7ff7
0003c2 b90b
0003c3 b898
0003c4 b888                      	DispChrWide					; display 1 wide chr
0003c5 91ed
0003c6 9104
0003c7 b90b
0003c8 b898
0003c9 b888
0003ca 60f8
0003cb 9104
0003cc 7ff7
0003cd b90b
0003ce b898
0003cf b888                      	DispChrWide					; display 1 wide chr
0003d0 91ed
0003d1 9104
0003d2 b90b
0003d3 b898
0003d4 b888
0003d5 60f8
0003d6 9104
0003d7 7ff7
0003d8 b90b
0003d9 b898
0003da b888                      	DispChrWide					; display 1 wide chr
0003db 91ed
0003dc 9104
0003dd b90b
0003de b898
0003df b888
0003e0 60f8
0003e1 9104
0003e2 7ff7
0003e3 b90b
0003e4 b898
0003e5 b888                      	DispChrWide					; display 1 wide chr
0003e6 91ed
0003e7 9104
0003e8 b90b
0003e9 b898
0003ea b888
0003eb 60f8
0003ec 9104
0003ed 7ff7
0003ee b90b
0003ef b898
0003f0 b888                      	DispChrWide					; display 1 wide chr
0003f1 91ed
0003f2 9104
0003f3 b90b
0003f4 b898
0003f5 b888
0003f6 60f8
0003f7 9104
0003f8 7ff7
0003f9 b90b
0003fa b898
0003fb b888                      	DispChrWide					; display 1 wide chr
0003fc 91ed
0003fd 9104
0003fe b90b
0003ff b898
000400 b888
000401 60f8
000402 9104
000403 7ff7
000404 b90b
000405 b898
000406 b888                      	DispChrWide					; display 1 wide chr
000407 91ed
000408 9104
000409 b90b
00040a b898
00040b b888
00040c 60f8
00040d 9104
00040e 7ff7
00040f b90b
000410 b898
000411 b888                      	DispChrWide					; display 1 wide chr
000412 91ed
000413 9104
000414 b90b
000415 b898
000416 b888
000417 60f8
000418 9104
000419 7ff7
00041a b90b
00041b b898
00041c b888                      	DispChrWide					; display 1 wide chr
00041d 91ed
00041e 9104
00041f b90b
000420 b898
000421 b888
000422 60f8
000423 9104
000424 7ff7
000425 b90b
000426 b898
000427 b888                      	DispChrWide					; display 1 wide chr
000428 91ed
000429 9104
00042a b90b
00042b b898
00042c b888
00042d 60f8
00042e 9104
00042f 7ff7
000430 b90b
000431 b898
000432 b888                      	DispChrWide					; display 1 wide chr
000433 91ed
000434 9104
000435 b90b
000436 b898
000437 b888
000438 60f8
000439 9104
00043a 7ff7
00043b b90b
00043c b898
00043d b888                      	DispChrWide					; display 1 wide chr
00043e 91ed
00043f 9104
000440 b90b
000441 b898
000442 b888
000443 60f8
000444 9104
000445 7ff7
000446 b90b
000447 b898
000448 b888                      	DispChrWide					; display 1 wide chr
000449 91ed
00044a 9104
00044b b90b
00044c b898
00044d b888
00044e 60f8
00044f 9104
000450 7ff7
000451 b90b
000452 b898
000453 b888                      	DispChrWide					; display 1 wide chr
000454 91ed
000455 9104
000456 b90b
000457 b898
000458 b888
000459 60f8
00045a 9104
00045b 7ff7
00045c b90b
00045d b898
00045e b888                      	DispChrWide					; display 1 wide chr
00045f 91ed
000460 9104
000461 b90b
000462 b898
000463 b888
000464 60f8
000465 9104
000466 7ff7
000467 b90b
000468 b898
000469 b888                      	DispChrWide					; display 1 wide chr
00046a 91ed
00046b 9104
00046c b90b
00046d b898
00046e b888
00046f 60f8
000470 9104
000471 7ff7
000472 b90b
000473 b898
000474 b888                      	DispChrWide					; display 1 wide chr
000475 91ed
000476 9104
000477 b90b
000478 b898
000479 b888
00047a 60f8
00047b 9104
00047c 7ff7
00047d b90b
00047e b898
00047f b888                      	DispChrWide					; display 1 wide chr
000480 91ed
000481 9104
000482 b90b
000483 b898
000484 b888
000485 60f8
000486 9104
000487 7ff7
000488 b90b
000489 b898
00048a b888                      	DispChrWide					; display 1 wide chr
00048b 91ed
00048c 9104
00048d b90b
00048e b898
00048f b888
000490 60f8
000491 9104
000492 7ff7
000493 b90b
000494 b898
000495 b888                      	DispChrWide					; display 1 wide chr
000496 91ed
000497 9104
000498 b90b
000499 b898
00049a b888
00049b 60f8
00049c 9104
00049d 7ff7
00049e b90b
00049f b898
0004a0 b888                      	DispChrWide					; display 1 wide chr
0004a1 91ed
0004a2 9104
0004a3 b90b
0004a4 b898
0004a5 b888
0004a6 60f8
0004a7 9104
0004a8 7ff7
0004a9 b90b
0004aa b898
0004ab b888                      	DispChrWide					; display 1 wide chr
0004ac 91ed
0004ad 9104
0004ae b90b
0004af b898
0004b0 b888
0004b1 60f8
0004b2 9104
0004b3 7ff7
0004b4 b90b
0004b5 b898
0004b6 b888                      	DispChrWide					; display 1 wide chr
0004b7 91ed
0004b8 9104
0004b9 b90b
0004ba b898
0004bb b888
0004bc 60f8
0004bd 9104
0004be 7ff7
0004bf b90b
0004c0 b898
0004c1 b888                      	DispChrWide					; display 1 wide chr
0004c2 91ed
0004c3 9104
0004c4 b90b
0004c5 b898
0004c6 b888
0004c7 60f8
0004c8 9104
0004c9 7ff7
0004ca b90b
0004cb b898
0004cc b888                      	DispChrWide					; display 1 wide chr
0004cd 91ed
0004ce 9104
0004cf b90b
0004d0 b898
0004d1 b888
0004d2 60f8
0004d3 9104
0004d4 7ff7
0004d5 b90b
0004d6 b898
0004d7 b888                      	DispChrWide					; display 1 wide chr
0004d8 91ed
0004d9 9104
0004da b90b
0004db b898
0004dc b888
0004dd 60f8
0004de 9104
0004df 7ff7
0004e0 b90b
0004e1 b898
0004e2 b888                      	DispChrWide					; display 1 wide chr
                                 
                                 EndOfChars:
0004e3 9563                      	inc		chrln					; inc line counter
                                 
                                 EOL:								; end of line, we're done
0004e4 9543                      	inc		vline					; inc vertical line counter
0004e5 f409                      	brne	eol1
0004e6 9553                      	inc		vlineh					;
                                 
                                 eol1:
0004e7 910f                      	pop		J
0004e8 bf0f                      	out		SREG,J
0004e9 910f                      	pop		J
0004ea 91ff                      	pop		ZH
0004eb 91ef                      	pop		ZL
0004ec 901f                      	pop		accH
0004ed 900f                      	pop		acc	
                                 
0004ee 9518                      	reti						; all done, go back to main program
                                 
0004ef 9518                      	reti						; done
                                 
                                 ;---------------------------------------------------------------------------------------------------------------------------
                                 ; include subroutines and fonts
                                 
                                 .include "ProcChr.inc"
                                 
                                 ; ProcChr - decode host command and update display
                                 ;
                                 ; Original design by Daryl Rictor (c)2003-2004
                                 ;
                                 ; Major redesign by Grant Searle 2007-13
                                 ;    - Commands modified
                                 ;    - 40 char or 80 char support
                                 ;    - Multi fonts and sizes
                                 ;    - Medium resolution graphics
                                 ;    - Line attributes to define text/graphics and font
                                 ;******************************************************
                                 processChar:
0004f0 d106                      	rcall	setYfromRowCol
                                 
                                 	; restore chr under cursor
0004f1 2ed7                      	mov		temp,inpt
0004f2 2d77                      	mov		inpt,charUnderCursor
0004f3 d10c                      	rcall	putCharAtY
0004f4 2d7d                      	mov		inpt,temp
                                 
0004f5 2d0c                      	mov		J,cmdVal			; Was previous byte 1st char of a multi-byte command?
0004f6 3000                      	cpi		J, 0x00
0004f7 f451                      	brne	processCommandPart2
0004f8 2f07                      	mov		J, inpt
                                 	; If delete char then jump
0004f9 370f                      	cpi		J,0x7F
0004fa f409                      	brne	notDelete
0004fb c14c                      	rjmp	delete
                                 notDelete:
                                 	; If control code then handle it
0004fc 3200                      	cpi		J,0x20
0004fd f008                      	brlo	controlCode
                                 	; Otherwise print the character
0004fe c0f5                      	rjmp	printableASCII
                                 controlCode:
0004ff e0f8                      	ldi 	ZH, 0x08			; no, setup jump table page address
000500 2fe7                      	mov		ZL, inpt			; put the input chr into Z
000501 9409                      	ijmp						; jump table based on INPT
                                 
                                 
                                 ;---------------------------------------------------------------------------------------------------------------------------
                                 processCommandPart2:
                                 cmd1:
000502 2d0c                      	mov		J,cmdVal			
000503 300e                      	cpi		J, 0x0E				; set column
000504 f441                      	brne	cmd2
000505 3570                      	cpi		inpt, 0x50			; check column = 0-79
000506 f008                      	brlo	setColumn
000507 c02c                      	rjmp	cmdComplete
                                 setColumn:
000508 2f27                      	mov		column, inpt		; update hpos
000509 d156                      	rcall	putCursorOnScreen	; put cursor back on screen if >39 on a 40 char line
00050a d0ec                      	rcall	setYfromRowCol
00050b 8078                      	ld		charUnderCursor, Y	; save chr under cursor
00050c c027                      	rjmp	cmdComplete
                                 
                                 cmd2:
00050d 300f                      	cpi		J, 0x0F				; set row
00050e f449                      	brne	cmd3
00050f 3179                      	cpi		inpt, 0x19			; check row = 0-24
000510 f008                      	brlo	setRow
000511 c022                      	rjmp	cmdComplete
                                 setRow:
000512 2f37                      	mov		row, inpt			; save new vertical position
000513 d0cb                      	rcall	getCurrentLineAtt	; set the current attribute to match the cursor line
000514 d0a3                      	rcall	setLineAtt			; to ensure double-height lines are reset to top line at cursor
000515 d0e1                      	rcall	setYfromRowCol
000516 8078                      	ld		charUnderCursor, Y	; save chr under cursor
000517 c01c                      	rjmp	cmdComplete
                                 
                                 cmd3:
000518 310a                      	cpi		J, 0x1A				; Force Char Into RAM
000519 f411                      	brne	cmd4
00051a d0d9                      	rcall	printableASCII
00051b c018                      	rjmp	cmdComplete
                                 
                                 cmd4:
00051c 3108                      	cpi		J, 0x18				; Set font attribute
00051d f421                      	brne	cmd5
00051e 2e57                      	mov		activeLineAtt, inpt	; Set the attribute to use for all subsequent lines
00051f d098                      	rcall	setLineAtt			; Set the attribute on the current line to match
000520 d13f                      	rcall	putCursorOnScreen	; put cursor back on screen if >39 on a 40 char line
000521 c012                      	rjmp	cmdComplete
                                 
                                 cmd5:
000522 3002                      	cpi		J, 0x02				; Set cursor character
000523 f411                      	brne	cmd6
000524 2f87                      	mov		cursorChar, inpt
000525 c00e                      	rjmp	cmdComplete
                                 
                                 cmd6:
000526 3005                      	cpi		J, 0x05				; Set pixel
000527 f429                      	brne	cmd7
000528 2d06                      	mov		J,previousInpt
000529 3f0f                      	cpi		J, 0xFF				; If previous input was FF then this is first param
00052a f479                      	brne	setPixel			; otherwise this is second param so method can be called
00052b 2e67                      	mov		previousInpt, inpt	; Store current input as the previous input value
00052c 9508                      	ret							; Just return, don't terminate command
                                 		
                                 cmd7:
00052d 3006                      	cpi		J, 0x06				; Reset pixel
00052e f429                      	brne	cmdComplete
00052f 2d06                      	mov		J,previousInpt
000530 3f0f                      	cpi		J, 0xFF
000531 f429                      	brne	resetPixel
000532 2e67                      	mov		previousInpt, inpt
000533 9508                      	ret							; Just return, don't terminate command
                                 	
                                 cmdComplete:
000534 e000                      	ldi		J,0x00
000535 2ec0                      	mov		cmdVal, J
000536 9508                      	ret
                                 
                                 ;---------------------------------------------------------------------------------------------------------------------------
                                 resetPixel:
000537 e000                      	ldi		J,0x00
000538 2ed0                      	mov		temp,J
000539 c002                      	rjmp	setOrResetPixel
                                 setPixel:
00053a e001                      	ldi		J,0x01
00053b 2ed0                      	mov		temp,J
                                 
                                 setOrResetPixel:
                                 	; Validate coordinates and exit if out of range
00053c 2f07                      	mov		J,inpt			; Y=0..99
00053d 3604                      	cpi		J,100
00053e f7a8                      	brsh	cmdComplete
00053f 2d06                      	mov		J,previousInpt	; X=0..159
000540 3a00                      	cpi		J,160
000541 f790                      	brsh	cmdComplete
                                 
                                 	; inpt contains the Y coordinate, previousInpt contains X coordinate
000542 933f                      	push	row
000543 932f                      	push	column
                                 	; Get the row of location that needs to be manipulated
000544 2f07                      	mov		J,inpt
000545 9506                      	lsr		J
000546 9506                      	lsr		J
000547 710f                      	andi	J,0x1F
000548 2f30                      	mov		row,J
                                 
                                 	; Get attribute location into Z
000549 e0f8                      	ldi		ZH, 0x08
00054a ede0                      	ldi		ZL, 0xD0
00054b 0fe3                      	add		ZL, row
                                 
                                 	; Get line attribute into J
00054c 8100                      	ld		J,Z
                                 
                                 	; If already set then skip
00054d fd07                      	sbrc	J,ATT_GRAPHICS
00054e c00b                      	rjmp	graphicsLineSet
                                 
                                 	; If not already graphics then set the attribute and clear the line
00054f e020                      	ldi		column,0x00
                                 	; Get the location for start of line
000550 d0a6                      	rcall	setYfromRowCol
                                 
000551 e000                      	ldi		J, 0x00
                                 clrGraphics:
000552 9309                      	st		Y+, J
000553 9523                      	inc		column
000554 3520                      	cpi		column, 0x50
000555 f7e1                      	brne	clrGraphics			; clear to end of line
                                 
                                 	; Force graphics property for the row
000556 e000                      	ldi		J,0x00
000557 6800                      	ori		J, 1<<ATT_GRAPHICS
000558 6001                      	ori		J, 1<<ATT_80_CHAR_PER_LINE
000559 8300                      	st		Z, J
                                 graphicsLineSet:
                                 
                                 	; Get column of byte to be changed
00055a 2d06                      	mov		J,previousInpt
00055b 9506                      	lsr		J
00055c 770f                      	andi	J,0x7F
00055d 2f20                      	mov		column,J
                                 
00055e 2d06                      	mov		J,previousInpt		; X coord
00055f 7001                      	andi	J,0x01
000560 2f10                      	mov		K,J
000561 2f07                      	mov		J,inpt				; Y coord
000562 7003                      	andi	J,0x03
000563 0f00                      	lsl		J
000564 2b10                      	or		K,J
                                 	; K now contains the bit number that needs to be set (0..7)
                                 
000565 e001                      	ldi		J,0x01
000566 3010                      	cpi		K,0x00
000567 f019                      	breq	setBitDone			; Bitmap already correct for bit number 0
                                 setBit:
000568 0f00                      	lsl		J
000569 951a                      	dec		K
00056a f7e9                      	brne	setBit
                                 	; J now contains the bitmap with bit J set
                                 setBitDone:
                                 
00056b d08b                      	rcall	setYfromRowCol
                                 	; Put the display byte in K
00056c 8118                      	ld		K,Y					; Retrieve the byte
                                 
                                 	; if temp=1 then set the pixel
00056d fcd0                      	sbrc	temp,0
00056e 2b10                      	or		K,J					; Set the pixel
                                 
                                 	; if temp=0 then reset the pixel
00056f fed0                      	sbrs	temp,0
000570 efff                      	ldi		ZH,0xFF
000571 fed0                      	sbrs	temp,0
000572 270f                      	eor		J,ZH
000573 fed0                      	sbrs	temp,0
000574 2310                      	and		K,J
                                 
000575 8318                      	st		Y,K					; Store the byte
                                 
000576 912f                      	pop		column
000577 913f                      	pop		row
000578 ef0f                      	ldi		J, 0xFF
000579 2e60                      	mov		previousInpt, J		; reset value for next call
00057a cfb9                      	rjmp	cmdComplete
                                 
                                 ;---------------------------------------------------------------------------------------------------------------------------
                                 tab:
00057b e270                      	ldi		inpt, 0x20			; convert tabs to spaces
00057c d083                      	rcall	putCharAtY
00057d d08d                      	rcall	moveToNext
00057e 2f12                      	mov		K, column			; tabs are fixed  0,8,16... (will wrap to next line if needed)	
00057f 7017                      	andi	K, 0x07				; colums 0-7 only
000580 f7d1                      	brne	tab					; not to next tab, so do again
000581 9508                      	ret
                                 
                                 ;---------------------------------------------------------------------------------------------------------------------------
                                 delEndOfLine:
000582 e270                      	ldi		inpt, 0x20
000583 2eec                          mov		temp2,YL
000584 2efd                      	mov		temp3,YH
000585 2ed2                      	mov		temp,column
                                 deleol1:
000586 d079                      	rcall	putCharAtY
000587 9621                      	adiw	Y,0x01
000588 9523                      	inc		column
000589 3520                      	cpi		column, 0x50
00058a f7d9                      	brne	deleol1				; clear to end of line
00058b 2d2d                      	mov		column,temp
00058c 2ddf                      	mov		YH,temp3
00058d 2dce                      	mov		YL,temp2
00058e 8078                      	ld		charUnderCursor, Y	; save chr under cursor
00058f 9508                      	ret
                                 
                                 ;---------------------------------------------------------------------------------------------------------------------------
                                 delStartOfLine:
000590 e270                      	ldi		inpt, 0x20
000591 2eec                          mov		temp2,YL
000592 2efd                      	mov		temp3,YH
000593 2ed2                      	mov		temp,column
000594 d062                      	rcall	setYfromRowCol
                                 delsol1:
000595 d06a                      	rcall	putCharAtY
000596 9721                      	sbiw	YL, 0x01
000597 952a                      	dec		column
000598 3020                      	cpi		column, 0x00
000599 f7d9                      	brne	delsol1				; clear to start of line
00059a 2d2d                      	mov		column,temp
00059b 2ddf                      	mov		YH,temp3
00059c 2dce                      	mov		YL,temp2
00059d 8078                      	ld		charUnderCursor, Y	; save chr under cursor
00059e 9508                      	ret
                                 
                                 ;---------------------------------------------------------------------------------------------------------------------------
                                 delStartOfScreen:
00059f e270                      	ldi		inpt, 0x20
0005a0 2eec                          mov		temp2,YL
0005a1 2efd                      	mov		temp3,YH
                                 delsos1:
0005a2 d05d                      	rcall	putCharAtY
0005a3 9721                      	sbiw	YL,0x01
0005a4 30d1                      	cpi		YH, 0x01
0005a5 f7e1                      	brne	delsos1
0005a6 30c0                      	cpi		YL, 0x00
0005a7 f7d1                      	brne	delsos1
0005a8 2ddf                      	mov		YH,temp3
0005a9 2dce                      	mov		YL,temp2
0005aa 8078                      	ld		charUnderCursor, Y
0005ab 9508                      	ret
                                 
                                 ;---------------------------------------------------------------------------------------------------------------------------
                                 delEndOfScreen:
0005ac e270                      	ldi		inpt, 0x20
0005ad 2eec                          mov		temp2,YL
0005ae 2efd                      	mov		temp3,YH
                                 deleos1:
0005af 9379                      	st		Y+, inpt
0005b0 30d8                      	cpi		YH, 0x08
0005b1 f7e9                      	brne	deleos1
0005b2 3dc0                      	cpi		YL, 0xD0
0005b3 f7d9                      	brne	deleos1
0005b4 2ddf                      	mov		YH,temp3
0005b5 2dce                      	mov		YL,temp2
0005b6 8078                      	ld		charUnderCursor, Y
0005b7 9508                      	ret
                                 
                                 ;---------------------------------------------------------------------------------------------------------------------------
                                 setLineAtt:
                                 	; Get attribute location into Z
0005b8 e0f8                      	ldi		ZH, 0x08
0005b9 ede0                      	ldi		ZL, 0xD0
0005ba 0fe3                      	add		ZL, row
                                 
0005bb e000                      	ldi		J, 0x00
0005bc fc57                      	sbrc	activeLineAtt,ATT_GRAPHICS
0005bd c018                      	rjmp	setGraphicsAtts
                                 
0005be fc50                      	sbrc	activeLineAtt,ATT_80_CHAR_PER_LINE
0005bf 6001                      	ori		J, 1<<ATT_80_CHAR_PER_LINE
0005c0 fc51                      	sbrc	activeLineAtt,ATT_BOLD
0005c1 6002                      	ori		J, 1<<ATT_BOLD
                                 
                                 	; If double-height then set the double top and double bottom attributes
0005c2 fc52                      	sbrc	activeLineAtt,ATT_DBL_HEIGHT
0005c3 c002                      	rjmp	setDoubleLineAtts
                                 
0005c4 8300                      	st		Z, J
0005c5 9508                      	ret
                                 
                                 setDoubleLineAtts:
                                 	; If at row 25 then scroll up first otherwise it won't fit
0005c6 2ed0                      	mov		temp,J
0005c7 3138                      	cpi		row,0x18
0005c8 f439                      	brne	notAtLastLine
0005c9 d0be                      	rcall	singleScrollUp
0005ca 953a                      	dec		row
0005cb d02b                      	rcall	setYfromRowCol
                                 	; reset attribute location
0005cc e0f8                      	ldi		ZH, 0x08
0005cd ede0                      	ldi		ZL, 0xD0
0005ce 0fe3                      	add		ZL, row
0005cf 2d0d                      	mov		J,temp
                                 		
                                 notAtLastLine:
                                 	; Set first double line attribute	
0005d0 6004                      	ori		J, 1<<ATT_DBL_TOP			; Set double top bit
0005d1 9301                      	st		Z+, J
                                 	; Set second double line attribute	
0005d2 7f0b                      	andi	J, 0xFF - (1<<ATT_DBL_TOP)	; Clear double top bit
0005d3 6008                      	ori		J, 1<<ATT_DBL_BOTTOM		; Set double bottom bit
0005d4 8300                      	st		Z, J
0005d5 9508                      	ret
                                 
                                 setGraphicsAtts:
                                 	; Override any other attribute property if graphics
0005d6 6800                      	ori		J, 1<<ATT_GRAPHICS
0005d7 6001                      	ori		J, 1<<ATT_80_CHAR_PER_LINE
0005d8 8300                      	st		Z, J
0005d9 9508                      	ret
                                 
                                 ;---------------------------------------------------------------------------------------------------------------------------
                                 getRawCurrentLineAtt:
                                 	; Get attribute location into Z
0005da e0f8                      	ldi		ZH, 0x08
0005db ede0                      	ldi		ZL, 0xD0
0005dc 0fe3                      	add		ZL, row
                                 	; Get line attribute into J
0005dd 8100                      	ld		J,Z
0005de 9508                      	ret
                                 
                                 ;---------------------------------------------------------------------------------------------------------------------------
                                 getCurrentLineAtt:
                                 	; Get attribute location into Z
0005df e0f8                      	ldi		ZH, 0x08
0005e0 ede0                      	ldi		ZL, 0xD0
0005e1 0fe3                      	add		ZL, row
                                 	; Get line attribute into J
0005e2 8100                      	ld		J,Z
                                 
                                 	; Map the line attribute into cursor line attribute
0005e3 e010                      	ldi		K, 0x00
0005e4 fd07                      	sbrc	J,ATT_GRAPHICS
0005e5 c00a                      	rjmp	getGraphicsAtts
                                 
0005e6 fd00                      	sbrc	J,ATT_80_CHAR_PER_LINE
0005e7 6011                      	ori		K, 1<<ATT_80_CHAR_PER_LINE
0005e8 fd01                      	sbrc	J,ATT_BOLD
0005e9 6012                      	ori		K, 1<<ATT_BOLD
0005ea fd02                      	sbrc	J,ATT_DBL_TOP
0005eb 6014                      	ori		K, 1<<ATT_DBL_HEIGHT
0005ec fd03                      	sbrc	J,ATT_DBL_BOTTOM
0005ed 6014                      	ori		K, 1<<ATT_DBL_HEIGHT
0005ee 2e51                      	mov		activeLineAtt,K
0005ef 9508                      	ret
                                 
                                 getGraphicsAtts:
                                 	; Override any other attribute property if graphics
0005f0 6810                      	ori		K, 1<<ATT_GRAPHICS
0005f1 6011                      	ori		K, 1<<ATT_80_CHAR_PER_LINE
0005f2 2e51                      	mov		activeLineAtt,K
0005f3 9508                      	ret
                                 
                                 ;---------------------------------------------------------------------------------------------------------------------------
                                 printableASCII:
0005f4 d00b                      	rcall	putCharAtY
0005f5 d015                      	rcall	moveToNext
                                 ;	rcall	cleanUpDisplay
0005f6 9508                      	ret
                                 
                                 ;---------------------------------------------------------------------------------------------------------------------------
                                 setYfromRowCol:
0005f7 e5c0                      	ldi		YL, 0x50			; # chrs per line
0005f8 e0d1                      	ldi		YH, 0x01			; offset to start of display 
0005f9 9fc3                      	mul		YL, row				; multiply by chrs per line
0005fa e010                      	ldi		K, 0x00				; need a zero for upper byte addition
0005fb 0e1d                      	add		R1, YH				; add display start offset to result
0005fc 01e0                      	movw	YL, R0				; mov it back to Y reg
0005fd 0fc2                      	add		YL, column			; add in column
0005fe 1fd1                      	adc		YH, K				; add the carry bit
0005ff 9508                      	ret
                                 
                                 ;---------------------------------------------------------------------------------------------------------------------------
                                 putCharAtY:
000600 8378                      	st		Y, inpt				; store chr
                                 
000601 fe52                      	sbrs	activeLineAtt,ATT_DBL_HEIGHT
000602 9508                      	ret
                                 	; If double height then store char on next line as well if not past end of screen
000603 3138                      	cpi		row,0x18			; Check if on last line (24)
000604 f029                      	breq	putEnd
000605 96a0                      	adiw	YL, 0x20			; Get to next line
000606 96e0                      	adiw	YL, 0x30
000607 8378                      	st		Y, inpt				; store chr
000608 97a0                      	sbiw	YL, 0x20			; Get back to original line
000609 97e0                      	sbiw	YL, 0x30
                                 putEnd:
00060a 9508                      	ret
                                 
                                 ;---------------------------------------------------------------------------------------------------------------------------
                                 moveToNext:
00060b 9621                      	adiw	YL,0x01
00060c 9523                      	inc		column				; inc hpos
                                 wrap:
00060d fe50                      	sbrs	activeLineAtt,ATT_80_CHAR_PER_LINE
00060e c003                      	rjmp	wrap40
00060f 3520                      	cpi		column, 0x50		; past column 80?
000610 f4a9                      	brne	wrapExit			; no, continue
000611 c002                      	rjmp	wrap0
                                 wrap40:
000612 3228                      	cpi		column, 0x28		; past column 40?
000613 f491                      	brne	wrapExit			; no, continue
                                 
                                 wrap0:
000614 e020                      	ldi		column, 0x00		; back to start of line
000615 fc52                      	sbrc	activeLineAtt,ATT_DBL_HEIGHT
000616 c007                      	rjmp	doubleWrap
                                 
                                 normalWrap:
000617 9533                      	inc		row					; next line
000618 3139                      	cpi		row, 0x19			; is it below last line (25)?
000619 f060                      	brlo	wrapExit			; no, do cursor and exit
00061a 953a                      	dec		row					; Screen is moving up a line, so move the current row pointer up one
00061b e020                      	ldi		column, 0x00		; column back to zero
00061c d06b                      	rcall	singleScrollUp
00061d c008                      	rjmp	wrapExit
                                 
                                 doubleWrap:
00061e 9533                      	inc		row					; next line
00061f 9533                      	inc		row					; inc again (two lines per char)
000620 3138                      	cpi		row, 0x18			; is it below last line (23)?
000621 f020                      	brlo	wrapExit			; no, do cursor and exit
000622 953a                      	dec		row					; Screen is moving up two lines, so move the current row pointer up two
000623 953a                      	dec		row
000624 e020                      	ldi		column, 0x00		; column back to zero
000625 d07e                      	rcall	doubleScrollUp	
                                 
                                 wrapExit:
000626 df91                      	rcall	setLineAtt			; Set the attribute for the cursor line
000627 dfcf                      	rcall	setYfromRowCol
000628 8078                      	ld		charUnderCursor, Y	; save chr under cursor
000629 9508                      	ret
                                 
                                 ;---------------------------------------------------------------------------------------------------------------------------
                                 return: 
00062a e020                      	ldi		column, 0x00		; column back to zero
00062b dfcb                      	rcall	setYfromRowCol
00062c 8078                      	ld		charUnderCursor, Y	; save chr under cursor
00062d 9508                      	ret							; return to Main
                                 
                                 ;---------------------------------------------------------------------------------------------------------------------------
                                 linefeed:
00062e fc52                      	sbrc	activeLineAtt,ATT_DBL_HEIGHT
00062f c00c                      	rjmp	doubleLinefeed
000630 c000                      	rjmp	singleLinefeed
                                 
                                 singleLinefeed:
000631 3138                      	cpi		row, 0x18			; are we at line 24 (for normal height)?
000632 f020                      	brlo	noSingleScroll
000633 d054                      	rcall	singleScrollUp		; yes, need to scroll up one line
000634 df83                      	rcall	setLineAtt			; Set the attribute for the cursor line
000635 8078                      	ld		charUnderCursor, Y	; save chr under cursor
                                 ;	rcall	cleanUpDisplay
000636 9508                      	ret
                                 noSingleScroll:
000637 9533                      	inc		row					; No scroll so move current line pointer down one
000638 dfbe                      	rcall	setYfromRowCol
000639 df7e                      	rcall	setLineAtt			; Set the attribute for the cursor line
00063a 8078                      	ld		charUnderCursor, Y	; save chr under cursor
                                 ;	rcall	cleanUpDisplay
00063b 9508                      	ret
                                 
                                 doubleLinefeed:
00063c 3136                      	cpi		row, 0x16			; are we at line 22 (for double height)?
00063d f020                      	brlo	noDoubleScroll
00063e d065                      	rcall	doubleScrollUp		; yes, need to scroll up two lines
00063f df78                      	rcall	setLineAtt			; Set the attribute for the cursor line
000640 8078                      	ld		charUnderCursor, Y	; save chr under cursor
                                 ;	rcall	cleanUpDisplay
000641 9508                      	ret
                                 noDoubleScroll:
000642 9533                      	inc		row					; No scroll so move current line pointer down two
000643 9533                      	inc		row
000644 dfb2                      	rcall	setYfromRowCol
000645 df72                      	rcall	setLineAtt			; Set the attribute for the cursor line
000646 8078                      	ld		charUnderCursor, Y	; save chr under cursor
                                 ;	rcall	cleanUpDisplay
000647 9508                      	ret
                                 
                                 ;---------------------------------------------------------------------------------------------------------------------------
                                 delete:
000648 e270                      	ldi		inpt, 0x20			; space
000649 dfb6                      	rcall	putCharAtY			; save to SRAM
00064a 2e77                      	mov		charUnderCursor, inpt	; save chr under cursor (space)
00064b 9508                      	ret							; return to Main
                                 
                                 ;---------------------------------------------------------------------------------------------------------------------------
                                 backspace:
00064c 3020                      	cpi		column, 0x00		; are we already at the left edge?
00064d f461                      	brne	bs1					; no, move left one chr
00064e 3030                      	cpi		row, 0x00			; are we already on the top line?
00064f f409                      	brne	bsToPrevLine		; no, so go up a line
000650 9508                      	ret
                                 bsToPrevLine:
000651 953a                      	dec		row
000652 940e 05da                 	call	getRawCurrentLineAtt; Unconverted, into J
000654 fd03                      	sbrc	J,ATT_DBL_BOTTOM	; If now at the bottom of a double line, go up again
000655 953a                      	dec		row
                                 
000656 df88                      	rcall	getCurrentLineAtt	; set the current attribute to match the cursor line
000657 e42f                      	ldi		column,0x4F			; set column to end of an 80 column line
000658 d007                      	rcall	putCursorOnScreen	; adjust if now on a 40 column line
000659 c001                      	rjmp	bs2
                                 
                                 bs1:	
00065a 952a                      	dec		column				; move cursor left one chr
                                 bs2:
00065b e270                      	ldi		inpt, 0x20			; space
00065c df9a                      	rcall	setYfromRowCol
00065d dfa2                      	rcall	putCharAtY
00065e 2e77                      	mov		charUnderCursor, inpt	; save chr under cursor (space)
00065f 9508                      	ret							; return to Main
                                 
                                 ;---------------------------------------------------------------------------------------------------------------------------
                                 putCursorOnScreen:
                                 	; If moving from an 80 col line to a 40 col line, the
                                 	; column number has now exceeded the line width
                                 	; reset it to the end of the line
000660 fc50                      	sbrc	activeLineAtt,ATT_80_CHAR_PER_LINE	; if on an 80 col line then nothing to do
000661 9508                      	ret
                                 
                                 	; On a 40 char line...
000662 3228                      	cpi		column, 0x28		; if less that column 40 then nothing to do
000663 f020                      	brlo	endOfPutCursor
                                 
000664 e227                      	ldi		column,0x27			; Set column to be 39
000665 df91                      	rcall	setYfromRowCol
000666 df99                      	rcall	putCharAtY
000667 2e77                      	mov		charUnderCursor, inpt	; save chr under cursor (space)
                                 endOfPutCursor:
000668 9508                      	ret
                                 
                                 ;---------------------------------------------------------------------------------------------------------------------------
                                 clrScr:							; Clear the Screen
                                 
                                 	; Reset all line atts
000669 e1e9                      	ldi		ZL,25
00066a edc0                      	ldi		YL, 0xD0
00066b e0d8                      	ldi		YH, 0x08
00066c 2d05                      	mov		J,activeLineAtt
                                 clrAtt:
00066d 9309                      	st		Y+,J
00066e 95ea                      	dec		ZL
00066f f7e9                      	brne	clrAtt
                                 
000670 e030                      	ldi		row, 0x00			
000671 df46                      	rcall	setLineAtt			; Set the attribute for the top line to be current
                                 
000672 e0e0                      	ldi		ZL, 0x00
000673 e0f1                      	ldi		ZH, 0x01			; set to start of display RAM
000674 edc0                      	ldi		YL, 0xD0
000675 e0d7                      	ldi		YH,	0x07			; set Y to 2000
000676 e270                      	ldi		inpt, 0x20			; " " space chracter
                                 clsloop:
000677 9371                      	st 		Z+, inpt			; save to SRAM			
000678 9721                      	sbiw	YL, 0x01			; dec Y
000679 f7e9                      	brne	clsloop				; do until Y=0
                                 cursorHome:						; move cursor to Home w/o clear
00067a e020                      	ldi		column, 0x00		; set cursor to top left pos
00067b e030                      	ldi		row, 0x00			
00067c df7a                      	rcall	setYfromRowCol
00067d 8078                      	ld		charUnderCursor, Y	; save chr under cursor
00067e df60                      	rcall	getCurrentLineAtt	; set the current attribute to match the cursor line
                                 ;	rcall	cleanUpDisplay
00067f 9508                      	ret							; return to Main
                                 
                                 ;---------------------------------------------------------------------------------------------------------------------------
                                 scrollUp:
000680 fc52                      	sbrc	activeLineAtt,ATT_DBL_HEIGHT
000681 d022                      	rcall	doubleScrollUp
000682 fe52                      	sbrs	activeLineAtt,ATT_DBL_HEIGHT
000683 d004                      	rcall	singleScrollUp
                                 
000684 df5a                      	rcall	getCurrentLineAtt
000685 dfda                      	rcall   putCursorOnScreen	; if cursor is now past the end of a 40 char line then move it back on screen
000686 8078                      	ld		charUnderCursor, Y	; save chr under cursor
                                 ;	rcall	cleanUpDisplay
000687 9508                      	ret
                                 
                                 singleScrollUp:
000688 2eec                          mov		temp2,YL
000689 2efd                      	mov		temp3,YH
00068a e0c0                      	ldi		YL, 0x00			; start of first line
00068b e0d1                      	ldi		YH, 0x01			; 
00068c e5e0                      	ldi		ZL, 0x50			; start of second line		
00068d e0f1                      	ldi		ZH, 0x01			; 
                                 scup1:
00068e 9171                      	ld		inpt, Z+			; get line 2 
00068f 9379                      	st		Y+, inpt			; place in line 1
000690 3de0                      	cpi		ZL, 0xD0
000691 f7e1                      	brne	scup1
000692 30f8                      	cpi		ZH, 0x08			; at the end of disp RAM?
000693 f7d1                      	brne	scup1				; no, do again
000694 e270                      	ldi		inpt, 0x20			; space
                                 scup2:
000695 9379                      	st		Y+, inpt			; fill last line with spaces
000696 3dc0                      	cpi		YL, 0xD0
000697 f7e9                      	brne	scup2
                                 
                                 	; Scroll the attributes up
000698 e1e8                      	ldi		ZL,24
000699 edc1                      	ldi		YL, 0xD1			; start of attributes +1
00069a e0d8                      	ldi		YH, 0x08
                                 scrollAttsUp:
00069b 8108                      	ld		J,Y
00069c 9721                      	sbiw	Y, 0x01
00069d 8308                      	st		Y,J
00069e 9622                      	adiw	Y, 0x02
00069f 95ea                      	dec		ZL
0006a0 f7d1                      	brne	scrollAttsUp
                                 
0006a1 2ddf                      	mov		YH,temp3
0006a2 2dce                      	mov		YL,temp2
                                 
0006a3 9508                      	ret
                                 
                                 doubleScrollUp:
0006a4 2eec                          mov		temp2,YL
0006a5 2efd                      	mov		temp3,YH
0006a6 e0c0                      	ldi		YL, 0x00			; start of first line
0006a7 e0d1                      	ldi		YH, 0x01			; 
0006a8 eae0                      	ldi		ZL, 0xA0			; start of third line		
0006a9 e0f1                      	ldi		ZH, 0x01			; 
                                 dscup1:
0006aa 9171                      	ld		inpt, Z+			; get line 3 
0006ab 9379                      	st		Y+, inpt			; place in line 1
0006ac 3de0                      	cpi		ZL, 0xD0
0006ad f7e1                      	brne	dscup1
0006ae 30f8                      	cpi		ZH, 0x08			; at the end of disp RAM?
0006af f7d1                      	brne	dscup1				; no, do again
0006b0 e270                      	ldi		inpt, 0x20			; space
                                 dscup2:
0006b1 9379                      	st		Y+, inpt			; fill last two lines with spaces
0006b2 3dc0                      	cpi		YL, 0xD0
0006b3 f7e9                      	brne	dscup2
                                 
                                 	; Scroll the attributes up two
0006b4 e1e7                      	ldi		ZL,23
0006b5 edc2                      	ldi		YL, 0xD2			; start of attributes +2
0006b6 e0d8                      	ldi		YH, 0x08
                                 dscrollAttsUp:
0006b7 8108                      	ld		J,Y
0006b8 9722                      	sbiw	Y, 0x02
0006b9 8308                      	st		Y,J
0006ba 9623                      	adiw	Y, 0x03
0006bb 95ea                      	dec		ZL
0006bc f7d1                      	brne	dscrollAttsUp
                                 
0006bd 2ddf                      	mov		YH,temp3
0006be 2dce                      	mov		YL,temp2
0006bf 9508                      	ret
                                 
                                 ;---------------------------------------------------------------------------------------------------------------------------
                                 scrollDown:
0006c0 fc52                      	sbrc	activeLineAtt,ATT_DBL_HEIGHT
0006c1 d023                      	rcall	doubleScrollDown
0006c2 fe52                      	sbrs	activeLineAtt,ATT_DBL_HEIGHT
0006c3 d004                      	rcall	singleScrollDown
                                 
0006c4 df1a                      	rcall	getCurrentLineAtt
0006c5 df9a                      	rcall   putCursorOnScreen	; if cursor is now past the end of a 40 char line then move it back on screen
                                 
0006c6 8078                      	ld		charUnderCursor, Y	; save chr under cursor
                                 ;	rcall	cleanUpDisplay
0006c7 9508                      	ret
                                 
                                 singleScrollDown:
0006c8 2eec                          mov		temp2,YL
0006c9 2efd                      	mov		temp3,YH
0006ca e8c0                      	ldi		YL, 0x80			; end of line 24
0006cb e0d8                      	ldi		YH, 0x08			; 
0006cc ede0                      	ldi		ZL, 0xD0			; end of line 25	
0006cd e0f8                      	ldi		ZH, 0x08			; 
                                 scdn1:
0006ce 917a                      	ld		inpt, -Y			; get line 25 
0006cf 9372                      	st		-Z, inpt			; place in line 24
0006d0 30c0                      	cpi		YL, 0x00
0006d1 f7e1                      	brne	scdn1
0006d2 30d1                      	cpi		YH, 0x01			; at the end of disp RAM?
0006d3 f7d1                      	brne	scdn1				; no, do again
0006d4 e270                      	ldi		inpt, 0x20			; space
                                 scdn2:
0006d5 9372                      	st		-Z, inpt			; fill first line with spaces
0006d6 30e0                      	cpi		ZL, 0x00
0006d7 f7e9                      	brne	scdn2
0006d8 30f1                      	cpi		ZH, 0x01			; at the start of disp RAM?
0006d9 f7d9                      	brne	scdn2				; no, do again
                                 
                                 	; Scroll the attributes down
0006da e1e8                      	ldi		ZL,24
0006db eec7                      	ldi		YL, 0xE7			; end of attributes -1
0006dc e0d8                      	ldi		YH, 0x08
                                 scrollAttsDn:
0006dd 9109                      	ld		J,Y+
0006de 8308                      	st		Y,J
0006df 9722                      	sbiw	Y, 0x02
0006e0 95ea                      	dec		ZL
0006e1 f7d9                      	brne	scrollAttsDn
                                 
0006e2 2ddf                      	mov		YH,temp3
0006e3 2dce                      	mov		YL,temp2
0006e4 9508                      	ret
                                 
                                 doubleScrollDown:
0006e5 2eec                          mov		temp2,YL
0006e6 2efd                      	mov		temp3,YH
0006e7 e3c0                      	ldi		YL, 0x30			; end of line 23 + 1
0006e8 e0d8                      	ldi		YH, 0x08			; 
0006e9 ede0                      	ldi		ZL, 0xD0			; end of line 25 + 1
0006ea e0f8                      	ldi		ZH, 0x08			; 
                                 dscdn1:
0006eb 917a                      	ld		inpt, -Y			; get line 25
0006ec 9372                      	st		-Z, inpt			; place in line 23
0006ed 30c0                      	cpi		YL, 0x00
0006ee f7e1                      	brne	dscdn1
0006ef 30d1                      	cpi		YH, 0x01			; at the end of disp RAM?
0006f0 f7d1                      	brne	dscdn1				; no, do again
0006f1 e270                      	ldi		inpt, 0x20			; space
                                 dscdn2:
0006f2 9372                      	st		-Z, inpt			; fill first two lines with spaces
0006f3 30e0                      	cpi		ZL, 0x00
0006f4 f7e9                      	brne	dscdn2
0006f5 30f1                      	cpi		ZH, 0x01			; at the start of disp RAM?
0006f6 f7d9                      	brne	dscdn2				; no, do again
                                 
                                 	; Scroll the attributes down two lines
0006f7 e1e7                      	ldi		ZL,23
0006f8 eec6                      	ldi		YL, 0xE6			; end of attributes -2
0006f9 e0d8                      	ldi		YH, 0x08
                                 dscrollAttsDn:
0006fa 8108                      	ld		J,Y
0006fb 9622                      	adiw	Y, 0x2
0006fc 8308                      	st		Y,J
0006fd 9723                      	sbiw	Y, 0x03
0006fe 95ea                      	dec		ZL
0006ff f7d1                      	brne	dscrollAttsDn
                                 
000700 2ddf                      	mov		YH,temp3
000701 2dce                      	mov		YL,temp2
000702 9508                      	ret
                                 
                                 ;---------------------------------------------------------------------------------------------------------------------------
                                 scrollLeft:
000703 2eec                          mov		temp2,YL
000704 2efd                      	mov		temp3,YH
000705 e0c0                      	ldi		YL, 0x00			; start of first col
000706 e0d1                      	ldi		YH, 0x01			; 
000707 e0e1                      	ldi		ZL, 0x01			; start of second col		
000708 e0f1                      	ldi		ZH, 0x01			; 
                                 sclf1:
000709 9171                      	ld		inpt, Z+			; get col 2 
00070a 9379                      	st		Y+, inpt			; place in col 1
00070b 3de0                      	cpi		ZL, 0xD0
00070c f7e1                      	brne	sclf1
00070d 30f8                      	cpi		ZH, 0x08			; at the end of disp RAM?
00070e f7d1                      	brne	sclf1				; no, do again
00070f e270                      	ldi		inpt, 0x20			; space
                                 sclf2:
000710 8378                      	st		Y, inpt				; fill last line with spaces
000711 97e0                      	sbiw	YL, 0x30			
000712 97a0                      	sbiw	YL, 0x20			
000713 3fcf                      	cpi		YL, 0xFF			
000714 f7d9                      	brne	sclf2				
000715 30d0                      	cpi		YH, 0x00			; at the end of display RAM?
000716 f7c9                      	brne	sclf2				; no, do again
000717 2ddf                      	mov		YH,temp3
000718 2dce                      	mov		YL,temp2
000719 8078                      	ld		charUnderCursor, Y	; save chr under cursor
00071a 9508                      	ret
                                 
                                 ;---------------------------------------------------------------------------------------------------------------------------
                                 scrollRight:
00071b 2eec                          mov		temp2,YL
00071c 2efd                      	mov		temp3,YH
00071d eccf                      	ldi		YL, 0xCF			; end char
00071e e0d8                      	ldi		YH, 0x08			; 
00071f ede0                      	ldi		ZL, 0xD0			; end char +1	
000720 e0f8                      	ldi		ZH, 0x08			; 
                                 scrt1:
000721 917a                      	ld		inpt, -Y			; get line 2 
000722 9372                      	st		-Z, inpt			; place in line 1
000723 30c0                      	cpi		YL, 0x00
000724 f7e1                      	brne	scrt1
000725 30d1                      	cpi		YH, 0x01			; at the start of display RAM?
000726 f7d1                      	brne	scrt1				; no, do again
000727 e270                      	ldi		inpt, 0x20			; space
                                 scrt2:
000728 8378                      	st		Y, inpt				; fill left column with spaces
000729 96e0                      	adiw	YL, 0x30			 
00072a 96a0                      	adiw	YL, 0x20			 
00072b 3dc0                      	cpi		YL, 0xD0
00072c f7d9                      	brne	scrt2
00072d 30d8                      	cpi		YH, 0x08			; at the end of disp RAM?
00072e f7c9                      	brne	scrt2				; no, do again
00072f 2ddf                      	mov		YH,temp3
000730 2dce                      	mov		YL,temp2
000731 8078                      	ld		charUnderCursor, Y	; save chr under cursor
000732 9508                      	ret
                                 
                                 ;---------------------------------------------------------------------------------------------------------------------------
                                 cursorBlink:
000733 e090                      	ldi		cursorClk, 0x00
000734 9508                      	ret
                                 
                                 ;---------------------------------------------------------------------------------------------------------------------------
                                 cursorSolid:
000735 ef9f                      	ldi		cursorClk, 0xff
000736 9508                      	ret
                                 
                                 ;---------------------------------------------------------------------------------------------------------------------------
                                 cursorUp:
000737 3030                      	cpi		row, 0x00
000738 f1c1                      	breq	Null				; already at top, nothing to do
000739 953a                      	dec		row
                                 
00073a dea4                      	rcall	getCurrentLineAtt
00073b de9e                      	rcall	getRawCurrentLineAtt; Unconverted, into J
00073c fd03                      	sbrc	J,ATT_DBL_BOTTOM	; If now at the bottom of a double line, go up again (if not at top of screen)
00073d cff9                      	rjmp	cursorUp
                                 
00073e deb8                      	rcall	setYfromRowCol
00073f 8078                      	ld		charUnderCursor, Y	; save chr under cursor
000740 9508                      	ret
                                 
                                 ;---------------------------------------------------------------------------------------------------------------------------
                                 cursorDown:
000741 3138                      	cpi		row, 0x18
000742 f171                      	breq	Null				; already at bottom, nothing to do
000743 9533                      	inc		row
                                 	
000744 de9a                      	rcall	getCurrentLineAtt
000745 de94                      	rcall	getRawCurrentLineAtt; Unconverted, into J
000746 fd03                      	sbrc	J,ATT_DBL_BOTTOM	; If now at the bottom of a double line, go down again (if not at end of screen)
000747 cff9                      	rjmp	cursorDown
                                 
000748 deae                      	rcall	setYfromRowCol
000749 8078                      	ld		charUnderCursor, Y	; save chr under cursor
00074a 9508                      	ret
                                 
                                 ;---------------------------------------------------------------------------------------------------------------------------
                                 cursorLeft:
00074b 3020                      	cpi		column, 0x00
00074c f121                      	breq	Null
00074d 952a                      	dec		column
00074e dea8                      	rcall	setYfromRowCol
00074f 8078                      	ld		charUnderCursor, Y	; save chr under cursor
000750 9508                      	ret
                                 
                                 ;---------------------------------------------------------------------------------------------------------------------------
                                 cursorRight:
000751 940e 05df                 	call	getCurrentLineAtt
000753 fc50                      	sbrc	activeLineAtt,ATT_80_CHAR_PER_LINE ; 0 = 40 cols, 1=80 cols
000754 342f                      	cpi		column, 0x4F		; 79
000755 fe50                      	sbrs	activeLineAtt,ATT_80_CHAR_PER_LINE
000756 3227                      	cpi		column, 0x27		; 39
000757 f0c9                      	breq	Null				; already at right, nothing to do
000758 9523                      	inc		column				;
000759 de9d                      	rcall	setYfromRowCol
00075a 8078                      	ld		charUnderCursor, Y	; save chr under cursor
00075b 9508                      	ret
                                 
                                 ;---------------------------------------------------------------------------------------------------------------------------
                                 cleanUpDisplay:
                                 
                                 	; IMPROVEMENTS TO DO - NOT USED AT THE MOMENT
                                 
                                 	; If current att is double
                                 	;    If cursor has been repositioned to the bottom line of a double then
                                 	;       Set the first of the double lines to non-double
                                 	;    If the current line is not double then
                                 	;       Set the following line to be the bottom of a double
                                 	;       Copy this line to the next to display the double properly (overwriting the line below)
                                 
                                 	; If current att is normal
                                 	;    If cursor has been repositioned to the top line of a double then
                                 	;       Set the next line to non-double
                                 	;    If cursor has been repositioned to the bottom line of a double then
                                 	;       Set the previous line to non-double
                                 
                                 
00075c e1e8                      	ldi		ZL,24
00075d edc0                      	ldi		YL, 0xD0			; start of attributes
00075e e0d8                      	ldi		YH, 0x08
                                 cleanFirstLine:
                                 	; If first line is the bottom of a double-height char then turn off the double-height
                                 	; so that it is fully visible again
00075f 8108                      	ld		J,Y
000760 fd03                      	sbrc	J,ATT_DBL_BOTTOM
000761 c002                      	rjmp	firstNotDblBottom
000762 7f07                      	andi	J,0xFF - (1<<ATT_DBL_BOTTOM)
000763 8308                      	st		Y,J
                                 firstNotDblBottom:
                                 
                                 cleanLastLine:
                                 	; If last line is the top of a double-height char then turn off the double-height
                                 	; so that it is fully visible again
000764 eec8                      	ldi		YL, 0xE8			; end of attributes
000765 8108                      	ld		J,Y
000766 fd02                      	sbrc	J,ATT_DBL_TOP
000767 c002                      	rjmp	lastNotDblTop
000768 7f0b                      	andi	J,0xFF - (1<<ATT_DBL_TOP)
000769 8308                      	st		Y,J
                                 lastNotDblTop:
                                 
                                 ;cleanUp1:
                                 ;	ld		J,Y
                                 ;	adiw	YL, 0x01
                                 ;	dec		ZL
                                 ;	brne	cleanUp1
                                 
00076a de74                      	rcall	getCurrentLineAtt
00076b def4                      	rcall   putCursorOnScreen	; if cursor is now past the end of a 40 char line then move it back on screen
00076c de8a                      	rcall	setYfromRowCol
00076d 8078                      	ld		charUnderCursor, Y	; save chr under cursor
00076e 9508                      	ret
                                 
                                 ;---------------------------------------------------------------------------------------------------------------------------
                                 multiByteCommand:
00076f 2ec7                      	mov 	cmdVal,inpt			; Store the command ready for the second byte. Process once 2nd byte received
000770 9508                      	ret
                                 
                                 ;---------------------------------------------------------------------------------------------------------------------------
                                 NULL:
000771 9508                      	ret
                                 
                                 ;---------------------------------------------------------------------------------------------------------------------------
                                 .cseg
                                 .org 0x800
                                 ;
                                 ; jump table for control codes 00 - 1F
                                 ;
000800 cf70                      	rjmp	null				; 00 [SPARE]
000801 ce78                      	rjmp	cursorHome			; 01 Ctrl-A Standard ASCII
000802 cf6c                      	rjmp	multiByteCommand	; 02 Ctrl-B define cursor character (next byte = cursor [char 0 = off])
000803 cf2f                      	rjmp	cursorBlink			; 03 Ctrl-C cursor blinking
000804 cf30                      	rjmp	cursorSolid			; 04 Ctrl-D cursor solid
000805 cf69                      	rjmp	multiByteCommand	; 05 Ctrl-E Set pixel (next two bytes = x,y)
000806 cf68                      	rjmp	multiByteCommand	; 06 Ctrl-F Reset pixel (next two bytes = x,y)
000807 cf69                      	rjmp	null				; 07 Ctrl-G [SPARE]
000808 ce43                      	rjmp	backspace			; 08 Ctrl-H Standard ASCII
000809 cd71                      	rjmp	tab					; 09 Ctrl-I Standard ASCII
00080a ce23                      	rjmp	linefeed			; 0A Ctrl-J Standard ASCII
00080b cf65                      	rjmp	null				; 0B Ctrl-K [SPARE]
00080c ce5c                      	rjmp	clrScr				; 0C Ctrl-L Standard ASCII
00080d ce1c                      	rjmp	return				; 0D Ctrl-M Standard ASCII
00080e cf60                      	rjmp	multiByteCommand	; 0E Ctrl-N SetColumn command (next byte = col number)
00080f cf5f                      	rjmp	multiByteCommand	; 0F Ctrl-O SetRow command (next byte = row number)
000810 cd7f                      	rjmp	delStartOfLine		; 10 Ctrl-P Delete to start of line
000811 cd70                      	rjmp	delEndOfLine		; 11 Ctrl-Q Delete to end of line
000812 cd8c                      	rjmp	delStartOfScreen	; 12 Ctrl-R Delete to start of screen
000813 cd98                      	rjmp	delEndOfScreen		; 13 Ctrl-S Delete to end of screen
000814 ce6b                      	rjmp	scrollUp			; 14 Ctrl-T Scroll the complete screen up one text line
000815 ceaa                      	rjmp	scrollDown			; 15 Ctrl-U Scroll the complete screen down one text line
000816 ceec                      	rjmp	scrollLeft			; 16 Ctrl-V Scroll the complete screen left
000817 cf03                      	rjmp	scrollRight			; 17 Ctrl-W Scroll the complete screen right
000818 cf56                      	rjmp	multiByteCommand	; 18 Ctrl-X Set font attribute
000819 cf57                      	rjmp	null				; 19 Ctrl-Y [SPARE]
00081a cf54                      	rjmp	multiByteCommand	; 1A Ctrl-Z Force next byte into RAM (for 00 to 1F chars)
00081b cf55                      	rjmp	null				; 1B Don't use - reserved for ANSI ESC
00081c cf34                      	rjmp	cursorRight			; 1C
00081d cf2d                      	rjmp	cursorLeft			; 1D
00081e cf18                      	rjmp	cursorUp			; 1E
00081f cf21                      	rjmp	cursorDown			; 1F
                                 
                                 .include "CGANormalFont.inc"	
                                 
                                 ; COMPLETE CGA NORMAL FONT
                                 ;
                                 ; Extracted by Grant Searle 2013
                                 ;******************************************************
                                 .CSEG
                                 .ORG 0x1000
                                 
                                 ; Character line 0:
                                 ;     0     1     2     3     4     5     6     7     8     9    10    11    12    13    14    15
001000 7e00
001001 6c7e
001002 3810
001003 0010
001004 00ff
001005 0fff
001006 3f3c
001007 183f                      .db  0x00, 0x7E, 0x7E, 0x6C, 0x10, 0x38, 0x10, 0x00, 0xFF, 0x00, 0xFF, 0x0F, 0x3C, 0x3F, 0x3F, 0x18
001008 0280
001009 2418
00100a 3e7f
00100b 1800
00100c 1010
00100d 0000
00100e 0000
00100f 0000                      .db  0x80, 0x02, 0x18, 0x24, 0x7F, 0x3E, 0x00, 0x18, 0x10, 0x10, 0x00, 0x00, 0x00, 0x00, 0x00, 0x00
001010 1000
001011 2424
001012 0018
001013 1030
001014 2010
001015 0000
001016 0000
001017 0000                      .db  0x00, 0x10, 0x24, 0x24, 0x18, 0x00, 0x30, 0x10, 0x10, 0x20, 0x00, 0x00, 0x00, 0x00, 0x00, 0x00
001018 103c
001019 3c3c
00101a 7e08
00101b 7e1c
00101c 3c3c
00101d 0000
00101e 0008
00101f 3c10                      .db  0x3C, 0x10, 0x3C, 0x3C, 0x08, 0x7E, 0x1C, 0x7E, 0x3C, 0x3C, 0x00, 0x00, 0x08, 0x00, 0x10, 0x3C
001020 183c
001021 1c7c
001022 7e78
001023 1c7e
001024 3842
001025 620e
001026 6370
001027 1862                      .db  0x3C, 0x18, 0x7C, 0x1C, 0x78, 0x7E, 0x7E, 0x1C, 0x42, 0x38, 0x0E, 0x62, 0x70, 0x63, 0x62, 0x18
001028 3c7c
001029 3c7c
00102a 427f
00102b 4141
00102c 4141
00102d 787f
00102e 7880
00102f 0010                      .db  0x7C, 0x3C, 0x7C, 0x3C, 0x7F, 0x42, 0x41, 0x41, 0x41, 0x41, 0x7F, 0x78, 0x80, 0x78, 0x10, 0x00
001030 0010
001031 0060
001032 0006
001033 000c
001034 1060
001035 6002
001036 0030
001037 0000                      .db  0x10, 0x00, 0x60, 0x00, 0x06, 0x00, 0x0C, 0x00, 0x60, 0x10, 0x02, 0x60, 0x30, 0x00, 0x00, 0x00
001038 0000
001039 0000
00103a 0010
00103b 0000
00103c 0000
00103d 0c00
00103e 3010
00103f 0032                      .db  0x00, 0x00, 0x00, 0x00, 0x10, 0x00, 0x00, 0x00, 0x00, 0x00, 0x00, 0x0C, 0x10, 0x30, 0x32, 0x00
001040 003c
001041 3c0c
001042 3042
001043 0010
001044 423c
001045 2430
001046 307c
001047 1842                      .db  0x3C, 0x00, 0x0C, 0x3C, 0x42, 0x30, 0x10, 0x00, 0x3C, 0x42, 0x30, 0x24, 0x7C, 0x30, 0x42, 0x18
001048 000c
001049 181f
00104a 2000
00104b 2018
00104c 4200
00104d 0842
00104e 4418
00104f 1cf8                      .db  0x0C, 0x00, 0x1F, 0x18, 0x00, 0x20, 0x18, 0x20, 0x00, 0x42, 0x42, 0x08, 0x18, 0x44, 0xF8, 0x1C
001050 0c0c
001051 0004
001052 3432
001053 383c
001054 0010
001055 4200
001056 0042
001057 0000                      .db  0x0C, 0x0C, 0x04, 0x00, 0x32, 0x34, 0x3C, 0x38, 0x10, 0x00, 0x00, 0x42, 0x42, 0x00, 0x00, 0x00
001058 5522
001059 10db
00105a 1010
00105b 0014
00105c 1400
00105d 0014
00105e 1414
00105f 0010                      .db  0x22, 0x55, 0xDB, 0x10, 0x10, 0x10, 0x14, 0x00, 0x00, 0x14, 0x14, 0x00, 0x14, 0x14, 0x10, 0x00
001060 1010
001061 1000
001062 1000
001063 1410
001064 0014
001065 0014
001066 0014
001067 1014                      .db  0x10, 0x10, 0x00, 0x10, 0x00, 0x10, 0x10, 0x14, 0x14, 0x00, 0x14, 0x00, 0x14, 0x00, 0x14, 0x10
001068 0014
001069 1400
00106a 0010
00106b 1400
00106c 1010
00106d ff00
00106e f000
00106f ff0f                      .db  0x14, 0x00, 0x00, 0x14, 0x10, 0x00, 0x00, 0x14, 0x10, 0x10, 0x00, 0xFF, 0x00, 0xF0, 0x0F, 0xFF
001070 0000
001071 0000
001072 007e
001073 0000
001074 187c
001075 1c18
001076 0200
001077 3c0c                      .db  0x00, 0x00, 0x00, 0x00, 0x7E, 0x00, 0x00, 0x00, 0x7C, 0x18, 0x18, 0x1C, 0x00, 0x02, 0x0C, 0x3C
001078 1000
001079 0810
00107a 100c
00107b 0018
00107c 0030
00107d 0f00
00107e 3078
00107f 0000                      .db  0x00, 0x10, 0x10, 0x08, 0x0C, 0x10, 0x18, 0x00, 0x30, 0x00, 0x00, 0x0F, 0x78, 0x30, 0x00, 0x00
                                 
                                 ; Character line 1:
                                 ;     0     1     2     3     4     5     6     7     8     9    10    11    12    13    14    15
001080 8100
001081 feff
001082 7c38
001083 0010
001084 3cff
001085 03c3
001086 2142
001087 db21                      .db  0x00, 0x81, 0xFF, 0xFE, 0x38, 0x7C, 0x10, 0x00, 0xFF, 0x3C, 0xC3, 0x03, 0x42, 0x21, 0x21, 0xDB
001088 0ee0
001089 243c
00108a 6392
00108b 3c00
00108c 1038
00108d 3018
00108e 2400
00108f fe10                      .db  0xE0, 0x0E, 0x3C, 0x24, 0x92, 0x63, 0x00, 0x3C, 0x38, 0x10, 0x18, 0x30, 0x00, 0x24, 0x10, 0xFE
001090 3800
001091 2424
001092 623e
001093 1048
001094 1020
001095 1044
001096 0000
001097 0200                      .db  0x00, 0x38, 0x24, 0x24, 0x3E, 0x62, 0x48, 0x10, 0x20, 0x10, 0x44, 0x10, 0x00, 0x00, 0x00, 0x02
001098 3042
001099 4242
00109a 4018
00109b 4220
00109c 4242
00109d 1010
00109e 0010
00109f 4208                      .db  0x42, 0x30, 0x42, 0x42, 0x18, 0x40, 0x20, 0x42, 0x42, 0x42, 0x10, 0x10, 0x10, 0x00, 0x08, 0x42
0010a0 2442
0010a1 2222
0010a2 2224
0010a3 2222
0010a4 1042
0010a5 2404
0010a6 5520
0010a7 2452                      .db  0x42, 0x24, 0x22, 0x22, 0x24, 0x22, 0x22, 0x22, 0x42, 0x10, 0x04, 0x24, 0x20, 0x55, 0x52, 0x24
0010a8 4222
0010a9 4222
0010aa 4249
0010ab 4141
0010ac 2222
0010ad 4042
0010ae 0840
0010af 0028                      .db  0x22, 0x42, 0x22, 0x42, 0x49, 0x42, 0x41, 0x41, 0x22, 0x22, 0x42, 0x40, 0x40, 0x08, 0x28, 0x00
0010b0 0010
0010b1 0020
0010b2 0002
0010b3 0012
0010b4 0020
0010b5 2000
0010b6 0010
0010b7 0000                      .db  0x10, 0x00, 0x20, 0x00, 0x02, 0x00, 0x12, 0x00, 0x20, 0x00, 0x00, 0x20, 0x10, 0x00, 0x00, 0x00
0010b8 0000
0010b9 0000
0010ba 0010
0010bb 0000
0010bc 0000
0010bd 1000
0010be 0810
0010bf 084c                      .db  0x00, 0x00, 0x00, 0x00, 0x10, 0x00, 0x00, 0x00, 0x00, 0x00, 0x00, 0x10, 0x10, 0x08, 0x4C, 0x08
0010c0 4442
0010c1 4200
0010c2 0000
0010c3 0000
0010c4 0042
0010c5 0000
0010c6 0082
0010c7 1818                      .db  0x42, 0x44, 0x00, 0x42, 0x00, 0x00, 0x00, 0x00, 0x42, 0x00, 0x00, 0x00, 0x82, 0x00, 0x18, 0x18
0010c8 0000
0010c9 2424
0010ca 1042
0010cb 1024
0010cc 1842
0010cd 0800
0010ce 2824
0010cf 124c                      .db  0x00, 0x00, 0x24, 0x24, 0x42, 0x10, 0x24, 0x10, 0x42, 0x18, 0x00, 0x08, 0x24, 0x28, 0x4C, 0x12
0010d0 0000
0010d1 0408
0010d2 4c4c
0010d3 4444
0010d4 0000
0010d5 c400
0010d6 10c4
0010d7 4812                      .db  0x00, 0x00, 0x08, 0x04, 0x4C, 0x4C, 0x44, 0x44, 0x00, 0x00, 0x00, 0xC4, 0xC4, 0x10, 0x12, 0x48
0010d8 aa88
0010d9 1077
0010da 1010
0010db 0014
0010dc 1400
0010dd 0014
0010de 1414
0010df 0010                      .db  0x88, 0xAA, 0x77, 0x10, 0x10, 0x10, 0x14, 0x00, 0x00, 0x14, 0x14, 0x00, 0x14, 0x14, 0x10, 0x00
0010e0 1010
0010e1 1000
0010e2 1000
0010e3 1410
0010e4 0014
0010e5 0014
0010e6 0014
0010e7 1014                      .db  0x10, 0x10, 0x00, 0x10, 0x00, 0x10, 0x10, 0x14, 0x14, 0x00, 0x14, 0x00, 0x14, 0x00, 0x14, 0x10
0010e8 0014
0010e9 1400
0010ea 0010
0010eb 1400
0010ec 1010
0010ed ff00
0010ee f000
0010ef ff0f                      .db  0x14, 0x00, 0x00, 0x14, 0x10, 0x00, 0x00, 0x14, 0x10, 0x10, 0x00, 0xFF, 0x00, 0xF0, 0x0F, 0xFF
0010f0 3c00
0010f1 3f7e
0010f2 0042
0010f3 3344
0010f4 2410
0010f5 2024
0010f6 0462
0010f7 4210                      .db  0x00, 0x3C, 0x7E, 0x3F, 0x42, 0x00, 0x44, 0x33, 0x10, 0x24, 0x24, 0x20, 0x62, 0x04, 0x10, 0x42
0010f8 107e
0010f9 1008
0010fa 1012
0010fb 3218
0010fc 0048
0010fd 0800
0010fe 4844
0010ff 0000                      .db  0x7E, 0x10, 0x08, 0x10, 0x12, 0x10, 0x18, 0x32, 0x48, 0x00, 0x00, 0x08, 0x44, 0x48, 0x00, 0x00
                                 
                                 ; Character line 2:
                                 ;     0     1     2     3     4     5     6     7     8     9    10    11    12    13    14    15
001100 a500
001101 fedb
001102 387c
001103 1838
001104 66e7
001105 0599
001106 3f42
001107 3c3f                      .db  0x00, 0xA5, 0xDB, 0xFE, 0x7C, 0x38, 0x38, 0x18, 0xE7, 0x66, 0x99, 0x05, 0x42, 0x3F, 0x3F, 0x3C
001108 3ef8
001109 247e
00110a 3892
00110b 7e00
00110c 107c
00110d 600c
00110e 6640
00110f fe38                      .db  0xF8, 0x3E, 0x7E, 0x24, 0x92, 0x38, 0x00, 0x7E, 0x7C, 0x10, 0x0C, 0x60, 0x40, 0x66, 0x38, 0xFE
001110 3800
001111 7e24
001112 6440
001113 2030
001114 0840
001115 1038
001116 0000
001117 0400                      .db  0x00, 0x38, 0x24, 0x7E, 0x40, 0x64, 0x30, 0x20, 0x40, 0x08, 0x38, 0x10, 0x00, 0x00, 0x00, 0x04
001118 5046
001119 0202
00111a 7c28
00111b 0440
00111c 4242
00111d 1010
00111e 7e20
00111f 0204                      .db  0x46, 0x50, 0x02, 0x02, 0x28, 0x7C, 0x40, 0x04, 0x42, 0x42, 0x10, 0x10, 0x20, 0x7E, 0x04, 0x02
001120 425e
001121 4022
001122 2822
001123 4028
001124 1042
001125 2804
001126 4920
001127 424a                      .db  0x5E, 0x42, 0x22, 0x40, 0x22, 0x28, 0x28, 0x40, 0x42, 0x10, 0x04, 0x28, 0x20, 0x49, 0x4A, 0x42
001128 4222
001129 4022
00112a 4208
00112b 4141
00112c 1414
00112d 4004
00112e 0820
00112f 0044                      .db  0x22, 0x42, 0x22, 0x40, 0x08, 0x42, 0x41, 0x41, 0x14, 0x14, 0x04, 0x40, 0x20, 0x08, 0x44, 0x00
001130 3c08
001131 3c20
001132 3c02
001133 3d10
001134 302c
001135 2406
001136 7610
001137 3c5c                      .db  0x08, 0x3C, 0x20, 0x3C, 0x02, 0x3C, 0x10, 0x3D, 0x2C, 0x30, 0x06, 0x24, 0x10, 0x76, 0x5C, 0x3C
001138 366c
001139 3e6c
00113a 427c
00113b 4141
00113c 4244
00113d 107c
00113e 0810
00113f 1400                      .db  0x6C, 0x36, 0x6C, 0x3E, 0x7C, 0x42, 0x41, 0x41, 0x44, 0x42, 0x7C, 0x10, 0x10, 0x08, 0x00, 0x14
001140 0040
001141 383c
001142 3838
001143 3c38
001144 3c3c
001145 183c
001146 1830
001147 0024                      .db  0x40, 0x00, 0x3C, 0x38, 0x38, 0x38, 0x38, 0x3C, 0x3C, 0x3C, 0x3C, 0x18, 0x30, 0x18, 0x24, 0x00
001148 337c
001149 0044
00114a 0000
00114b 0000
00114c 2400
00114d 3e42
00114e 7c20
00114f 1078                      .db  0x7C, 0x33, 0x44, 0x00, 0x00, 0x00, 0x00, 0x00, 0x00, 0x24, 0x42, 0x3E, 0x20, 0x7C, 0x78, 0x10
001150 1838
001151 0800
001152 0000
001153 4444
001154 0010
001155 4800
001156 004a
001157 2424                      .db  0x38, 0x18, 0x00, 0x08, 0x00, 0x00, 0x44, 0x44, 0x10, 0x00, 0x00, 0x48, 0x4A, 0x00, 0x24, 0x24
001158 5522
001159 10db
00115a f010
00115b 0014
00115c f4f0
00115d fc14
00115e 14f4
00115f 00f0                      .db  0x22, 0x55, 0xDB, 0x10, 0x10, 0xF0, 0x14, 0x00, 0xF0, 0xF4, 0x14, 0xFC, 0xF4, 0x14, 0xF0, 0x00
001160 1010
001161 1000
001162 1000
001163 141f
001164 1f17
001165 fff7
001166 ff17
001167 fff7                      .db  0x10, 0x10, 0x00, 0x10, 0x00, 0x10, 0x1F, 0x14, 0x17, 0x1F, 0xF7, 0xFF, 0x17, 0xFF, 0xF7, 0xFF
001168 ff14
001169 1400
00116a 1f1f
00116b 1400
00116c 10ff
00116d ff00
00116e f000
00116f ff0f                      .db  0x14, 0xFF, 0x00, 0x14, 0x1F, 0x1F, 0x00, 0x14, 0xFF, 0x10, 0x00, 0xFF, 0x00, 0xF0, 0x0F, 0xFF
001170 4231
001171 5442
001172 3e20
001173 4c44
001174 4238
001175 1842
001176 3c95
001177 4220                      .db  0x31, 0x42, 0x42, 0x54, 0x20, 0x3E, 0x44, 0x4C, 0x38, 0x42, 0x42, 0x18, 0x95, 0x3C, 0x20, 0x42
001178 7c00
001179 2004
00117a 1012
00117b 4c00
00117c 0048
00117d 0800
00117e 1044
00117f 003c                      .db  0x00, 0x7C, 0x04, 0x20, 0x12, 0x10, 0x00, 0x4C, 0x48, 0x00, 0x00, 0x08, 0x44, 0x10, 0x3C, 0x00
                                 
                                 ; Character line 3:
                                 ;     0     1     2     3     4     5     6     7     8     9    10    11    12    13    14    15
001180 8100
001181 feff
001182 fefe
001183 3c7c
001184 42c3
001185 7dbd
001186 2042
001187 e721                      .db  0x00, 0x81, 0xFF, 0xFE, 0xFE, 0xFE, 0x7C, 0x3C, 0xC3, 0x42, 0xBD, 0x7D, 0x42, 0x20, 0x21, 0xE7
001188 fefe
001189 2418
00118a 4472
00118b 1800
00118c 5454
00118d fefe
00118e ff40
00118f 7c7c                      .db  0xFE, 0xFE, 0x18, 0x24, 0x72, 0x44, 0x00, 0x18, 0x54, 0x54, 0xFE, 0xFE, 0x40, 0xFF, 0x7C, 0x7C
001190 1000
001191 2400
001192 083c
001193 0056
001194 0840
001195 7cfe
001196 7e00
001197 0800                      .db  0x00, 0x10, 0x00, 0x24, 0x3C, 0x08, 0x56, 0x00, 0x40, 0x08, 0xFE, 0x7C, 0x00, 0x7E, 0x00, 0x08
001198 104a
001199 1c0c
00119a 0248
00119b 087c
00119c 3e3c
00119d 0000
00119e 0040
00119f 0402                      .db  0x4A, 0x10, 0x0C, 0x1C, 0x48, 0x02, 0x7C, 0x08, 0x3C, 0x3E, 0x00, 0x00, 0x40, 0x00, 0x02, 0x04
0011a0 4252
0011a1 403c
0011a2 3822
0011a3 4038
0011a4 107e
0011a5 3004
0011a6 4120
0011a7 4246                      .db  0x52, 0x42, 0x3C, 0x40, 0x22, 0x38, 0x38, 0x40, 0x7E, 0x10, 0x04, 0x30, 0x20, 0x41, 0x46, 0x42
0011a8 423c
0011a9 3c3c
0011aa 4208
0011ab 4941
0011ac 0808
0011ad 4008
0011ae 0810
0011af 0082                      .db  0x3C, 0x42, 0x3C, 0x3C, 0x08, 0x42, 0x41, 0x49, 0x08, 0x08, 0x08, 0x40, 0x10, 0x08, 0x82, 0x00
0011b0 0200
0011b1 422e
0011b2 423a
0011b3 4238
0011b4 1032
0011b5 2802
0011b6 4910
0011b7 4262                      .db  0x00, 0x02, 0x2E, 0x42, 0x3A, 0x42, 0x38, 0x42, 0x32, 0x10, 0x02, 0x28, 0x10, 0x49, 0x62, 0x42
0011b8 4c32
0011b9 4032
0011ba 4210
0011bb 4941
0011bc 4228
0011bd 6008
0011be 0600
0011bf 2200                      .db  0x32, 0x4C, 0x32, 0x40, 0x10, 0x42, 0x41, 0x49, 0x28, 0x42, 0x08, 0x60, 0x00, 0x06, 0x00, 0x22
0011c0 4442
0011c1 0442
0011c2 0404
0011c3 4004
0011c4 4242
0011c5 0842
0011c6 0810
0011c7 3c42                      .db  0x42, 0x44, 0x42, 0x04, 0x04, 0x04, 0x04, 0x40, 0x42, 0x42, 0x42, 0x08, 0x10, 0x08, 0x42, 0x3C
0011c8 0c20
0011c9 3c7f
0011ca 3c3c
0011cb 4242
0011cc 4242
0011cd 4042
0011ce 1070
0011cf 7c44                      .db  0x20, 0x0C, 0x7F, 0x3C, 0x3C, 0x3C, 0x42, 0x42, 0x42, 0x42, 0x42, 0x40, 0x70, 0x10, 0x44, 0x7C
0011d0 0804
0011d1 423c
0011d2 627c
0011d3 383e
0011d4 7e20
0011d5 f67e
0011d6 10f6
0011d7 1248                      .db  0x04, 0x08, 0x3C, 0x42, 0x7C, 0x62, 0x3E, 0x38, 0x20, 0x7E, 0x7E, 0xF6, 0xF6, 0x10, 0x48, 0x12
0011d8 aa88
0011d9 10ee
0011da 1010
0011db 0014
0011dc 0410
0011dd 0414
0011de 1404
0011df 0010                      .db  0x88, 0xAA, 0xEE, 0x10, 0x10, 0x10, 0x14, 0x00, 0x10, 0x04, 0x14, 0x04, 0x04, 0x14, 0x10, 0x00
0011e0 1010
0011e1 1000
0011e2 1000
0011e3 1410
0011e4 1010
0011e5 0000
0011e6 0010
0011e7 0000                      .db  0x10, 0x10, 0x00, 0x10, 0x00, 0x10, 0x10, 0x14, 0x10, 0x10, 0x00, 0x00, 0x10, 0x00, 0x00, 0x00
0011e8 0014
0011e9 1400
0011ea 1010
0011eb 1400
0011ec 1010
0011ed ff00
0011ee f000
0011ef ff0f                      .db  0x14, 0x00, 0x00, 0x14, 0x10, 0x10, 0x00, 0x14, 0x10, 0x10, 0x00, 0xFF, 0x00, 0xF0, 0x0F, 0xFF
0011f0 7c4a
0011f1 1440
0011f2 4818
0011f3 0844
0011f4 7e44
0011f5 3c42
0011f6 4a89
0011f7 423c                      .db  0x4A, 0x7C, 0x40, 0x14, 0x18, 0x48, 0x44, 0x08, 0x44, 0x7E, 0x42, 0x3C, 0x89, 0x4A, 0x3C, 0x42
0011f8 107e
0011f9 1008
0011fa 1010
0011fb 007e
0011fc 1830
0011fd 0800
0011fe 2044
0011ff 003c                      .db  0x7E, 0x10, 0x08, 0x10, 0x10, 0x10, 0x7E, 0x00, 0x30, 0x18, 0x00, 0x08, 0x44, 0x20, 0x3C, 0x00
                                 
                                 ; Character line 4:
                                 ;     0     1     2     3     4     5     6     7     8     9    10    11    12    13    14    15
001200 bd00
001201 7cc3
001202 fe7c
001203 3cfe
001204 42c3
001205 84bd
001206 203c
001207 e723                      .db  0x00, 0xBD, 0xC3, 0x7C, 0x7C, 0xFE, 0xFE, 0x3C, 0xC3, 0x42, 0xBD, 0x84, 0x3C, 0x20, 0x23, 0xE7
001208 3ef8
001209 2418
00120a 4412
00120b 7e7e
00120c 7c10
00120d 600c
00120e 6640
00120f 38fe                      .db  0xF8, 0x3E, 0x18, 0x24, 0x12, 0x44, 0x7E, 0x7E, 0x10, 0x7C, 0x0C, 0x60, 0x40, 0x66, 0xFE, 0x38
001210 1000
001211 7e00
001212 1002
001213 0088
001214 0840
001215 1038
001216 0000
001217 1000                      .db  0x00, 0x10, 0x00, 0x7E, 0x02, 0x10, 0x88, 0x00, 0x40, 0x08, 0x38, 0x10, 0x00, 0x00, 0x00, 0x10
001218 1052
001219 0230
00121a 02fe
00121b 1042
00121c 0242
00121d 0000
00121e 0020
00121f 0804                      .db  0x52, 0x10, 0x30, 0x02, 0xFE, 0x02, 0x42, 0x10, 0x42, 0x02, 0x00, 0x00, 0x20, 0x00, 0x04, 0x08
001220 7e5e
001221 4022
001222 2822
001223 4e28
001224 1042
001225 2844
001226 4120
001227 4242                      .db  0x5E, 0x7E, 0x22, 0x40, 0x22, 0x28, 0x28, 0x4E, 0x42, 0x10, 0x44, 0x28, 0x20, 0x41, 0x42, 0x42
001228 4a20
001229 0228
00122a 4208
00122b 4922
00122c 0814
00122d 4010
00122e 0808
00122f 0000                      .db  0x20, 0x4A, 0x28, 0x02, 0x08, 0x42, 0x22, 0x49, 0x14, 0x08, 0x10, 0x40, 0x08, 0x08, 0x00, 0x00
001230 3e00
001231 4031
001232 7e46
001233 4210
001234 1022
001235 3002
001236 4910
001237 4242                      .db  0x00, 0x3E, 0x31, 0x40, 0x46, 0x7E, 0x10, 0x42, 0x22, 0x10, 0x02, 0x30, 0x10, 0x49, 0x42, 0x42
001238 4c32
001239 3c22
00123a 4210
00123b 4922
00123c 4210
00123d 1010
00123e 0810
00123f 4100                      .db  0x32, 0x4C, 0x22, 0x3C, 0x10, 0x42, 0x22, 0x49, 0x10, 0x42, 0x10, 0x10, 0x10, 0x08, 0x00, 0x41
001240 443c
001241 3c7e
001242 3c3c
001243 403c
001244 7e7e
001245 087e
001246 0810
001247 427e                      .db  0x3C, 0x44, 0x7E, 0x3C, 0x3C, 0x3C, 0x3C, 0x40, 0x7E, 0x7E, 0x7E, 0x08, 0x10, 0x08, 0x7E, 0x42
001248 3f38
001249 4244
00124a 4242
00124b 4242
00124c 4242
00124d 4042
00124e 7c20
00124f 104f                      .db  0x38, 0x3F, 0x44, 0x42, 0x42, 0x42, 0x42, 0x42, 0x42, 0x42, 0x42, 0x40, 0x20, 0x7C, 0x4F, 0x10
001250 083c
001251 4242
001252 5242
001253 0000
001254 4040
001255 2902
001256 102a
001257 2424                      .db  0x3C, 0x08, 0x42, 0x42, 0x42, 0x52, 0x00, 0x00, 0x40, 0x40, 0x02, 0x29, 0x2A, 0x10, 0x24, 0x24
001258 5522
001259 10db
00125a f0f0
00125b fcf4
00125c f4f0
00125d f414
00125e fcfc
00125f f0f0                      .db  0x22, 0x55, 0xDB, 0x10, 0xF0, 0xF0, 0xF4, 0xFC, 0xF0, 0xF4, 0x14, 0xF4, 0xFC, 0xFC, 0xF0, 0xF0
001260 ff1f
001261 1fff
001262 ffff
001263 171f
001264 171f
001265 f7ff
001266 ff17
001267 fff7                      .db  0x1F, 0xFF, 0xFF, 0x1F, 0xFF, 0xFF, 0x1F, 0x17, 0x1F, 0x17, 0xFF, 0xF7, 0x17, 0xFF, 0xF7, 0xFF
001268 ffff
001269 1fff
00126a 1f1f
00126b ff1f
00126c f0ff
00126d ff1f
00126e f0ff
00126f 000f                      .db  0xFF, 0xFF, 0xFF, 0x1F, 0x1F, 0x1F, 0x1F, 0xFF, 0xFF, 0xF0, 0x1F, 0xFF, 0xFF, 0xF0, 0x0F, 0x00
001270 4244
001271 1440
001272 4820
001273 087a
001274 4244
001275 4224
001276 5295
001277 4220                      .db  0x44, 0x42, 0x40, 0x14, 0x20, 0x48, 0x7A, 0x08, 0x44, 0x42, 0x24, 0x42, 0x95, 0x52, 0x20, 0x42
001278 1000
001279 0810
00127a 1010
00127b 3200
00127c 1800
00127d 0818
00127e 7844
00127f 003c                      .db  0x00, 0x10, 0x10, 0x08, 0x10, 0x10, 0x00, 0x32, 0x00, 0x18, 0x18, 0x08, 0x44, 0x78, 0x3C, 0x00
                                 
                                 ; Character line 5:
                                 ;     0     1     2     3     4     5     6     7     8     9    10    11    12    13    14    15
001280 9900
001281 38e7
001282 d638
001283 187c
001284 66e7
001285 8499
001286 6018
001287 3c67                      .db  0x00, 0x99, 0xE7, 0x38, 0x38, 0xD6, 0x7C, 0x18, 0xE7, 0x66, 0x99, 0x84, 0x18, 0x60, 0x67, 0x3C
001288 0ee0
001289 007e
00128a 3812
00128b 3c7e
00128c 3810
00128d 3018
00128e 247e
00128f 10fe                      .db  0xE0, 0x0E, 0x7E, 0x00, 0x12, 0x38, 0x7E, 0x3C, 0x10, 0x38, 0x18, 0x30, 0x7E, 0x24, 0xFE, 0x10
001290 0000
001291 2400
001292 267c
001293 0088
001294 1020
001295 1044
001296 0010
001297 2010                      .db  0x00, 0x00, 0x00, 0x24, 0x7C, 0x26, 0x88, 0x00, 0x20, 0x10, 0x44, 0x10, 0x10, 0x00, 0x10, 0x20
001298 1062
001299 4242
00129a 4208
00129b 1042
00129c 0442
00129d 1010
00129e 7e10
00129f 0008                      .db  0x62, 0x10, 0x42, 0x42, 0x08, 0x42, 0x42, 0x10, 0x42, 0x04, 0x10, 0x10, 0x10, 0x7E, 0x08, 0x00
0012a0 4240
0012a1 2222
0012a2 2224
0012a3 2220
0012a4 1042
0012a5 2444
0012a6 4122
0012a7 2442                      .db  0x40, 0x42, 0x22, 0x22, 0x24, 0x22, 0x20, 0x22, 0x42, 0x10, 0x44, 0x24, 0x22, 0x41, 0x42, 0x24
0012a8 3c20
0012a9 4224
0012aa 4208
0012ab 4914
0012ac 0822
0012ad 4021
0012ae 0804
0012af 0000                      .db  0x20, 0x3C, 0x24, 0x42, 0x08, 0x42, 0x14, 0x49, 0x22, 0x08, 0x21, 0x40, 0x04, 0x08, 0x00, 0x00
0012b0 4200
0012b1 4231
0012b2 4046
0012b3 3e10
0012b4 1022
0012b5 2842
0012b6 4910
0012b7 4242                      .db  0x00, 0x42, 0x31, 0x42, 0x46, 0x40, 0x10, 0x3E, 0x22, 0x10, 0x42, 0x28, 0x10, 0x49, 0x42, 0x42
0012b8 342c
0012b9 0220
0012ba 4612
0012bb 4914
0012bc 3e28
0012bd 1020
0012be 0810
0012bf 4100                      .db  0x2C, 0x34, 0x20, 0x02, 0x12, 0x46, 0x14, 0x49, 0x28, 0x3E, 0x20, 0x10, 0x10, 0x08, 0x00, 0x41
0012c0 440c
0012c1 4440
0012c2 4444
0012c3 3c44
0012c4 4040
0012c5 0840
0012c6 0810
0012c7 7e42                      .db  0x0C, 0x44, 0x40, 0x44, 0x44, 0x44, 0x44, 0x3C, 0x40, 0x40, 0x40, 0x08, 0x10, 0x08, 0x42, 0x7E
0012c8 4420
0012c9 4244
0012ca 4242
0012cb 4242
0012cc 243e
0012cd 3e42
0012ce 1042
0012cf 1044                      .db  0x20, 0x44, 0x44, 0x42, 0x42, 0x42, 0x42, 0x42, 0x3E, 0x24, 0x42, 0x3E, 0x42, 0x10, 0x44, 0x10
0012d0 0844
0012d1 4242
0012d2 4a42
0012d3 7c7e
0012d4 4042
0012d5 4302
0012d6 105f
0012d7 4812                      .db  0x44, 0x08, 0x42, 0x42, 0x42, 0x4A, 0x7E, 0x7C, 0x42, 0x40, 0x02, 0x43, 0x5F, 0x10, 0x12, 0x48
0012d8 aa88
0012d9 1077
0012da 1010
0012db 1414
0012dc 1410
0012dd 1414
0012de 0000
0012df 1000                      .db  0x88, 0xAA, 0x77, 0x10, 0x10, 0x10, 0x14, 0x14, 0x10, 0x14, 0x14, 0x14, 0x00, 0x00, 0x00, 0x10
0012e0 0000
0012e1 1010
0012e2 1000
0012e3 1410
0012e4 1400
0012e5 1400
0012e6 0014
0012e7 0014                      .db  0x00, 0x00, 0x10, 0x10, 0x00, 0x10, 0x10, 0x14, 0x00, 0x14, 0x00, 0x14, 0x14, 0x00, 0x14, 0x00
0012e8 1000
0012e9 0014
0012ea 1000
0012eb 1414
0012ec 0010
0012ed ff10
0012ee f0ff
0012ef 000f                      .db  0x00, 0x10, 0x14, 0x00, 0x00, 0x10, 0x14, 0x14, 0x10, 0x00, 0x10, 0xFF, 0xFF, 0xF0, 0x0F, 0x00
0012f0 7c4a
0012f1 1440
0012f2 4842
0012f3 0840
0012f4 2438
0012f5 4224
0012f6 3c62
0012f7 4210                      .db  0x4A, 0x7C, 0x40, 0x14, 0x42, 0x48, 0x40, 0x08, 0x38, 0x24, 0x24, 0x42, 0x62, 0x3C, 0x10, 0x42
0012f8 007e
0012f9 0000
0012fa 9010
0012fb 4c18
0012fc 0000
0012fd c800
0012fe 0000
0012ff 003c                      .db  0x7E, 0x00, 0x00, 0x00, 0x10, 0x90, 0x18, 0x4C, 0x00, 0x00, 0x00, 0xC8, 0x00, 0x00, 0x3C, 0x00
                                 
                                 ; Character line 6:
                                 ;     0     1     2     3     4     5     6     7     8     9    10    11    12    13    14    15
001300 8100
001301 10ff
001302 1010
001303 0010
001304 3cff
001305 84c3
001306 e07e
001307 dbe6                      .db  0x00, 0x81, 0xFF, 0x10, 0x10, 0x10, 0x10, 0x00, 0xFF, 0x3C, 0xC3, 0x84, 0x7E, 0xE0, 0xE6, 0xDB
001308 0280
001309 243c
00130a cc12
00130b 187e
00130c 1010
00130d 0000
00130e 0000
00130f 0000                      .db  0x80, 0x02, 0x3C, 0x24, 0x12, 0xCC, 0x7E, 0x18, 0x10, 0x10, 0x00, 0x00, 0x00, 0x00, 0x00, 0x00
001310 1000
001311 2400
001312 4618
001313 0076
001314 2010
001315 0000
001316 0010
001317 4010                      .db  0x00, 0x10, 0x00, 0x24, 0x18, 0x46, 0x76, 0x00, 0x10, 0x20, 0x00, 0x00, 0x10, 0x00, 0x10, 0x40
001318 7c3c
001319 3c7e
00131a 3c1c
00131b 103c
00131c 383c
00131d 1010
00131e 0008
00131f 0810                      .db  0x3C, 0x7C, 0x7E, 0x3C, 0x1C, 0x3C, 0x3C, 0x10, 0x3C, 0x38, 0x10, 0x10, 0x08, 0x00, 0x10, 0x08
001320 423c
001321 1c7c
001322 7e78
001323 1e70
001324 3842
001325 6338
001326 417e
001327 1842                      .db  0x3C, 0x42, 0x7C, 0x1C, 0x78, 0x7E, 0x70, 0x1E, 0x42, 0x38, 0x38, 0x63, 0x7E, 0x41, 0x42, 0x18
001328 0370
001329 3c72
00132a 3c1c
00132b 3608
00132c 1c41
00132d 787f
00132e 7802
00132f 0000                      .db  0x70, 0x03, 0x72, 0x3C, 0x1C, 0x3C, 0x08, 0x36, 0x41, 0x1C, 0x7F, 0x78, 0x02, 0x78, 0x00, 0x00
001330 3f00
001331 3c2e
001332 3c3b
001333 0238
001334 3862
001335 2642
001336 4938
001337 3c42                      .db  0x00, 0x3F, 0x2E, 0x3C, 0x3B, 0x3C, 0x38, 0x02, 0x62, 0x38, 0x42, 0x26, 0x38, 0x49, 0x42, 0x3C
001338 0420
001339 7c70
00133a 3a0c
00133b 3608
00133c 0244
00133d 0c7c
00133e 3010
00133f 7f00                      .db  0x20, 0x04, 0x70, 0x7C, 0x0C, 0x3A, 0x08, 0x36, 0x44, 0x02, 0x7C, 0x0C, 0x10, 0x30, 0x00, 0x7F
001340 3e02
001341 3e3c
001342 3e3e
001343 063e
001344 3c3c
001345 1c3c
001346 1c38
001347 4242                      .db  0x02, 0x3E, 0x3C, 0x3E, 0x3E, 0x3E, 0x3E, 0x06, 0x3C, 0x3C, 0x3C, 0x1C, 0x38, 0x1C, 0x42, 0x42
001348 3b7c
001349 3c47
00134a 3c3c
00134b 3c3c
00134c 1802
00134d 083c
00134e 107c
00134f 9045                      .db  0x7C, 0x3B, 0x47, 0x3C, 0x3C, 0x3C, 0x3C, 0x3C, 0x02, 0x18, 0x3C, 0x08, 0x7C, 0x10, 0x45, 0x90
001350 1c3e
001351 3c3c
001352 4642
001353 0000
001354 003c
001355 8c00
001356 1082
001357 0000                      .db  0x3E, 0x1C, 0x3C, 0x3C, 0x42, 0x46, 0x00, 0x00, 0x3C, 0x00, 0x00, 0x8C, 0x82, 0x10, 0x00, 0x00
001358 5522
001359 10db
00135a 1010
00135b 1414
00135c 1410
00135d 1414
00135e 0000
00135f 1000                      .db  0x22, 0x55, 0xDB, 0x10, 0x10, 0x10, 0x14, 0x14, 0x10, 0x14, 0x14, 0x14, 0x00, 0x00, 0x00, 0x10
001360 0000
001361 1010
001362 1000
001363 1410
001364 1400
001365 1400
001366 0014
001367 0014                      .db  0x00, 0x00, 0x10, 0x10, 0x00, 0x10, 0x10, 0x14, 0x00, 0x14, 0x00, 0x14, 0x14, 0x00, 0x14, 0x00
001368 1000
001369 0014
00136a 1000
00136b 1414
00136c 0010
00136d ff10
00136e f0ff
00136f 000f                      .db  0x00, 0x10, 0x14, 0x00, 0x00, 0x10, 0x14, 0x14, 0x10, 0x00, 0x10, 0xFF, 0xFF, 0xF0, 0x0F, 0x00
001370 4031
001371 1440
001372 307e
001373 0840
001374 1810
001375 3c66
001376 4000
001377 420c                      .db  0x31, 0x40, 0x40, 0x14, 0x7E, 0x30, 0x40, 0x08, 0x10, 0x18, 0x66, 0x3C, 0x00, 0x40, 0x0C, 0x42
001378 7c00
001379 7e7e
00137a 9010
00137b 0018
00137c 0000
00137d 2800
00137e 0000
00137f 0000                      .db  0x00, 0x7C, 0x7E, 0x7E, 0x10, 0x90, 0x18, 0x00, 0x00, 0x00, 0x00, 0x28, 0x00, 0x00, 0x00, 0x00
                                 
                                 ; Character line 7:
                                 ;     0     1     2     3     4     5     6     7     8     9    10    11    12    13    14    15
001380 7e00
001381 007e
001382 3800
001383 0038
001384 00ff
001385 78ff
001386 c018
001387 18c0                      .db  0x00, 0x7E, 0x7E, 0x00, 0x00, 0x38, 0x38, 0x00, 0xFF, 0x00, 0xFF, 0x78, 0x18, 0xC0, 0xC0, 0x18
001388 0000
001389 0018
00138a 7800
00138b ff00
00138c 0000
00138d 0000
00138e 0000
00138f 0000                      .db  0x00, 0x00, 0x18, 0x00, 0x00, 0x78, 0x00, 0xFF, 0x00, 0x00, 0x00, 0x00, 0x00, 0x00, 0x00, 0x00
001390 0000
001391 0000
001392 0000
001393 0000
001394 0000
001395 0000
001396 0020
001397 0000                      .db  0x00, 0x00, 0x00, 0x00, 0x00, 0x00, 0x00, 0x00, 0x00, 0x00, 0x00, 0x00, 0x20, 0x00, 0x00, 0x00
001398 0000
001399 0000
00139a 0000
00139b 0000
00139c 0000
00139d 2000
00139e 0000
00139f 0000                      .db  0x00, 0x00, 0x00, 0x00, 0x00, 0x00, 0x00, 0x00, 0x00, 0x00, 0x00, 0x20, 0x00, 0x00, 0x00, 0x00
0013a0 0000
0013a1 0000
0013a2 0000
0013a3 0000
0013a4 0000
0013a5 0000
0013a6 0000
0013a7 0000                      .db  0x00, 0x00, 0x00, 0x00, 0x00, 0x00, 0x00, 0x00, 0x00, 0x00, 0x00, 0x00, 0x00, 0x00, 0x00, 0x00
0013a8 0000
0013a9 0000
0013aa 0000
0013ab 0000
0013ac 0000
0013ad 0000
0013ae 0000
0013af ff00                      .db  0x00, 0x00, 0x00, 0x00, 0x00, 0x00, 0x00, 0x00, 0x00, 0x00, 0x00, 0x00, 0x00, 0x00, 0x00, 0xFF
0013b0 0000
0013b1 0000
0013b2 0000
0013b3 7c00
0013b4 0000
0013b5 003c
0013b6 0000
0013b7 0000                      .db  0x00, 0x00, 0x00, 0x00, 0x00, 0x00, 0x00, 0x7C, 0x00, 0x00, 0x3C, 0x00, 0x00, 0x00, 0x00, 0x00
0013b8 0e70
0013b9 0000
0013ba 0000
0013bb 0000
0013bc 7c00
0013bd 0000
0013be 0000
0013bf 0000                      .db  0x70, 0x0E, 0x00, 0x00, 0x00, 0x00, 0x00, 0x00, 0x00, 0x7C, 0x00, 0x00, 0x00, 0x00, 0x00, 0x00
0013c0 003c
0013c1 0000
0013c2 0000
0013c3 1c00
0013c4 0000
0013c5 0000
0013c6 0000
0013c7 0000                      .db  0x3C, 0x00, 0x00, 0x00, 0x00, 0x00, 0x00, 0x1C, 0x00, 0x00, 0x00, 0x00, 0x00, 0x00, 0x00, 0x00
0013c8 0000
0013c9 0000
0013ca 0000
0013cb 0000
0013cc 003c
0013cd 0800
0013ce 0000
0013cf 60e6                      .db  0x00, 0x00, 0x00, 0x00, 0x00, 0x00, 0x00, 0x00, 0x3C, 0x00, 0x00, 0x08, 0x00, 0x00, 0xE6, 0x60
0013d0 0000
0013d1 0000
0013d2 0000
0013d3 0000
0013d4 0000
0013d5 1f00
0013d6 0002
0013d7 0000                      .db  0x00, 0x00, 0x00, 0x00, 0x00, 0x00, 0x00, 0x00, 0x00, 0x00, 0x00, 0x1F, 0x02, 0x00, 0x00, 0x00
0013d8 aa88
0013d9 10ee
0013da 1010
0013db 1414
0013dc 1410
0013dd 1414
0013de 0000
0013df 1000                      .db  0x88, 0xAA, 0xEE, 0x10, 0x10, 0x10, 0x14, 0x14, 0x10, 0x14, 0x14, 0x14, 0x00, 0x00, 0x00, 0x10
0013e0 0000
0013e1 1010
0013e2 1000
0013e3 1410
0013e4 1400
0013e5 1400
0013e6 0014
0013e7 0014                      .db  0x00, 0x00, 0x10, 0x10, 0x00, 0x10, 0x10, 0x14, 0x00, 0x14, 0x00, 0x14, 0x14, 0x00, 0x14, 0x00
0013e8 1000
0013e9 0014
0013ea 1000
0013eb 1414
0013ec 0010
0013ed ff10
0013ee f0ff
0013ef 000f                      .db  0x00, 0x10, 0x14, 0x00, 0x00, 0x10, 0x14, 0x14, 0x10, 0x00, 0x10, 0xFF, 0xFF, 0xF0, 0x0F, 0x00
0013f0 4000
0013f1 0000
0013f2 0000
0013f3 0080
0013f4 007c
0013f5 0000
0013f6 8000
0013f7 0000                      .db  0x00, 0x40, 0x00, 0x00, 0x00, 0x00, 0x80, 0x00, 0x7C, 0x00, 0x00, 0x00, 0x00, 0x80, 0x00, 0x00
0013f8 0000
0013f9 0000
0013fa 6010
0013fb 0000
0013fc 0000
0013fd 1800
0013fe 0000
0013ff 0000                      .db  0x00, 0x00, 0x00, 0x00, 0x10, 0x60, 0x00, 0x00, 0x00, 0x00, 0x00, 0x18, 0x00, 0x00, 0x00, 0x00
                                 .include "CGANormalFontWide.inc"
                                 
                                 ; COMPLETE CGA NORMAL FONT - WIDE VERSION
                                 ;
                                 ; Extracted by Grant Searle 2013
                                 ;******************************************************
                                 .CSEG
                                 .ORG 0x1800
                                 
                                 ; 40 Char / line font (double width) left half of each char
                                 
                                 ; Character line 0:
                                 ;     0     1     2     3     4     5     6     7     8     9    10    11    12    13    14    15
001800 3f00
001801 3c3f
001802 0f03
001803 0003
001804 00ff
001805 00ff
001806 0f0f
001807 030f                      .db  0x00, 0x3F, 0x3F, 0x3C, 0x03, 0x0F, 0x03, 0x00, 0xFF, 0x00, 0xFF, 0x00, 0x0F, 0x0F, 0x0F, 0x03
001808 00c0
001809 0c03
00180a 0f3f
00180b 0300
00180c 0303
00180d 0000
00180e 0000
00180f 0000                      .db  0xC0, 0x00, 0x03, 0x0C, 0x3F, 0x0F, 0x00, 0x03, 0x03, 0x03, 0x00, 0x00, 0x00, 0x00, 0x00, 0x00
001810 0300
001811 0c0c
001812 0003
001813 030f
001814 0c03
001815 0000
001816 0000
001817 0000                      .db  0x00, 0x03, 0x0C, 0x0C, 0x03, 0x00, 0x0F, 0x03, 0x03, 0x0C, 0x00, 0x00, 0x00, 0x00, 0x00, 0x00
001818 030f
001819 0f0f
00181a 3f00
00181b 3f03
00181c 0f0f
00181d 0000
00181e 0000
00181f 0f03                      .db  0x0F, 0x03, 0x0F, 0x0F, 0x00, 0x3F, 0x03, 0x3F, 0x0F, 0x0F, 0x00, 0x00, 0x00, 0x00, 0x03, 0x0F
001820 030f
001821 033f
001822 3f3f
001823 033f
001824 0f30
001825 3c00
001826 3c3f
001827 033c                      .db  0x0F, 0x03, 0x3F, 0x03, 0x3F, 0x3F, 0x3F, 0x03, 0x30, 0x0F, 0x00, 0x3C, 0x3F, 0x3C, 0x3C, 0x03
001828 0f3f
001829 0f3f
00182a 303f
00182b 3030
00182c 3030
00182d 3f3f
00182e 3fc0
00182f 0003                      .db  0x3F, 0x0F, 0x3F, 0x0F, 0x3F, 0x30, 0x30, 0x30, 0x30, 0x30, 0x3F, 0x3F, 0xC0, 0x3F, 0x03, 0x00
001830 0003
001831 003c
001832 0000
001833 0000
001834 033c
001835 3c00
001836 000f
001837 0000                      .db  0x03, 0x00, 0x3C, 0x00, 0x00, 0x00, 0x00, 0x00, 0x3C, 0x03, 0x00, 0x3C, 0x0F, 0x00, 0x00, 0x00
001838 0000
001839 0000
00183a 0003
00183b 0000
00183c 0000
00183d 0000
00183e 0f03
00183f 000f                      .db  0x00, 0x00, 0x00, 0x00, 0x03, 0x00, 0x00, 0x00, 0x00, 0x00, 0x00, 0x00, 0x03, 0x0F, 0x0F, 0x00
001840 000f
001841 0f00
001842 0f30
001843 0003
001844 300f
001845 0c0f
001846 0f3f
001847 0330                      .db  0x0F, 0x00, 0x00, 0x0F, 0x30, 0x0F, 0x03, 0x00, 0x0F, 0x30, 0x0F, 0x0C, 0x3F, 0x0F, 0x30, 0x03
001848 0000
001849 0303
00184a 0c00
00184b 0c03
00184c 3000
00184d 0030
00184e 3003
00184f 03ff                      .db  0x00, 0x00, 0x03, 0x03, 0x00, 0x0C, 0x03, 0x0C, 0x00, 0x30, 0x30, 0x00, 0x03, 0x30, 0xFF, 0x03
001850 0000
001851 0000
001852 0f0f
001853 0f0f
001854 0003
001855 3000
001856 0030
001857 0000                      .db  0x00, 0x00, 0x00, 0x00, 0x0F, 0x0F, 0x0F, 0x0F, 0x03, 0x00, 0x00, 0x30, 0x30, 0x00, 0x00, 0x00
001858 330c
001859 03f3
00185a 0303
00185b 0003
00185c 0300
00185d 0003
00185e 0303
00185f 0003                      .db  0x0C, 0x33, 0xF3, 0x03, 0x03, 0x03, 0x03, 0x00, 0x00, 0x03, 0x03, 0x00, 0x03, 0x03, 0x03, 0x00
001860 0303
001861 0300
001862 0300
001863 0303
001864 0003
001865 0003
001866 0003
001867 0303                      .db  0x03, 0x03, 0x00, 0x03, 0x00, 0x03, 0x03, 0x03, 0x03, 0x00, 0x03, 0x00, 0x03, 0x00, 0x03, 0x03
001868 0003
001869 0300
00186a 0003
00186b 0300
00186c 0303
00186d ff00
00186e ff00
00186f ff00                      .db  0x03, 0x00, 0x00, 0x03, 0x03, 0x00, 0x00, 0x03, 0x03, 0x03, 0x00, 0xFF, 0x00, 0xFF, 0x00, 0xFF
001870 0000
001871 0000
001872 003f
001873 0000
001874 033f
001875 0303
001876 0000
001877 0f00                      .db  0x00, 0x00, 0x00, 0x00, 0x3F, 0x00, 0x00, 0x00, 0x3F, 0x03, 0x03, 0x03, 0x00, 0x00, 0x00, 0x0F
001878 0300
001879 0003
00187a 0300
00187b 0003
00187c 000f
00187d 0000
00187e 0f3f
00187f 0000                      .db  0x00, 0x03, 0x03, 0x00, 0x00, 0x03, 0x03, 0x00, 0x0F, 0x00, 0x00, 0x00, 0x3F, 0x0F, 0x00, 0x00
                                 
                                 ; Character line 1:
                                 ;     0     1     2     3     4     5     6     7     8     9    10    11    12    13    14    15
001880 c000
001881 ffff
001882 3f0f
001883 0003
001884 0fff
001885 00f0
001886 0c30
001887 f30c                      .db  0x00, 0xC0, 0xFF, 0xFF, 0x0F, 0x3F, 0x03, 0x00, 0xFF, 0x0F, 0xF0, 0x00, 0x30, 0x0C, 0x0C, 0xF3
001888 00fc
001889 0c0f
00188a 3cc3
00188b 0f00
00188c 030f
00188d 0f03
00188e 0c00
00188f ff03                      .db  0xFC, 0x00, 0x0F, 0x0C, 0xC3, 0x3C, 0x00, 0x0F, 0x0F, 0x03, 0x03, 0x0F, 0x00, 0x0C, 0x03, 0xFF
001890 0f00
001891 0c0c
001892 3c0f
001893 0330
001894 030c
001895 0330
001896 0000
001897 0000                      .db  0x00, 0x0F, 0x0C, 0x0C, 0x0F, 0x3C, 0x30, 0x03, 0x0C, 0x03, 0x30, 0x03, 0x00, 0x00, 0x00, 0x00
001898 0f30
001899 3030
00189a 3003
00189b 300c
00189c 3030
00189d 0303
00189e 0003
00189f 3000                      .db  0x30, 0x0F, 0x30, 0x30, 0x03, 0x30, 0x0C, 0x30, 0x30, 0x30, 0x03, 0x03, 0x03, 0x00, 0x00, 0x30
0018a0 0c30
0018a1 0c0c
0018a2 0c0c
0018a3 0c0c
0018a4 0330
0018a5 0c00
0018a6 330c
0018a7 0c33                      .db  0x30, 0x0C, 0x0C, 0x0C, 0x0C, 0x0C, 0x0C, 0x0C, 0x30, 0x03, 0x00, 0x0C, 0x0C, 0x33, 0x33, 0x0C
0018a8 300c
0018a9 300c
0018aa 3030
0018ab 3030
0018ac 0c0c
0018ad 3030
0018ae 0030
0018af 000c                      .db  0x0C, 0x30, 0x0C, 0x30, 0x30, 0x30, 0x30, 0x30, 0x0C, 0x0C, 0x30, 0x30, 0x30, 0x00, 0x0C, 0x00
0018b0 0003
0018b1 000c
0018b2 0000
0018b3 0003
0018b4 000c
0018b5 0c00
0018b6 0003
0018b7 0000                      .db  0x03, 0x00, 0x0C, 0x00, 0x00, 0x00, 0x03, 0x00, 0x0C, 0x00, 0x00, 0x0C, 0x03, 0x00, 0x00, 0x00
0018b8 0000
0018b9 0000
0018ba 0003
0018bb 0000
0018bc 0000
0018bd 0300
0018be 0003
0018bf 0030                      .db  0x00, 0x00, 0x00, 0x00, 0x03, 0x00, 0x00, 0x00, 0x00, 0x00, 0x00, 0x03, 0x03, 0x00, 0x30, 0x00
0018c0 3030
0018c1 3000
0018c2 0000
0018c3 0000
0018c4 0030
0018c5 0000
0018c6 00c0
0018c7 0303                      .db  0x30, 0x30, 0x00, 0x30, 0x00, 0x00, 0x00, 0x00, 0x30, 0x00, 0x00, 0x00, 0xC0, 0x00, 0x03, 0x03
0018c8 0000
0018c9 0c0c
0018ca 0330
0018cb 030c
0018cc 0330
0018cd 0000
0018ce 0c0c
0018cf 0330                      .db  0x00, 0x00, 0x0C, 0x0C, 0x30, 0x03, 0x0C, 0x03, 0x30, 0x03, 0x00, 0x00, 0x0C, 0x0C, 0x30, 0x03
0018d0 0000
0018d1 0000
0018d2 3030
0018d3 3030
0018d4 0000
0018d5 f000
0018d6 03f0
0018d7 3003                      .db  0x00, 0x00, 0x00, 0x00, 0x30, 0x30, 0x30, 0x30, 0x00, 0x00, 0x00, 0xF0, 0xF0, 0x03, 0x03, 0x30
0018d8 ccc0
0018d9 033f
0018da 0303
0018db 0003
0018dc 0300
0018dd 0003
0018de 0303
0018df 0003                      .db  0xC0, 0xCC, 0x3F, 0x03, 0x03, 0x03, 0x03, 0x00, 0x00, 0x03, 0x03, 0x00, 0x03, 0x03, 0x03, 0x00
0018e0 0303
0018e1 0300
0018e2 0300
0018e3 0303
0018e4 0003
0018e5 0003
0018e6 0003
0018e7 0303                      .db  0x03, 0x03, 0x00, 0x03, 0x00, 0x03, 0x03, 0x03, 0x03, 0x00, 0x03, 0x00, 0x03, 0x00, 0x03, 0x03
0018e8 0003
0018e9 0300
0018ea 0003
0018eb 0300
0018ec 0303
0018ed ff00
0018ee ff00
0018ef ff00                      .db  0x03, 0x00, 0x00, 0x03, 0x03, 0x00, 0x00, 0x03, 0x03, 0x03, 0x00, 0xFF, 0x00, 0xFF, 0x00, 0xFF
0018f0 0f00
0018f1 0f3f
0018f2 0030
0018f3 0f30
0018f4 0c03
0018f5 0c0c
0018f6 003c
0018f7 3003                      .db  0x00, 0x0F, 0x3F, 0x0F, 0x30, 0x00, 0x30, 0x0F, 0x03, 0x0C, 0x0C, 0x0C, 0x3C, 0x00, 0x03, 0x30
0018f8 033f
0018f9 0300
0018fa 0303
0018fb 0f03
0018fc 0030
0018fd 0000
0018fe 3030
0018ff 0000                      .db  0x3F, 0x03, 0x00, 0x03, 0x03, 0x03, 0x03, 0x0F, 0x30, 0x00, 0x00, 0x00, 0x30, 0x30, 0x00, 0x00
                                 
                                 ; Character line 2:
                                 ;     0     1     2     3     4     5     6     7     8     9    10    11    12    13    14    15
001900 cc00
001901 fff3
001902 0f3f
001903 030f
001904 3cfc
001905 00c3
001906 0f30
001907 0f0f                      .db  0x00, 0xCC, 0xF3, 0xFF, 0x3F, 0x0F, 0x0F, 0x03, 0xFC, 0x3C, 0xC3, 0x00, 0x30, 0x0F, 0x0F, 0x0F
001908 0fff
001909 0c3f
00190a 0fc3
00190b 3f00
00190c 033f
00190d 3c00
00190e 3c30
00190f ff0f                      .db  0xFF, 0x0F, 0x3F, 0x0C, 0xC3, 0x0F, 0x00, 0x3F, 0x3F, 0x03, 0x00, 0x3C, 0x30, 0x3C, 0x0F, 0xFF
001910 0f00
001911 3f0c
001912 3c30
001913 0c0f
001914 0030
001915 030f
001916 0000
001917 0000                      .db  0x00, 0x0F, 0x0C, 0x3F, 0x30, 0x3C, 0x0F, 0x0C, 0x30, 0x00, 0x0F, 0x03, 0x00, 0x00, 0x00, 0x00
001918 3330
001919 0000
00191a 3f0c
00191b 0030
00191c 3030
00191d 0303
00191e 3f0c
00191f 0000                      .db  0x30, 0x33, 0x00, 0x00, 0x0C, 0x3F, 0x30, 0x00, 0x30, 0x30, 0x03, 0x03, 0x0C, 0x3F, 0x00, 0x00
001920 3033
001921 300c
001922 0c0c
001923 300c
001924 0330
001925 0c00
001926 300c
001927 3030                      .db  0x33, 0x30, 0x0C, 0x30, 0x0C, 0x0C, 0x0C, 0x30, 0x30, 0x03, 0x00, 0x0C, 0x0C, 0x30, 0x30, 0x30
001928 300c
001929 300c
00192a 3000
00192b 3030
00192c 0303
00192d 3000
00192e 000c
00192f 0030                      .db  0x0C, 0x30, 0x0C, 0x30, 0x00, 0x30, 0x30, 0x30, 0x03, 0x03, 0x00, 0x30, 0x0C, 0x00, 0x30, 0x00
001930 0f00
001931 0f0c
001932 0f00
001933 0f03
001934 0f0c
001935 0c00
001936 3f03
001937 0f33                      .db  0x00, 0x0F, 0x0C, 0x0F, 0x00, 0x0F, 0x03, 0x0F, 0x0C, 0x0F, 0x00, 0x0C, 0x03, 0x3F, 0x33, 0x0F
001938 0f3c
001939 0f3c
00193a 303f
00193b 3030
00193c 3030
00193d 033f
00193e 0003
00193f 0300                      .db  0x3C, 0x0F, 0x3C, 0x0F, 0x3F, 0x30, 0x30, 0x30, 0x30, 0x30, 0x3F, 0x03, 0x03, 0x00, 0x00, 0x03
001940 0030
001941 0f0f
001942 0f0f
001943 0f0f
001944 0f0f
001945 030f
001946 030f
001947 000c                      .db  0x30, 0x00, 0x0F, 0x0F, 0x0F, 0x0F, 0x0F, 0x0F, 0x0F, 0x0F, 0x0F, 0x03, 0x0F, 0x03, 0x0C, 0x00
001948 0f3f
001949 0030
00194a 0000
00194b 0000
00194c 0c00
00194d 0f30
00194e 3f0c
00194f 033f                      .db  0x3F, 0x0F, 0x30, 0x00, 0x00, 0x00, 0x00, 0x00, 0x00, 0x0C, 0x30, 0x0F, 0x0C, 0x3F, 0x3F, 0x03
001950 030f
001951 0000
001952 0000
001953 3030
001954 0003
001955 3000
001956 0030
001957 0c0c                      .db  0x0F, 0x03, 0x00, 0x00, 0x00, 0x00, 0x30, 0x30, 0x03, 0x00, 0x00, 0x30, 0x30, 0x00, 0x0C, 0x0C
001958 330c
001959 03f3
00195a ff03
00195b 0003
00195c ffff
00195d ff03
00195e 03ff
00195f 00ff                      .db  0x0C, 0x33, 0xF3, 0x03, 0x03, 0xFF, 0x03, 0x00, 0xFF, 0xFF, 0x03, 0xFF, 0xFF, 0x03, 0xFF, 0x00
001960 0303
001961 0300
001962 0300
001963 0303
001964 0303
001965 ffff
001966 ff03
001967 ffff                      .db  0x03, 0x03, 0x00, 0x03, 0x00, 0x03, 0x03, 0x03, 0x03, 0x03, 0xFF, 0xFF, 0x03, 0xFF, 0xFF, 0xFF
001968 ff03
001969 0300
00196a 0303
00196b 0300
00196c 03ff
00196d ff00
00196e ff00
00196f ff00                      .db  0x03, 0xFF, 0x00, 0x03, 0x03, 0x03, 0x00, 0x03, 0xFF, 0x03, 0x00, 0xFF, 0x00, 0xFF, 0x00, 0xFF
001970 300f
001971 3330
001972 0f0c
001973 3030
001974 300f
001975 0330
001976 0fc3
001977 300c                      .db  0x0F, 0x30, 0x30, 0x33, 0x0C, 0x0F, 0x30, 0x30, 0x0F, 0x30, 0x30, 0x03, 0xC3, 0x0F, 0x0C, 0x30
001978 3f00
001979 0c00
00197a 0303
00197b 3000
00197c 0030
00197d 0000
00197e 0330
00197f 000f                      .db  0x00, 0x3F, 0x00, 0x0C, 0x03, 0x03, 0x00, 0x30, 0x30, 0x00, 0x00, 0x00, 0x30, 0x03, 0x0F, 0x00
                                 
                                 ; Character line 3:
                                 ;     0     1     2     3     4     5     6     7     8     9    10    11    12    13    14    15
001980 c000
001981 ffff
001982 ffff
001983 0f3f
001984 30f0
001985 3fcf
001986 0c30
001987 fc0c                      .db  0x00, 0xC0, 0xFF, 0xFF, 0xFF, 0xFF, 0x3F, 0x0F, 0xF0, 0x30, 0xCF, 0x3F, 0x30, 0x0C, 0x0C, 0xFC
001988 ffff
001989 0c03
00198a 303f
00198b 0300
00198c 3333
00198d ffff
00198e ff30
00198f 3f3f                      .db  0xFF, 0xFF, 0x03, 0x0C, 0x3F, 0x30, 0x00, 0x03, 0x33, 0x33, 0xFF, 0xFF, 0x30, 0xFF, 0x3F, 0x3F
001990 0300
001991 0c00
001992 000f
001993 0033
001994 0030
001995 3fff
001996 3f00
001997 0000                      .db  0x00, 0x03, 0x00, 0x0C, 0x0F, 0x00, 0x33, 0x00, 0x30, 0x00, 0xFF, 0x3F, 0x00, 0x3F, 0x00, 0x00
001998 0330
001999 0300
00199a 0030
00199b 003f
00199c 0f0f
00199d 0000
00199e 0030
00199f 0000                      .db  0x30, 0x03, 0x00, 0x03, 0x30, 0x00, 0x3F, 0x00, 0x0F, 0x0F, 0x00, 0x00, 0x30, 0x00, 0x00, 0x00
0019a0 3033
0019a1 300f
0019a2 0f0c
0019a3 300f
0019a4 033f
0019a5 0f00
0019a6 300c
0019a7 3030                      .db  0x33, 0x30, 0x0F, 0x30, 0x0C, 0x0F, 0x0F, 0x30, 0x3F, 0x03, 0x00, 0x0F, 0x0C, 0x30, 0x30, 0x30
0019a8 300f
0019a9 0f0f
0019aa 3000
0019ab 3030
0019ac 0000
0019ad 3000
0019ae 0003
0019af 00c0                      .db  0x0F, 0x30, 0x0F, 0x0F, 0x00, 0x30, 0x30, 0x30, 0x00, 0x00, 0x00, 0x30, 0x03, 0x00, 0xC0, 0x00
0019b0 0000
0019b1 300c
0019b2 300f
0019b3 300f
0019b4 030f
0019b5 0c00
0019b6 3003
0019b7 303c                      .db  0x00, 0x00, 0x0C, 0x30, 0x0F, 0x30, 0x0F, 0x30, 0x0F, 0x03, 0x00, 0x0C, 0x03, 0x30, 0x3C, 0x30
0019b8 300f
0019b9 300f
0019ba 3003
0019bb 3030
0019bc 300c
0019bd 3c00
0019be 0000
0019bf 0c00                      .db  0x0F, 0x30, 0x0F, 0x30, 0x03, 0x30, 0x30, 0x30, 0x0C, 0x30, 0x00, 0x3C, 0x00, 0x00, 0x00, 0x0C
0019c0 3030
0019c1 0030
0019c2 0000
0019c3 3000
0019c4 3030
0019c5 0030
0019c6 0003
0019c7 0f30                      .db  0x30, 0x30, 0x30, 0x00, 0x00, 0x00, 0x00, 0x30, 0x30, 0x30, 0x30, 0x00, 0x03, 0x00, 0x30, 0x0F
0019c8 000c
0019c9 0f3f
0019ca 0f0f
0019cb 3030
0019cc 3030
0019cd 3030
0019ce 033f
0019cf 3f30                      .db  0x0C, 0x00, 0x3F, 0x0F, 0x0F, 0x0F, 0x30, 0x30, 0x30, 0x30, 0x30, 0x30, 0x3F, 0x03, 0x30, 0x3F
0019d0 0000
0019d1 300f
0019d2 3c3f
0019d3 0f0f
0019d4 3f0c
0019d5 ff3f
0019d6 03ff
0019d7 0330                      .db  0x00, 0x00, 0x0F, 0x30, 0x3F, 0x3C, 0x0F, 0x0F, 0x0C, 0x3F, 0x3F, 0xFF, 0xFF, 0x03, 0x30, 0x03
0019d8 ccc0
0019d9 03fc
0019da 0303
0019db 0003
0019dc 0003
0019dd 0003
0019de 0300
0019df 0003                      .db  0xC0, 0xCC, 0xFC, 0x03, 0x03, 0x03, 0x03, 0x00, 0x03, 0x00, 0x03, 0x00, 0x00, 0x03, 0x03, 0x00
0019e0 0303
0019e1 0300
0019e2 0300
0019e3 0303
0019e4 0303
0019e5 0000
0019e6 0003
0019e7 0000                      .db  0x03, 0x03, 0x00, 0x03, 0x00, 0x03, 0x03, 0x03, 0x03, 0x03, 0x00, 0x00, 0x03, 0x00, 0x00, 0x00
0019e8 0003
0019e9 0300
0019ea 0303
0019eb 0300
0019ec 0303
0019ed ff00
0019ee ff00
0019ef ff00                      .db  0x03, 0x00, 0x00, 0x03, 0x03, 0x03, 0x00, 0x03, 0x03, 0x03, 0x00, 0xFF, 0x00, 0xFF, 0x00, 0xFF
0019f0 3f30
0019f1 0330
0019f2 3003
0019f3 0030
0019f4 3f30
0019f5 0f30
0019f6 30c0
0019f7 300f                      .db  0x30, 0x3F, 0x30, 0x03, 0x03, 0x30, 0x30, 0x00, 0x30, 0x3F, 0x30, 0x0F, 0xC0, 0x30, 0x0F, 0x30
0019f8 033f
0019f9 0300
0019fa 0303
0019fb 003f
0019fc 030f
0019fd 0000
0019fe 0c30
0019ff 000f                      .db  0x3F, 0x03, 0x00, 0x03, 0x03, 0x03, 0x3F, 0x00, 0x0F, 0x03, 0x00, 0x00, 0x30, 0x0C, 0x0F, 0x00
                                 
                                 ; Character line 4:
                                 ;     0     1     2     3     4     5     6     7     8     9    10    11    12    13    14    15
001a00 cf00
001a01 3ff0
001a02 ff3f
001a03 0fff
001a04 30f0
001a05 c0cf
001a06 0c0f
001a07 fc0c                      .db  0x00, 0xCF, 0xF0, 0x3F, 0x3F, 0xFF, 0xFF, 0x0F, 0xF0, 0x30, 0xCF, 0xC0, 0x0F, 0x0C, 0x0C, 0xFC
001a08 0fff
001a09 0c03
001a0a 3003
001a0b 3f3f
001a0c 3f03
001a0d 3c00
001a0e 3c30
001a0f 0fff                      .db  0xFF, 0x0F, 0x03, 0x0C, 0x03, 0x30, 0x3F, 0x3F, 0x03, 0x3F, 0x00, 0x3C, 0x30, 0x3C, 0xFF, 0x0F
001a10 0300
001a11 3f00
001a12 0300
001a13 00c0
001a14 0030
001a15 030f
001a16 0000
001a17 0300                      .db  0x00, 0x03, 0x00, 0x3F, 0x00, 0x03, 0xC0, 0x00, 0x30, 0x00, 0x0F, 0x03, 0x00, 0x00, 0x00, 0x03
001a18 0333
001a19 000f
001a1a 00ff
001a1b 0330
001a1c 0030
001a1d 0000
001a1e 000c
001a1f 0000                      .db  0x33, 0x03, 0x0F, 0x00, 0xFF, 0x00, 0x30, 0x03, 0x30, 0x00, 0x00, 0x00, 0x0C, 0x00, 0x00, 0x00
001a20 3f33
001a21 300c
001a22 0c0c
001a23 300c
001a24 0330
001a25 0c30
001a26 300c
001a27 3030                      .db  0x33, 0x3F, 0x0C, 0x30, 0x0C, 0x0C, 0x0C, 0x30, 0x30, 0x03, 0x30, 0x0C, 0x0C, 0x30, 0x30, 0x30
001a28 300c
001a29 000c
001a2a 3000
001a2b 300c
001a2c 0003
001a2d 3003
001a2e 0000
001a2f 0000                      .db  0x0C, 0x30, 0x0C, 0x00, 0x00, 0x30, 0x0C, 0x30, 0x03, 0x00, 0x03, 0x30, 0x00, 0x00, 0x00, 0x00
001a30 0f00
001a31 300f
001a32 3f30
001a33 3003
001a34 030c
001a35 0f00
001a36 3003
001a37 3030                      .db  0x00, 0x0F, 0x0F, 0x30, 0x30, 0x3F, 0x03, 0x30, 0x0C, 0x03, 0x00, 0x0F, 0x03, 0x30, 0x30, 0x30
001a38 300f
001a39 0f0c
001a3a 3003
001a3b 300c
001a3c 3003
001a3d 0303
001a3e 0003
001a3f 3000                      .db  0x0F, 0x30, 0x0C, 0x0F, 0x03, 0x30, 0x0C, 0x30, 0x03, 0x30, 0x03, 0x03, 0x03, 0x00, 0x00, 0x30
001a40 300f
001a41 0f3f
001a42 0f0f
001a43 300f
001a44 3f3f
001a45 003f
001a46 0003
001a47 303f                      .db  0x0F, 0x30, 0x3F, 0x0F, 0x0F, 0x0F, 0x0F, 0x30, 0x3F, 0x3F, 0x3F, 0x00, 0x03, 0x00, 0x3F, 0x30
001a48 0f0f
001a49 3030
001a4a 3030
001a4b 3030
001a4c 3030
001a4d 3030
001a4e 3f0c
001a4f 0330                      .db  0x0F, 0x0F, 0x30, 0x30, 0x30, 0x30, 0x30, 0x30, 0x30, 0x30, 0x30, 0x30, 0x0C, 0x3F, 0x30, 0x03
001a50 000f
001a51 3030
001a52 3330
001a53 0000
001a54 3030
001a55 0c00
001a56 030c
001a57 0c0c                      .db  0x0F, 0x00, 0x30, 0x30, 0x30, 0x33, 0x00, 0x00, 0x30, 0x30, 0x00, 0x0C, 0x0C, 0x03, 0x0C, 0x0C
001a58 330c
001a59 03f3
001a5a ffff
001a5b ffff
001a5c ffff
001a5d ff03
001a5e ffff
001a5f ffff                      .db  0x0C, 0x33, 0xF3, 0x03, 0xFF, 0xFF, 0xFF, 0xFF, 0xFF, 0xFF, 0x03, 0xFF, 0xFF, 0xFF, 0xFF, 0xFF
001a60 ff03
001a61 03ff
001a62 ffff
001a63 0303
001a64 0303
001a65 ffff
001a66 ff03
001a67 ffff                      .db  0x03, 0xFF, 0xFF, 0x03, 0xFF, 0xFF, 0x03, 0x03, 0x03, 0x03, 0xFF, 0xFF, 0x03, 0xFF, 0xFF, 0xFF
001a68 ffff
001a69 03ff
001a6a 0303
001a6b ff03
001a6c ffff
001a6d ff03
001a6e ffff
001a6f 0000                      .db  0xFF, 0xFF, 0xFF, 0x03, 0x03, 0x03, 0x03, 0xFF, 0xFF, 0xFF, 0x03, 0xFF, 0xFF, 0xFF, 0x00, 0x00
001a70 3030
001a71 0330
001a72 300c
001a73 003f
001a74 3030
001a75 300c
001a76 33c3
001a77 300c                      .db  0x30, 0x30, 0x30, 0x03, 0x0C, 0x30, 0x3F, 0x00, 0x30, 0x30, 0x0C, 0x30, 0xC3, 0x33, 0x0C, 0x30
001a78 0300
001a79 0003
001a7a 0303
001a7b 0f00
001a7c 0300
001a7d 0003
001a7e 3f30
001a7f 000f                      .db  0x00, 0x03, 0x03, 0x00, 0x03, 0x03, 0x00, 0x0F, 0x00, 0x03, 0x03, 0x00, 0x30, 0x3F, 0x0F, 0x00
                                 
                                 ; Character line 5:
                                 ;     0     1     2     3     4     5     6     7     8     9    10    11    12    13    14    15
001a80 c300
001a81 0ffc
001a82 f30f
001a83 033f
001a84 3cfc
001a85 c0c3
001a86 3c03
001a87 0f3c                      .db  0x00, 0xC3, 0xFC, 0x0F, 0x0F, 0xF3, 0x3F, 0x03, 0xFC, 0x3C, 0xC3, 0xC0, 0x03, 0x3C, 0x3C, 0x0F
001a88 00fc
001a89 003f
001a8a 0f03
001a8b 0f3f
001a8c 0f03
001a8d 0f03
001a8e 0c3f
001a8f 03ff                      .db  0xFC, 0x00, 0x3F, 0x00, 0x03, 0x0F, 0x3F, 0x0F, 0x03, 0x0F, 0x03, 0x0F, 0x3F, 0x0C, 0xFF, 0x03
001a90 0000
001a91 0c00
001a92 0c3f
001a93 00c0
001a94 030c
001a95 0330
001a96 0003
001a97 0c03                      .db  0x00, 0x00, 0x00, 0x0C, 0x3F, 0x0C, 0xC0, 0x00, 0x0C, 0x03, 0x30, 0x03, 0x03, 0x00, 0x03, 0x0C
001a98 033c
001a99 3030
001a9a 3000
001a9b 0330
001a9c 0030
001a9d 0303
001a9e 3f03
001a9f 0000                      .db  0x3C, 0x03, 0x30, 0x30, 0x00, 0x30, 0x30, 0x03, 0x30, 0x00, 0x03, 0x03, 0x03, 0x3F, 0x00, 0x00
001aa0 3030
001aa1 0c0c
001aa2 0c0c
001aa3 0c0c
001aa4 0330
001aa5 0c30
001aa6 300c
001aa7 0c30                      .db  0x30, 0x30, 0x0C, 0x0C, 0x0C, 0x0C, 0x0C, 0x0C, 0x30, 0x03, 0x30, 0x0C, 0x0C, 0x30, 0x30, 0x0C
001aa8 0f0c
001aa9 300c
001aaa 3000
001aab 3003
001aac 000c
001aad 300c
001aae 0000
001aaf 0000                      .db  0x0C, 0x0F, 0x0C, 0x30, 0x00, 0x30, 0x03, 0x30, 0x0C, 0x00, 0x0C, 0x30, 0x00, 0x00, 0x00, 0x00
001ab0 3000
001ab1 300f
001ab2 3030
001ab3 0f03
001ab4 030c
001ab5 0c30
001ab6 3003
001ab7 3030                      .db  0x00, 0x30, 0x0F, 0x30, 0x30, 0x30, 0x03, 0x0F, 0x0C, 0x03, 0x30, 0x0C, 0x03, 0x30, 0x30, 0x30
001ab8 0f0c
001ab9 000c
001aba 3003
001abb 3003
001abc 0f0c
001abd 030c
001abe 0003
001abf 3000                      .db  0x0C, 0x0F, 0x0C, 0x00, 0x03, 0x30, 0x03, 0x30, 0x0C, 0x0F, 0x0C, 0x03, 0x03, 0x00, 0x00, 0x30
001ac0 3000
001ac1 3030
001ac2 3030
001ac3 0f30
001ac4 3030
001ac5 0030
001ac6 0003
001ac7 3f30                      .db  0x00, 0x30, 0x30, 0x30, 0x30, 0x30, 0x30, 0x0F, 0x30, 0x30, 0x30, 0x00, 0x03, 0x00, 0x30, 0x3F
001ac8 300c
001ac9 3030
001aca 3030
001acb 3030
001acc 0c0f
001acd 0f30
001ace 0330
001acf 0330                      .db  0x0C, 0x30, 0x30, 0x30, 0x30, 0x30, 0x30, 0x30, 0x0F, 0x0C, 0x30, 0x0F, 0x30, 0x03, 0x30, 0x03
001ad0 0030
001ad1 3030
001ad2 3030
001ad3 3f3f
001ad4 3030
001ad5 3000
001ad6 0333
001ad7 3003                      .db  0x30, 0x00, 0x30, 0x30, 0x30, 0x30, 0x3F, 0x3F, 0x30, 0x30, 0x00, 0x30, 0x33, 0x03, 0x03, 0x30
001ad8 ccc0
001ad9 033f
001ada 0303
001adb 0303
001adc 0303
001add 0303
001ade 0000
001adf 0300                      .db  0xC0, 0xCC, 0x3F, 0x03, 0x03, 0x03, 0x03, 0x03, 0x03, 0x03, 0x03, 0x03, 0x00, 0x00, 0x00, 0x03
001ae0 0000
001ae1 0303
001ae2 0300
001ae3 0303
001ae4 0300
001ae5 0300
001ae6 0003
001ae7 0003                      .db  0x00, 0x00, 0x03, 0x03, 0x00, 0x03, 0x03, 0x03, 0x00, 0x03, 0x00, 0x03, 0x03, 0x00, 0x03, 0x00
001ae8 0300
001ae9 0003
001aea 0300
001aeb 0303
001aec 0003
001aed ff03
001aee ffff
001aef 0000                      .db  0x00, 0x03, 0x03, 0x00, 0x00, 0x03, 0x03, 0x03, 0x03, 0x00, 0x03, 0xFF, 0xFF, 0xFF, 0x00, 0x00
001af0 3f30
001af1 0330
001af2 3030
001af3 0030
001af4 0c0f
001af5 300c
001af6 0f3c
001af7 3003                      .db  0x30, 0x3F, 0x30, 0x03, 0x30, 0x30, 0x30, 0x00, 0x0F, 0x0C, 0x0C, 0x30, 0x3C, 0x0F, 0x03, 0x30
001af8 003f
001af9 0000
001afa c303
001afb 3003
001afc 0000
001afd f000
001afe 0000
001aff 000f                      .db  0x3F, 0x00, 0x00, 0x00, 0x03, 0xC3, 0x03, 0x30, 0x00, 0x00, 0x00, 0xF0, 0x00, 0x00, 0x0F, 0x00
                                 
                                 ; Character line 6:
                                 ;     0     1     2     3     4     5     6     7     8     9    10    11    12    13    14    15
001b00 c000
001b01 03ff
001b02 0303
001b03 0003
001b04 0fff
001b05 c0f0
001b06 fc3f
001b07 f3fc                      .db  0x00, 0xC0, 0xFF, 0x03, 0x03, 0x03, 0x03, 0x00, 0xFF, 0x0F, 0xF0, 0xC0, 0x3F, 0xFC, 0xFC, 0xF3
001b08 00c0
001b09 0c0f
001b0a f003
001b0b 033f
001b0c 0303
001b0d 0000
001b0e 0000
001b0f 0000                      .db  0xC0, 0x00, 0x0F, 0x0C, 0x03, 0xF0, 0x3F, 0x03, 0x03, 0x03, 0x00, 0x00, 0x00, 0x00, 0x00, 0x00
001b10 0300
001b11 0c00
001b12 3003
001b13 003f
001b14 0c03
001b15 0000
001b16 0003
001b17 3003                      .db  0x00, 0x03, 0x00, 0x0C, 0x03, 0x30, 0x3F, 0x00, 0x03, 0x0C, 0x00, 0x00, 0x03, 0x00, 0x03, 0x30
001b18 3f0f
001b19 0f3f
001b1a 0f03
001b1b 030f
001b1c 0f0f
001b1d 0303
001b1e 0000
001b1f 0003                      .db  0x0F, 0x3F, 0x3F, 0x0F, 0x03, 0x0F, 0x0F, 0x03, 0x0F, 0x0F, 0x03, 0x03, 0x00, 0x00, 0x03, 0x00
001b20 300f
001b21 033f
001b22 3f3f
001b23 033f
001b24 0f30
001b25 3c0f
001b26 303f
001b27 0330                      .db  0x0F, 0x30, 0x3F, 0x03, 0x3F, 0x3F, 0x3F, 0x03, 0x30, 0x0F, 0x0F, 0x3C, 0x3F, 0x30, 0x30, 0x03
001b28 003f
001b29 0f3f
001b2a 0f03
001b2b 0f00
001b2c 0330
001b2d 3f3f
001b2e 3f00
001b2f 0000                      .db  0x3F, 0x00, 0x3F, 0x0F, 0x03, 0x0F, 0x00, 0x0F, 0x30, 0x03, 0x3F, 0x3F, 0x00, 0x3F, 0x00, 0x00
001b30 0f00
001b31 0f0c
001b32 0f0f
001b33 000f
001b34 0f3c
001b35 0c30
001b36 300f
001b37 0f30                      .db  0x00, 0x0F, 0x0C, 0x0F, 0x0F, 0x0F, 0x0F, 0x00, 0x3C, 0x0F, 0x30, 0x0C, 0x0F, 0x30, 0x30, 0x0F
001b38 000c
001b39 3f3f
001b3a 0f00
001b3b 0f00
001b3c 0030
001b3d 003f
001b3e 0f03
001b3f 3f00                      .db  0x0C, 0x00, 0x3F, 0x3F, 0x00, 0x0F, 0x00, 0x0F, 0x30, 0x00, 0x3F, 0x00, 0x03, 0x0F, 0x00, 0x3F
001b40 0f00
001b41 0f0f
001b42 0f0f
001b43 000f
001b44 0f0f
001b45 030f
001b46 030f
001b47 3030                      .db  0x00, 0x0F, 0x0F, 0x0F, 0x0F, 0x0F, 0x0F, 0x00, 0x0F, 0x0F, 0x0F, 0x03, 0x0F, 0x03, 0x30, 0x30
001b48 0f3f
001b49 0f30
001b4a 0f0f
001b4b 0f0f
001b4c 0300
001b4d 000f
001b4e 033f
001b4f c330                      .db  0x3F, 0x0F, 0x30, 0x0F, 0x0F, 0x0F, 0x0F, 0x0F, 0x00, 0x03, 0x0F, 0x00, 0x3F, 0x03, 0x30, 0xC3
001b50 030f
001b51 0f0f
001b52 3030
001b53 0000
001b54 000f
001b55 c000
001b56 03c0
001b57 0000                      .db  0x0F, 0x03, 0x0F, 0x0F, 0x30, 0x30, 0x00, 0x00, 0x0F, 0x00, 0x00, 0xC0, 0xC0, 0x03, 0x00, 0x00
001b58 330c
001b59 03f3
001b5a 0303
001b5b 0303
001b5c 0303
001b5d 0303
001b5e 0000
001b5f 0300                      .db  0x0C, 0x33, 0xF3, 0x03, 0x03, 0x03, 0x03, 0x03, 0x03, 0x03, 0x03, 0x03, 0x00, 0x00, 0x00, 0x03
001b60 0000
001b61 0303
001b62 0300
001b63 0303
001b64 0300
001b65 0300
001b66 0003
001b67 0003                      .db  0x00, 0x00, 0x03, 0x03, 0x00, 0x03, 0x03, 0x03, 0x00, 0x03, 0x00, 0x03, 0x03, 0x00, 0x03, 0x00
001b68 0300
001b69 0003
001b6a 0300
001b6b 0303
001b6c 0003
001b6d ff03
001b6e ffff
001b6f 0000                      .db  0x00, 0x03, 0x03, 0x00, 0x00, 0x03, 0x03, 0x03, 0x03, 0x00, 0x03, 0xFF, 0xFF, 0xFF, 0x00, 0x00
001b70 300f
001b71 0330
001b72 0f3f
001b73 0030
001b74 0303
001b75 0f3c
001b76 3000
001b77 3000                      .db  0x0F, 0x30, 0x30, 0x03, 0x3F, 0x0F, 0x30, 0x00, 0x03, 0x03, 0x3C, 0x0F, 0x00, 0x30, 0x00, 0x30
001b78 3f00
001b79 3f3f
001b7a c303
001b7b 0003
001b7c 0000
001b7d 0c00
001b7e 0000
001b7f 0000                      .db  0x00, 0x3F, 0x3F, 0x3F, 0x03, 0xC3, 0x03, 0x00, 0x00, 0x00, 0x00, 0x0C, 0x00, 0x00, 0x00, 0x00
                                 
                                 ; Character line 7:
                                 ;     0     1     2     3     4     5     6     7     8     9    10    11    12    13    14    15
001b80 3f00
001b81 003f
001b82 0f00
001b83 000f
001b84 00ff
001b85 3fff
001b86 f003
001b87 03f0                      .db  0x00, 0x3F, 0x3F, 0x00, 0x00, 0x0F, 0x0F, 0x00, 0xFF, 0x00, 0xFF, 0x3F, 0x03, 0xF0, 0xF0, 0x03
001b88 0000
001b89 0003
001b8a 3f00
001b8b ff00
001b8c 0000
001b8d 0000
001b8e 0000
001b8f 0000                      .db  0x00, 0x00, 0x03, 0x00, 0x00, 0x3F, 0x00, 0xFF, 0x00, 0x00, 0x00, 0x00, 0x00, 0x00, 0x00, 0x00
001b90 0000
001b91 0000
001b92 0000
001b93 0000
001b94 0000
001b95 0000
001b96 000c
001b97 0000                      .db  0x00, 0x00, 0x00, 0x00, 0x00, 0x00, 0x00, 0x00, 0x00, 0x00, 0x00, 0x00, 0x0C, 0x00, 0x00, 0x00
001b98 0000
001b99 0000
001b9a 0000
001b9b 0000
001b9c 0000
001b9d 0c00
001b9e 0000
001b9f 0000                      .db  0x00, 0x00, 0x00, 0x00, 0x00, 0x00, 0x00, 0x00, 0x00, 0x00, 0x00, 0x0C, 0x00, 0x00, 0x00, 0x00
001ba0 0000
001ba1 0000
001ba2 0000
001ba3 0000
001ba4 0000
001ba5 0000
001ba6 0000
001ba7 0000                      .db  0x00, 0x00, 0x00, 0x00, 0x00, 0x00, 0x00, 0x00, 0x00, 0x00, 0x00, 0x00, 0x00, 0x00, 0x00, 0x00
001ba8 0000
001ba9 0000
001baa 0000
001bab 0000
001bac 0000
001bad 0000
001bae 0000
001baf ff00                      .db  0x00, 0x00, 0x00, 0x00, 0x00, 0x00, 0x00, 0x00, 0x00, 0x00, 0x00, 0x00, 0x00, 0x00, 0x00, 0xFF
001bb0 0000
001bb1 0000
001bb2 0000
001bb3 3f00
001bb4 0000
001bb5 000f
001bb6 0000
001bb7 0000                      .db  0x00, 0x00, 0x00, 0x00, 0x00, 0x00, 0x00, 0x3F, 0x00, 0x00, 0x0F, 0x00, 0x00, 0x00, 0x00, 0x00
001bb8 003f
001bb9 0000
001bba 0000
001bbb 0000
001bbc 3f00
001bbd 0000
001bbe 0000
001bbf 0000                      .db  0x3F, 0x00, 0x00, 0x00, 0x00, 0x00, 0x00, 0x00, 0x00, 0x3F, 0x00, 0x00, 0x00, 0x00, 0x00, 0x00
001bc0 000f
001bc1 0000
001bc2 0000
001bc3 0300
001bc4 0000
001bc5 0000
001bc6 0000
001bc7 0000                      .db  0x0F, 0x00, 0x00, 0x00, 0x00, 0x00, 0x00, 0x03, 0x00, 0x00, 0x00, 0x00, 0x00, 0x00, 0x00, 0x00
001bc8 0000
001bc9 0000
001bca 0000
001bcb 0000
001bcc 000f
001bcd 0000
001bce 0000
001bcf 3cfc                      .db  0x00, 0x00, 0x00, 0x00, 0x00, 0x00, 0x00, 0x00, 0x0F, 0x00, 0x00, 0x00, 0x00, 0x00, 0xFC, 0x3C
001bd0 0000
001bd1 0000
001bd2 0000
001bd3 0000
001bd4 0000
001bd5 0300
001bd6 0000
001bd7 0000                      .db  0x00, 0x00, 0x00, 0x00, 0x00, 0x00, 0x00, 0x00, 0x00, 0x00, 0x00, 0x03, 0x00, 0x00, 0x00, 0x00
001bd8 ccc0
001bd9 03fc
001bda 0303
001bdb 0303
001bdc 0303
001bdd 0303
001bde 0000
001bdf 0300                      .db  0xC0, 0xCC, 0xFC, 0x03, 0x03, 0x03, 0x03, 0x03, 0x03, 0x03, 0x03, 0x03, 0x00, 0x00, 0x00, 0x03
001be0 0000
001be1 0303
001be2 0300
001be3 0303
001be4 0300
001be5 0300
001be6 0003
001be7 0003                      .db  0x00, 0x00, 0x03, 0x03, 0x00, 0x03, 0x03, 0x03, 0x00, 0x03, 0x00, 0x03, 0x03, 0x00, 0x03, 0x00
001be8 0300
001be9 0003
001bea 0300
001beb 0303
001bec 0003
001bed ff03
001bee ffff
001bef 0000                      .db  0x00, 0x03, 0x03, 0x00, 0x00, 0x03, 0x03, 0x03, 0x03, 0x00, 0x03, 0xFF, 0xFF, 0xFF, 0x00, 0x00
001bf0 3000
001bf1 0000
001bf2 0000
001bf3 00c0
001bf4 003f
001bf5 0000
001bf6 c000
001bf7 0000                      .db  0x00, 0x30, 0x00, 0x00, 0x00, 0x00, 0xC0, 0x00, 0x3F, 0x00, 0x00, 0x00, 0x00, 0xC0, 0x00, 0x00
001bf8 0000
001bf9 0000
001bfa 3c03
001bfb 0000
001bfc 0000
001bfd 0300
001bfe 0000
001bff 0000                      .db  0x00, 0x00, 0x00, 0x00, 0x03, 0x3C, 0x00, 0x00, 0x00, 0x00, 0x00, 0x03, 0x00, 0x00, 0x00, 0x00
                                 
                                 ; 40 Char / line font (double width) right half of each char
                                 
                                 ; Character line 0:
                                 ;     0     1     2     3     4     5     6     7     8     9    10    11    12    13    14    15
001c00 fc00
001c01 f0fc
001c02 c000
001c03 0000
001c04 00ff
001c05 ffff
001c06 fff0
001c07 c0ff                      .db  0x00, 0xFC, 0xFC, 0xF0, 0x00, 0xC0, 0x00, 0x00, 0xFF, 0x00, 0xFF, 0xFF, 0xF0, 0xFF, 0xFF, 0xC0
001c08 0c00
001c09 30c0
001c0a fcff
001c0b c000
001c0c 0000
001c0d 0000
001c0e 0000
001c0f 0000                      .db  0x00, 0x0C, 0xC0, 0x30, 0xFF, 0xFC, 0x00, 0xC0, 0x00, 0x00, 0x00, 0x00, 0x00, 0x00, 0x00, 0x00
001c10 0000
001c11 3030
001c12 00c0
001c13 0000
001c14 0000
001c15 0000
001c16 0000
001c17 0000                      .db  0x00, 0x00, 0x30, 0x30, 0xC0, 0x00, 0x00, 0x00, 0x00, 0x00, 0x00, 0x00, 0x00, 0x00, 0x00, 0x00
001c18 00f0
001c19 f0f0
001c1a fcc0
001c1b fcf0
001c1c f0f0
001c1d 0000
001c1e 00c0
001c1f f000                      .db  0xF0, 0x00, 0xF0, 0xF0, 0xC0, 0xFC, 0xF0, 0xFC, 0xF0, 0xF0, 0x00, 0x00, 0xC0, 0x00, 0x00, 0xF0
001c20 c0f0
001c21 f0f0
001c22 fcc0
001c23 f0fc
001c24 c00c
001c25 0cfc
001c26 0f00
001c27 c00c                      .db  0xF0, 0xC0, 0xF0, 0xF0, 0xC0, 0xFC, 0xFC, 0xF0, 0x0C, 0xC0, 0xFC, 0x0C, 0x00, 0x0F, 0x0C, 0xC0
001c28 f0f0
001c29 f0f0
001c2a 0cff
001c2b 0303
001c2c 0303
001c2d c0ff
001c2e c000
001c2f 0000                      .db  0xF0, 0xF0, 0xF0, 0xF0, 0xFF, 0x0C, 0x03, 0x03, 0x03, 0x03, 0xFF, 0xC0, 0x00, 0xC0, 0x00, 0x00
001c30 0000
001c31 0000
001c32 003c
001c33 00f0
001c34 0000
001c35 000c
001c36 0000
001c37 0000                      .db  0x00, 0x00, 0x00, 0x00, 0x3C, 0x00, 0xF0, 0x00, 0x00, 0x00, 0x0C, 0x00, 0x00, 0x00, 0x00, 0x00
001c38 0000
001c39 0000
001c3a 0000
001c3b 0000
001c3c 0000
001c3d f000
001c3e 0000
001c3f 000c                      .db  0x00, 0x00, 0x00, 0x00, 0x00, 0x00, 0x00, 0x00, 0x00, 0x00, 0x00, 0xF0, 0x00, 0x00, 0x0C, 0x00
001c40 00f0
001c41 f0f0
001c42 000c
001c43 0000
001c44 0cf0
001c45 3000
001c46 00f0
001c47 c00c                      .db  0xF0, 0x00, 0xF0, 0xF0, 0x0C, 0x00, 0x00, 0x00, 0xF0, 0x0C, 0x00, 0x30, 0xF0, 0x00, 0x0C, 0xC0
001c48 00f0
001c49 c0ff
001c4a 0000
001c4b 00c0
001c4c 0c00
001c4d c00c
001c4e 30c0
001c4f f0c0                      .db  0xF0, 0x00, 0xFF, 0xC0, 0x00, 0x00, 0xC0, 0x00, 0x00, 0x0C, 0x0C, 0xC0, 0xC0, 0x30, 0xC0, 0xF0
001c50 f0f0
001c51 0030
001c52 300c
001c53 c0f0
001c54 0000
001c55 0c00
001c56 000c
001c57 0000                      .db  0xF0, 0xF0, 0x30, 0x00, 0x0C, 0x30, 0xF0, 0xC0, 0x00, 0x00, 0x00, 0x0C, 0x0C, 0x00, 0x00, 0x00
001c58 330c
001c59 00cf
001c5a 0000
001c5b 0030
001c5c 3000
001c5d 0030
001c5e 3030
001c5f 0000                      .db  0x0C, 0x33, 0xCF, 0x00, 0x00, 0x00, 0x30, 0x00, 0x00, 0x30, 0x30, 0x00, 0x30, 0x30, 0x00, 0x00
001c60 0000
001c61 0000
001c62 0000
001c63 3000
001c64 0030
001c65 0030
001c66 0030
001c67 0030                      .db  0x00, 0x00, 0x00, 0x00, 0x00, 0x00, 0x00, 0x30, 0x30, 0x00, 0x30, 0x00, 0x30, 0x00, 0x30, 0x00
001c68 0030
001c69 3000
001c6a 0000
001c6b 3000
001c6c 0000
001c6d ff00
001c6e 0000
001c6f ffff                      .db  0x30, 0x00, 0x00, 0x30, 0x00, 0x00, 0x00, 0x30, 0x00, 0x00, 0x00, 0xFF, 0x00, 0x00, 0xFF, 0xFF
001c70 0000
001c71 0000
001c72 00fc
001c73 0000
001c74 c0f0
001c75 f0c0
001c76 0c00
001c77 f0f0                      .db  0x00, 0x00, 0x00, 0x00, 0xFC, 0x00, 0x00, 0x00, 0xF0, 0xC0, 0xC0, 0xF0, 0x00, 0x0C, 0xF0, 0xF0
001c78 0000
001c79 c000
001c7a 00f0
001c7b 00c0
001c7c 0000
001c7d ff00
001c7e 00c0
001c7f 0000                      .db  0x00, 0x00, 0x00, 0xC0, 0xF0, 0x00, 0xC0, 0x00, 0x00, 0x00, 0x00, 0xFF, 0xC0, 0x00, 0x00, 0x00
                                 
                                 ; Character line 1:
                                 ;     0     1     2     3     4     5     6     7     8     9    10    11    12    13    14    15
001c80 0300
001c81 fcff
001c82 f0c0
001c83 0000
001c84 f0ff
001c85 0f0f
001c86 030c
001c87 cf03                      .db  0x00, 0x03, 0xFF, 0xFC, 0xC0, 0xF0, 0x00, 0x00, 0xFF, 0xF0, 0x0F, 0x0F, 0x0C, 0x03, 0x03, 0xCF
001c88 fc00
001c89 30f0
001c8a 0f0c
001c8b f000
001c8c 00c0
001c8d 00c0
001c8e 3000
001c8f fc00                      .db  0x00, 0xFC, 0xF0, 0x30, 0x0C, 0x0F, 0x00, 0xF0, 0xC0, 0x00, 0xC0, 0x00, 0x00, 0x30, 0x00, 0xFC
001c90 c000
001c91 3030
001c92 0cfc
001c93 00c0
001c94 0000
001c95 0030
001c96 0000
001c97 0c00                      .db  0x00, 0xC0, 0x30, 0x30, 0xFC, 0x0C, 0xC0, 0x00, 0x00, 0x00, 0x30, 0x00, 0x00, 0x00, 0x00, 0x0C
001c98 000c
001c99 0c0c
001c9a 00c0
001c9b 0c00
001c9c 0c0c
001c9d 0000
001c9e 0000
001c9f 0cc0                      .db  0x0C, 0x00, 0x0C, 0x0C, 0xC0, 0x00, 0x00, 0x0C, 0x0C, 0x0C, 0x00, 0x00, 0x00, 0x00, 0xC0, 0x0C
001ca0 300c
001ca1 0c0c
001ca2 0c30
001ca3 0c0c
001ca4 000c
001ca5 3030
001ca6 3300
001ca7 300c                      .db  0x0C, 0x30, 0x0C, 0x0C, 0x30, 0x0C, 0x0C, 0x0C, 0x0C, 0x00, 0x30, 0x30, 0x00, 0x33, 0x0C, 0x30
001ca8 0c0c
001ca9 0c0c
001caa 0cc3
001cab 0303
001cac 0c0c
001cad 000c
001cae c000
001caf 00c0                      .db  0x0C, 0x0C, 0x0C, 0x0C, 0xC3, 0x0C, 0x03, 0x03, 0x0C, 0x0C, 0x0C, 0x00, 0x00, 0xC0, 0xC0, 0x00
001cb0 0000
001cb1 0000
001cb2 000c
001cb3 000c
001cb4 0000
001cb5 0000
001cb6 0000
001cb7 0000                      .db  0x00, 0x00, 0x00, 0x00, 0x0C, 0x00, 0x0C, 0x00, 0x00, 0x00, 0x00, 0x00, 0x00, 0x00, 0x00, 0x00
001cb8 0000
001cb9 0000
001cba 0000
001cbb 0000
001cbc 0000
001cbd 0000
001cbe c000
001cbf c0f0                      .db  0x00, 0x00, 0x00, 0x00, 0x00, 0x00, 0x00, 0x00, 0x00, 0x00, 0x00, 0x00, 0x00, 0xC0, 0xF0, 0xC0
001cc0 300c
001cc1 0c00
001cc2 0000
001cc3 0000
001cc4 000c
001cc5 0000
001cc6 000c
001cc7 c0c0                      .db  0x0C, 0x30, 0x00, 0x0C, 0x00, 0x00, 0x00, 0x00, 0x0C, 0x00, 0x00, 0x00, 0x0C, 0x00, 0xC0, 0xC0
001cc8 0000
001cc9 3030
001cca 000c
001ccb 0030
001ccc c00c
001ccd c000
001cce c030
001ccf 0cf0                      .db  0x00, 0x00, 0x30, 0x30, 0x0C, 0x00, 0x30, 0x00, 0x0C, 0xC0, 0x00, 0xC0, 0x30, 0xC0, 0xF0, 0x0C
001cd0 0000
001cd1 30c0
001cd2 f0f0
001cd3 3030
001cd4 0000
001cd5 3000
001cd6 0030
001cd7 c00c                      .db  0x00, 0x00, 0xC0, 0x30, 0xF0, 0xF0, 0x30, 0x30, 0x00, 0x00, 0x00, 0x30, 0x30, 0x00, 0x0C, 0xC0
001cd8 ccc0
001cd9 003f
001cda 0000
001cdb 0030
001cdc 3000
001cdd 0030
001cde 3030
001cdf 0000                      .db  0xC0, 0xCC, 0x3F, 0x00, 0x00, 0x00, 0x30, 0x00, 0x00, 0x30, 0x30, 0x00, 0x30, 0x30, 0x00, 0x00
001ce0 0000
001ce1 0000
001ce2 0000
001ce3 3000
001ce4 0030
001ce5 0030
001ce6 0030
001ce7 0030                      .db  0x00, 0x00, 0x00, 0x00, 0x00, 0x00, 0x00, 0x30, 0x30, 0x00, 0x30, 0x00, 0x30, 0x00, 0x30, 0x00
001ce8 0030
001ce9 3000
001cea 0000
001ceb 3000
001cec 0000
001ced ff00
001cee 0000
001cef ffff                      .db  0x30, 0x00, 0x00, 0x30, 0x00, 0x00, 0x00, 0x30, 0x00, 0x00, 0x00, 0xFF, 0x00, 0x00, 0xFF, 0xFF
001cf0 f000
001cf1 fffc
001cf2 000c
001cf3 0f30
001cf4 3000
001cf5 0030
001cf6 300c
001cf7 0c00                      .db  0x00, 0xF0, 0xFC, 0xFF, 0x0C, 0x00, 0x30, 0x0F, 0x00, 0x30, 0x30, 0x00, 0x0C, 0x30, 0x00, 0x0C
001cf8 00fc
001cf9 00c0
001cfa 000c
001cfb 0cc0
001cfc 00c0
001cfd c000
001cfe c030
001cff 0000                      .db  0xFC, 0x00, 0xC0, 0x00, 0x0C, 0x00, 0xC0, 0x0C, 0xC0, 0x00, 0x00, 0xC0, 0x30, 0xC0, 0x00, 0x00
                                 
                                 ; Character line 2:
                                 ;     0     1     2     3     4     5     6     7     8     9    10    11    12    13    14    15
001d00 3300
001d01 fccf
001d02 c0f0
001d03 c0c0
001d04 3c3f
001d05 33c3
001d06 ff0c
001d07 f0ff                      .db  0x00, 0x33, 0xCF, 0xFC, 0xF0, 0xC0, 0xC0, 0xC0, 0x3F, 0x3C, 0xC3, 0x33, 0x0C, 0xFF, 0xFF, 0xF0
001d08 fcc0
001d09 30fc
001d0a c00c
001d0b fc00
001d0c 00f0
001d0d 00f0
001d0e 3c00
001d0f fcc0                      .db  0xC0, 0xFC, 0xFC, 0x30, 0x0C, 0xC0, 0x00, 0xFC, 0xF0, 0x00, 0xF0, 0x00, 0x00, 0x3C, 0xC0, 0xFC
001d10 c000
001d11 fc30
001d12 3000
001d13 0000
001d14 c000
001d15 00c0
001d16 0000
001d17 3000                      .db  0x00, 0xC0, 0x30, 0xFC, 0x00, 0x30, 0x00, 0x00, 0x00, 0xC0, 0xC0, 0x00, 0x00, 0x00, 0x00, 0x30
001d18 003c
001d19 0c0c
001d1a f0c0
001d1b 3000
001d1c 0c0c
001d1d 0000
001d1e fc00
001d1f 0c30                      .db  0x3C, 0x00, 0x0C, 0x0C, 0xC0, 0xF0, 0x00, 0x30, 0x0C, 0x0C, 0x00, 0x00, 0x00, 0xFC, 0x30, 0x0C
001d20 0cfc
001d21 000c
001d22 c00c
001d23 00c0
001d24 000c
001d25 c030
001d26 c300
001d27 0ccc                      .db  0xFC, 0x0C, 0x0C, 0x00, 0x0C, 0xC0, 0xC0, 0x00, 0x0C, 0x00, 0x30, 0xC0, 0x00, 0xC3, 0xCC, 0x0C
001d28 0c0c
001d29 000c
001d2a 0cc0
001d2b 0303
001d2c 3030
001d2d 0030
001d2e c000
001d2f 0030                      .db  0x0C, 0x0C, 0x0C, 0x00, 0xC0, 0x0C, 0x03, 0x03, 0x30, 0x30, 0x30, 0x00, 0x00, 0xC0, 0x30, 0x00
001d30 f0c0
001d31 f000
001d32 f00c
001d33 f300
001d34 00f0
001d35 303c
001d36 3c00
001d37 f0f0                      .db  0xC0, 0xF0, 0x00, 0xF0, 0x0C, 0xF0, 0x00, 0xF3, 0xF0, 0x00, 0x3C, 0x30, 0x00, 0x3C, 0xF0, 0xF0
001d38 3cf0
001d39 fcf0
001d3a 0cf0
001d3b 0303
001d3c 0c30
001d3d 00f0
001d3e c000
001d3f 3000                      .db  0xF0, 0x3C, 0xF0, 0xFC, 0xF0, 0x0C, 0x03, 0x03, 0x30, 0x0C, 0xF0, 0x00, 0x00, 0xC0, 0x00, 0x30
001d40 0000
001d41 c0f0
001d42 c0c0
001d43 f0c0
001d44 f0f0
001d45 c0f0
001d46 c000
001d47 0030                      .db  0x00, 0x00, 0xF0, 0xC0, 0xC0, 0xC0, 0xC0, 0xF0, 0xF0, 0xF0, 0xF0, 0xC0, 0x00, 0xC0, 0x30, 0x00
001d48 0ff0
001d49 0030
001d4a 0000
001d4b 0000
001d4c 3000
001d4d fc0c
001d4e f000
001d4f 00c0                      .db  0xF0, 0x0F, 0x30, 0x00, 0x00, 0x00, 0x00, 0x00, 0x00, 0x30, 0x0C, 0xFC, 0x00, 0xF0, 0xC0, 0x00
001d50 c0c0
001d51 c000
001d52 0000
001d53 3030
001d54 0000
001d55 c000
001d56 00cc
001d57 3030                      .db  0xC0, 0xC0, 0x00, 0xC0, 0x00, 0x00, 0x30, 0x30, 0x00, 0x00, 0x00, 0xC0, 0xCC, 0x00, 0x30, 0x30
001d58 330c
001d59 00cf
001d5a 0000
001d5b 0030
001d5c 3000
001d5d f030
001d5e 3030
001d5f 0000                      .db  0x0C, 0x33, 0xCF, 0x00, 0x00, 0x00, 0x30, 0x00, 0x00, 0x30, 0x30, 0xF0, 0x30, 0x30, 0x00, 0x00
001d60 0000
001d61 0000
001d62 0000
001d63 30ff
001d64 ff3f
001d65 ff3f
001d66 ff3f
001d67 ff3f                      .db  0x00, 0x00, 0x00, 0x00, 0x00, 0x00, 0xFF, 0x30, 0x3F, 0xFF, 0x3F, 0xFF, 0x3F, 0xFF, 0x3F, 0xFF
001d68 ff30
001d69 3000
001d6a ffff
001d6b 3000
001d6c 00ff
001d6d ff00
001d6e 0000
001d6f ffff                      .db  0x30, 0xFF, 0x00, 0x30, 0xFF, 0xFF, 0x00, 0x30, 0xFF, 0x00, 0x00, 0xFF, 0x00, 0x00, 0xFF, 0xFF
001d70 0c03
001d71 300c
001d72 fc00
001d73 f030
001d74 0cc0
001d75 c00c
001d76 f033
001d77 0c00                      .db  0x03, 0x0C, 0x0C, 0x30, 0x00, 0xFC, 0x30, 0xF0, 0xC0, 0x0C, 0x0C, 0xC0, 0x33, 0xF0, 0x00, 0x0C
001d78 f000
001d79 0030
001d7a 000c
001d7b f000
001d7c 00c0
001d7d c000
001d7e 0030
001d7f 00f0                      .db  0x00, 0xF0, 0x30, 0x00, 0x0C, 0x00, 0x00, 0xF0, 0xC0, 0x00, 0x00, 0xC0, 0x30, 0x00, 0xF0, 0x00
                                 
                                 ; Character line 3:
                                 ;     0     1     2     3     4     5     6     7     8     9    10    11    12    13    14    15
001d80 0300
001d81 fcff
001d82 fcfc
001d83 f0f0
001d84 0c0f
001d85 f3f3
001d86 000c
001d87 3f03                      .db  0x00, 0x03, 0xFF, 0xFC, 0xFC, 0xFC, 0xF0, 0xF0, 0x0F, 0x0C, 0xF3, 0xF3, 0x0C, 0x00, 0x03, 0x3F
001d88 fcfc
001d89 30c0
001d8a 300c
001d8b c000
001d8c 3030
001d8d fcfc
001d8e ff00
001d8f f0f0                      .db  0xFC, 0xFC, 0xC0, 0x30, 0x0C, 0x30, 0x00, 0xC0, 0x30, 0x30, 0xFC, 0xFC, 0x00, 0xFF, 0xF0, 0xF0
001d90 0000
001d91 3000
001d92 c0f0
001d93 003c
001d94 c000
001d95 f0fc
001d96 fc00
001d97 c000                      .db  0x00, 0x00, 0x00, 0x30, 0xF0, 0xC0, 0x3C, 0x00, 0x00, 0xC0, 0xFC, 0xF0, 0x00, 0xFC, 0x00, 0xC0
001d98 00cc
001d99 f0f0
001d9a 0cc0
001d9b c0f0
001d9c fcf0
001d9d 0000
001d9e 0000
001d9f 300c                      .db  0xCC, 0x00, 0xF0, 0xF0, 0xC0, 0x0C, 0xF0, 0xC0, 0xF0, 0xFC, 0x00, 0x00, 0x00, 0x00, 0x0C, 0x30
001da0 0c0c
001da1 00f0
001da2 c00c
001da3 00c0
001da4 00fc
001da5 0030
001da6 0300
001da7 0c3c                      .db  0x0C, 0x0C, 0xF0, 0x00, 0x0C, 0xC0, 0xC0, 0x00, 0xFC, 0x00, 0x30, 0x00, 0x00, 0x03, 0x3C, 0x0C
001da8 0cf0
001da9 f0f0
001daa 0cc0
001dab c303
001dac c0c0
001dad 00c0
001dae c000
001daf 000c                      .db  0xF0, 0x0C, 0xF0, 0xF0, 0xC0, 0x0C, 0x03, 0xC3, 0xC0, 0xC0, 0xC0, 0x00, 0x00, 0xC0, 0x0C, 0x00
001db0 0c00
001db1 0cfc
001db2 0ccc
001db3 0cc0
001db4 000c
001db5 c00c
001db6 c300
001db7 0c0c                      .db  0x00, 0x0C, 0xFC, 0x0C, 0xCC, 0x0C, 0xC0, 0x0C, 0x0C, 0x00, 0x0C, 0xC0, 0x00, 0xC3, 0x0C, 0x0C
001db8 f00c
001db9 000c
001dba 0c00
001dbb c303
001dbc 0cc0
001dbd 00c0
001dbe 3c00
001dbf 0c00                      .db  0x0C, 0xF0, 0x0C, 0x00, 0x00, 0x0C, 0x03, 0xC3, 0xC0, 0x0C, 0xC0, 0x00, 0x00, 0x3C, 0x00, 0x0C
001dc0 300c
001dc1 300c
001dc2 3030
001dc3 0030
001dc4 0c0c
001dc5 c00c
001dc6 c000
001dc7 f00c                      .db  0x0C, 0x30, 0x0C, 0x30, 0x30, 0x30, 0x30, 0x00, 0x0C, 0x0C, 0x0C, 0xC0, 0x00, 0xC0, 0x0C, 0xF0
001dc8 f000
001dc9 f0ff
001dca f0f0
001dcb 0c0c
001dcc 0c0c
001dcd 000c
001dce 0000
001dcf f030                      .db  0x00, 0xF0, 0xFF, 0xF0, 0xF0, 0xF0, 0x0C, 0x0C, 0x0C, 0x0C, 0x0C, 0x00, 0x00, 0x00, 0x30, 0xF0
001dd0 c030
001dd1 0cf0
001dd2 0cf0
001dd3 c0fc
001dd4 fc00
001dd5 3cfc
001dd6 003c
001dd7 0cc0                      .db  0x30, 0xC0, 0xF0, 0x0C, 0xF0, 0x0C, 0xFC, 0xC0, 0x00, 0xFC, 0xFC, 0x3C, 0x3C, 0x00, 0xC0, 0x0C
001dd8 ccc0
001dd9 00fc
001dda 0000
001ddb 0030
001ddc 3000
001ddd 3030
001dde 3030
001ddf 0000                      .db  0xC0, 0xCC, 0xFC, 0x00, 0x00, 0x00, 0x30, 0x00, 0x00, 0x30, 0x30, 0x30, 0x30, 0x30, 0x00, 0x00
001de0 0000
001de1 0000
001de2 0000
001de3 3000
001de4 0000
001de5 0000
001de6 0000
001de7 0000                      .db  0x00, 0x00, 0x00, 0x00, 0x00, 0x00, 0x00, 0x30, 0x00, 0x00, 0x00, 0x00, 0x00, 0x00, 0x00, 0x00
001de8 0030
001de9 3000
001dea 0000
001deb 3000
001dec 0000
001ded ff00
001dee 0000
001def ffff                      .db  0x30, 0x00, 0x00, 0x30, 0x00, 0x00, 0x00, 0x30, 0x00, 0x00, 0x00, 0xFF, 0x00, 0x00, 0xFF, 0xFF
001df0 f0cc
001df1 3000
001df2 c0c0
001df3 c030
001df4 fc30
001df5 f00c
001df6 ccc3
001df7 0cf0                      .db  0xCC, 0xF0, 0x00, 0x30, 0xC0, 0xC0, 0x30, 0xC0, 0x30, 0xFC, 0x0C, 0xF0, 0xC3, 0xCC, 0xF0, 0x0C
001df8 00fc
001df9 00c0
001dfa 0000
001dfb 00fc
001dfc c000
001dfd c000
001dfe 0030
001dff 00f0                      .db  0xFC, 0x00, 0xC0, 0x00, 0x00, 0x00, 0xFC, 0x00, 0x00, 0xC0, 0x00, 0xC0, 0x30, 0x00, 0xF0, 0x00
                                 
                                 ; Character line 4:
                                 ;     0     1     2     3     4     5     6     7     8     9    10    11    12    13    14    15
001e00 f300
001e01 f00f
001e02 fcf0
001e03 f0fc
001e04 0c0f
001e05 30f3
001e06 00f0
001e07 3f0f                      .db  0x00, 0xF3, 0x0F, 0xF0, 0xF0, 0xFC, 0xFC, 0xF0, 0x0F, 0x0C, 0xF3, 0x30, 0xF0, 0x00, 0x0F, 0x3F
001e08 fcc0
001e09 30c0
001e0a 300c
001e0b fcfc
001e0c f000
001e0d 00f0
001e0e 3c00
001e0f c0fc                      .db  0xC0, 0xFC, 0xC0, 0x30, 0x0C, 0x30, 0xFC, 0xFC, 0x00, 0xF0, 0xF0, 0x00, 0x00, 0x3C, 0xFC, 0xC0
001e10 0000
001e11 fc00
001e12 000c
001e13 00c0
001e14 c000
001e15 00c0
001e16 0000
001e17 0000                      .db  0x00, 0x00, 0x00, 0xFC, 0x0C, 0x00, 0xC0, 0x00, 0x00, 0xC0, 0xC0, 0x00, 0x00, 0x00, 0x00, 0x00
001e18 000c
001e19 0c00
001e1a 0cfc
001e1b 000c
001e1c 0c0c
001e1d 0000
001e1e 0000
001e1f c030                      .db  0x0C, 0x00, 0x00, 0x0C, 0xFC, 0x0C, 0x0C, 0x00, 0x0C, 0x0C, 0x00, 0x00, 0x00, 0x00, 0x30, 0xC0
001e20 fcfc
001e21 000c
001e22 c00c
001e23 fcc0
001e24 000c
001e25 c030
001e26 0300
001e27 0c0c                      .db  0xFC, 0xFC, 0x0C, 0x00, 0x0C, 0xC0, 0xC0, 0xFC, 0x0C, 0x00, 0x30, 0xC0, 0x00, 0x03, 0x0C, 0x0C
001e28 cc00
001e29 0cc0
001e2a 0cc0
001e2b c30c
001e2c c030
001e2d 0000
001e2e c0c0
001e2f 0000                      .db  0x00, 0xCC, 0xC0, 0x0C, 0xC0, 0x0C, 0x0C, 0xC3, 0x30, 0xC0, 0x00, 0x00, 0xC0, 0xC0, 0x00, 0x00
001e30 fc00
001e31 0003
001e32 fc3c
001e33 0c00
001e34 000c
001e35 000c
001e36 c300
001e37 0c0c                      .db  0x00, 0xFC, 0x03, 0x00, 0x3C, 0xFC, 0x00, 0x0C, 0x0C, 0x00, 0x0C, 0x00, 0x00, 0xC3, 0x0C, 0x0C
001e38 f00c
001e39 f00c
001e3a 0c00
001e3b c30c
001e3c 0c00
001e3d 0000
001e3e c000
001e3f 0300                      .db  0x0C, 0xF0, 0x0C, 0xF0, 0x00, 0x0C, 0x0C, 0xC3, 0x00, 0x0C, 0x00, 0x00, 0x00, 0xC0, 0x00, 0x03
001e40 30f0
001e41 f0fc
001e42 f0f0
001e43 00f0
001e44 fcfc
001e45 c0fc
001e46 c000
001e47 0cfc                      .db  0xF0, 0x30, 0xFC, 0xF0, 0xF0, 0xF0, 0xF0, 0x00, 0xFC, 0xFC, 0xFC, 0xC0, 0x00, 0xC0, 0xFC, 0x0C
001e48 ffc0
001e49 0c30
001e4a 0c0c
001e4b 0c0c
001e4c 0c0c
001e4d 000c
001e4e f000
001e4f 00ff                      .db  0xC0, 0xFF, 0x30, 0x0C, 0x0C, 0x0C, 0x0C, 0x0C, 0x0C, 0x0C, 0x0C, 0x00, 0x00, 0xF0, 0xFF, 0x00
001e50 c0f0
001e51 0c0c
001e52 0c0c
001e53 0000
001e54 0000
001e55 c30c
001e56 00cc
001e57 3030                      .db  0xF0, 0xC0, 0x0C, 0x0C, 0x0C, 0x0C, 0x00, 0x00, 0x00, 0x00, 0x0C, 0xC3, 0xCC, 0x00, 0x30, 0x30
001e58 330c
001e59 00cf
001e5a 0000
001e5b f030
001e5c 3000
001e5d 3030
001e5e f0f0
001e5f 0000                      .db  0x0C, 0x33, 0xCF, 0x00, 0x00, 0x00, 0x30, 0xF0, 0x00, 0x30, 0x30, 0x30, 0xF0, 0xF0, 0x00, 0x00
001e60 ffff
001e61 ffff
001e62 ffff
001e63 3fff
001e64 3fff
001e65 3fff
001e66 ff3f
001e67 ff3f                      .db  0xFF, 0xFF, 0xFF, 0xFF, 0xFF, 0xFF, 0xFF, 0x3F, 0xFF, 0x3F, 0xFF, 0x3F, 0x3F, 0xFF, 0x3F, 0xFF
001e68 ffff
001e69 ffff
001e6a ffff
001e6b ffff
001e6c 00ff
001e6d ffff
001e6e 00ff
001e6f 00ff                      .db  0xFF, 0xFF, 0xFF, 0xFF, 0xFF, 0xFF, 0xFF, 0xFF, 0xFF, 0x00, 0xFF, 0xFF, 0xFF, 0x00, 0xFF, 0x00
001e70 0c30
001e71 3000
001e72 c000
001e73 c0cc
001e74 0c30
001e75 0c30
001e76 0c33
001e77 0c00                      .db  0x30, 0x0C, 0x00, 0x30, 0x00, 0xC0, 0xCC, 0xC0, 0x30, 0x0C, 0x30, 0x0C, 0x33, 0x0C, 0x00, 0x0C
001e78 0000
001e79 c000
001e7a 0000
001e7b 0c00
001e7c c000
001e7d c0c0
001e7e c030
001e7f 00f0                      .db  0x00, 0x00, 0x00, 0xC0, 0x00, 0x00, 0x00, 0x0C, 0x00, 0xC0, 0xC0, 0xC0, 0x30, 0xC0, 0xF0, 0x00
                                 
                                 ; Character line 5:
                                 ;     0     1     2     3     4     5     6     7     8     9    10    11    12    13    14    15
001e80 c300
001e81 c03f
001e82 3cc0
001e83 c0f0
001e84 3c3f
001e85 30c3
001e86 00c0
001e87 f03f                      .db  0x00, 0xC3, 0x3F, 0xC0, 0xC0, 0x3C, 0xF0, 0xC0, 0x3F, 0x3C, 0xC3, 0x30, 0xC0, 0x00, 0x3F, 0xF0
001e88 fc00
001e89 00fc
001e8a c00c
001e8b f0fc
001e8c c000
001e8d 00c0
001e8e 30fc
001e8f 00fc                      .db  0x00, 0xFC, 0xFC, 0x00, 0x0C, 0xC0, 0xFC, 0xF0, 0x00, 0xC0, 0xC0, 0x00, 0xFC, 0x30, 0xFC, 0x00
001e90 0000
001e91 3000
001e92 3cf0
001e93 00c0
001e94 0000
001e95 0030
001e96 0000
001e97 0000                      .db  0x00, 0x00, 0x00, 0x30, 0xF0, 0x3C, 0xC0, 0x00, 0x00, 0x00, 0x30, 0x00, 0x00, 0x00, 0x00, 0x00
001e98 000c
001e99 0c0c
001e9a 0cc0
001e9b 000c
001e9c 300c
001e9d 0000
001e9e fc00
001e9f 00c0                      .db  0x0C, 0x00, 0x0C, 0x0C, 0xC0, 0x0C, 0x0C, 0x00, 0x0C, 0x30, 0x00, 0x00, 0x00, 0xFC, 0xC0, 0x00
001ea0 0c00
001ea1 0c0c
001ea2 0c30
001ea3 0c00
001ea4 000c
001ea5 3030
001ea6 030c
001ea7 300c                      .db  0x00, 0x0C, 0x0C, 0x0C, 0x30, 0x0C, 0x00, 0x0C, 0x0C, 0x00, 0x30, 0x30, 0x0C, 0x03, 0x0C, 0x30
001ea8 f000
001ea9 0c30
001eaa 0cc0
001eab c330
001eac c00c
001ead 0003
001eae c030
001eaf 0000                      .db  0x00, 0xF0, 0x30, 0x0C, 0xC0, 0x0C, 0x30, 0xC3, 0x0C, 0xC0, 0x03, 0x00, 0x30, 0xC0, 0x00, 0x00
001eb0 0c00
001eb1 0c03
001eb2 003c
001eb3 fc00
001eb4 000c
001eb5 c00c
001eb6 c300
001eb7 0c0c                      .db  0x00, 0x0C, 0x03, 0x0C, 0x3C, 0x00, 0x00, 0xFC, 0x0C, 0x00, 0x0C, 0xC0, 0x00, 0xC3, 0x0C, 0x0C
001eb8 30f0
001eb9 0c00
001eba 3c0c
001ebb c330
001ebc fcc0
001ebd 0000
001ebe c000
001ebf 0300                      .db  0xF0, 0x30, 0x00, 0x0C, 0x0C, 0x3C, 0x30, 0xC3, 0xC0, 0xFC, 0x00, 0x00, 0x00, 0xC0, 0x00, 0x03
001ec0 30f0
001ec1 3000
001ec2 3030
001ec3 f030
001ec4 0000
001ec5 c000
001ec6 c000
001ec7 fc0c                      .db  0xF0, 0x30, 0x00, 0x30, 0x30, 0x30, 0x30, 0xF0, 0x00, 0x00, 0x00, 0xC0, 0x00, 0xC0, 0x0C, 0xFC
001ec8 3000
001ec9 0c30
001eca 0c0c
001ecb 0c0c
001ecc 30fc
001ecd fc0c
001ece 000c
001ecf 0030                      .db  0x00, 0x30, 0x30, 0x0C, 0x0C, 0x0C, 0x0C, 0x0C, 0xFC, 0x30, 0x0C, 0xFC, 0x0C, 0x00, 0x30, 0x00
001ed0 c030
001ed1 0c0c
001ed2 cc0c
001ed3 f0fc
001ed4 000c
001ed5 0f0c
001ed6 00ff
001ed7 c00c                      .db  0x30, 0xC0, 0x0C, 0x0C, 0x0C, 0xCC, 0xFC, 0xF0, 0x0C, 0x00, 0x0C, 0x0F, 0xFF, 0x00, 0x0C, 0xC0
001ed8 ccc0
001ed9 003f
001eda 0000
001edb 3030
001edc 3000
001edd 3030
001ede 0000
001edf 0000                      .db  0xC0, 0xCC, 0x3F, 0x00, 0x00, 0x00, 0x30, 0x30, 0x00, 0x30, 0x30, 0x30, 0x00, 0x00, 0x00, 0x00
001ee0 0000
001ee1 0000
001ee2 0000
001ee3 3000
001ee4 3000
001ee5 3000
001ee6 0030
001ee7 0030                      .db  0x00, 0x00, 0x00, 0x00, 0x00, 0x00, 0x00, 0x30, 0x00, 0x30, 0x00, 0x30, 0x30, 0x00, 0x30, 0x00
001ee8 0000
001ee9 0030
001eea 0000
001eeb 3030
001eec 0000
001eed ff00
001eee 00ff
001eef 00ff                      .db  0x00, 0x00, 0x30, 0x00, 0x00, 0x00, 0x30, 0x30, 0x00, 0x00, 0x00, 0xFF, 0xFF, 0x00, 0xFF, 0x00
001ef0 f0cc
001ef1 3000
001ef2 c00c
001ef3 c000
001ef4 30c0
001ef5 0c30
001ef6 f00c
001ef7 0c00                      .db  0xCC, 0xF0, 0x00, 0x30, 0x0C, 0xC0, 0x00, 0xC0, 0xC0, 0x30, 0x30, 0x0C, 0x0C, 0xF0, 0x00, 0x0C
001ef8 00fc
001ef9 0000
001efa 0000
001efb f0c0
001efc 0000
001efd c000
001efe 0000
001eff 00f0                      .db  0xFC, 0x00, 0x00, 0x00, 0x00, 0x00, 0xC0, 0xF0, 0x00, 0x00, 0x00, 0xC0, 0x00, 0x00, 0xF0, 0x00
                                 
                                 ; Character line 6:
                                 ;     0     1     2     3     4     5     6     7     8     9    10    11    12    13    14    15
001f00 0300
001f01 00ff
001f02 0000
001f03 0000
001f04 f0ff
001f05 300f
001f06 00fc
001f07 cf3c                      .db  0x00, 0x03, 0xFF, 0x00, 0x00, 0x00, 0x00, 0x00, 0xFF, 0xF0, 0x0F, 0x30, 0xFC, 0x00, 0x3C, 0xCF
001f08 0c00
001f09 30f0
001f0a f00c
001f0b c0fc
001f0c 0000
001f0d 0000
001f0e 0000
001f0f 0000                      .db  0x00, 0x0C, 0xF0, 0x30, 0x0C, 0xF0, 0xFC, 0xC0, 0x00, 0x00, 0x00, 0x00, 0x00, 0x00, 0x00, 0x00
001f10 0000
001f11 3000
001f12 3cc0
001f13 003c
001f14 0000
001f15 0000
001f16 0000
001f17 0000                      .db  0x00, 0x00, 0x00, 0x30, 0xC0, 0x3C, 0x3C, 0x00, 0x00, 0x00, 0x00, 0x00, 0x00, 0x00, 0x00, 0x00
001f18 f0f0
001f19 f0fc
001f1a f0f0
001f1b 00f0
001f1c c0f0
001f1d 0000
001f1e 00c0
001f1f c000                      .db  0xF0, 0xF0, 0xFC, 0xF0, 0xF0, 0xF0, 0xF0, 0x00, 0xF0, 0xC0, 0x00, 0x00, 0xC0, 0x00, 0x00, 0xC0
001f20 0cf0
001f21 f0f0
001f22 fcc0
001f23 fc00
001f24 c00c
001f25 0fc0
001f26 03fc
001f27 c00c                      .db  0xF0, 0x0C, 0xF0, 0xF0, 0xC0, 0xFC, 0x00, 0xFC, 0x0C, 0xC0, 0xC0, 0x0F, 0xFC, 0x03, 0x0C, 0xC0
001f28 0f00
001f29 f00c
001f2a f0f0
001f2b 3cc0
001f2c f003
001f2d c0ff
001f2e c00c
001f2f 0000                      .db  0x00, 0x0F, 0x0C, 0xF0, 0xF0, 0xF0, 0xC0, 0x3C, 0x03, 0xF0, 0xFF, 0xC0, 0x0C, 0xC0, 0x00, 0x00
001f30 ff00
001f31 f0fc
001f32 f0cf
001f33 0cc0
001f34 c00c
001f35 3c0c
001f36 c3c0
001f37 f00c                      .db  0x00, 0xFF, 0xFC, 0xF0, 0xCF, 0xF0, 0xC0, 0x0C, 0x0C, 0xC0, 0x0C, 0x3C, 0xC0, 0xC3, 0x0C, 0xF0
001f38 3000
001f39 f000
001f3a ccf0
001f3b 3cc0
001f3c 0c30
001f3d f0f0
001f3e 0000
001f3f ff00                      .db  0x00, 0x30, 0x00, 0xF0, 0xF0, 0xCC, 0xC0, 0x3C, 0x30, 0x0C, 0xF0, 0xF0, 0x00, 0x00, 0x00, 0xFF
001f40 fc0c
001f41 fcf0
001f42 fcfc
001f43 3cfc
001f44 f0f0
001f45 f0f0
001f46 f0c0
001f47 0c0c                      .db  0x0C, 0xFC, 0xF0, 0xFC, 0xFC, 0xFC, 0xFC, 0x3C, 0xF0, 0xF0, 0xF0, 0xF0, 0xC0, 0xF0, 0x0C, 0x0C
001f48 cff0
001f49 f03f
001f4a f0f0
001f4b f0f0
001f4c c00c
001f4d c0f0
001f4e 00f0
001f4f 0033                      .db  0xF0, 0xCF, 0x3F, 0xF0, 0xF0, 0xF0, 0xF0, 0xF0, 0x0C, 0xC0, 0xF0, 0xC0, 0xF0, 0x00, 0x33, 0x00
001f50 f0fc
001f51 f0f0
001f52 3c0c
001f53 0000
001f54 00f0
001f55 f000
001f56 000c
001f57 0000                      .db  0xFC, 0xF0, 0xF0, 0xF0, 0x0C, 0x3C, 0x00, 0x00, 0xF0, 0x00, 0x00, 0xF0, 0x0C, 0x00, 0x00, 0x00
001f58 330c
001f59 00cf
001f5a 0000
001f5b 3030
001f5c 3000
001f5d 3030
001f5e 0000
001f5f 0000                      .db  0x0C, 0x33, 0xCF, 0x00, 0x00, 0x00, 0x30, 0x30, 0x00, 0x30, 0x30, 0x30, 0x00, 0x00, 0x00, 0x00
001f60 0000
001f61 0000
001f62 0000
001f63 3000
001f64 3000
001f65 3000
001f66 0030
001f67 0030                      .db  0x00, 0x00, 0x00, 0x00, 0x00, 0x00, 0x00, 0x30, 0x00, 0x30, 0x00, 0x30, 0x30, 0x00, 0x30, 0x00
001f68 0000
001f69 0030
001f6a 0000
001f6b 3030
001f6c 0000
001f6d ff00
001f6e 00ff
001f6f 00ff                      .db  0x00, 0x00, 0x30, 0x00, 0x00, 0x00, 0x30, 0x30, 0x00, 0x00, 0x00, 0xFF, 0xFF, 0x00, 0xFF, 0x00
001f70 0003
001f71 3000
001f72 00fc
001f73 c000
001f74 c000
001f75 f03c
001f76 0000
001f77 0cf0                      .db  0x03, 0x00, 0x00, 0x30, 0xFC, 0x00, 0x00, 0xC0, 0x00, 0xC0, 0x3C, 0xF0, 0x00, 0x00, 0xF0, 0x0C
001f78 f000
001f79 fcfc
001f7a 0000
001f7b 00c0
001f7c 0000
001f7d c000
001f7e 0000
001f7f 0000                      .db  0x00, 0xF0, 0xFC, 0xFC, 0x00, 0x00, 0xC0, 0x00, 0x00, 0x00, 0x00, 0xC0, 0x00, 0x00, 0x00, 0x00
                                 
                                 ; Character line 7:
                                 ;     0     1     2     3     4     5     6     7     8     9    10    11    12    13    14    15
001f80 fc00
001f81 00fc
001f82 c000
001f83 00c0
001f84 00ff
001f85 c0ff
001f86 00c0
001f87 c000                      .db  0x00, 0xFC, 0xFC, 0x00, 0x00, 0xC0, 0xC0, 0x00, 0xFF, 0x00, 0xFF, 0xC0, 0xC0, 0x00, 0x00, 0xC0
001f88 0000
001f89 00c0
001f8a c000
001f8b ff00
001f8c 0000
001f8d 0000
001f8e 0000
001f8f 0000                      .db  0x00, 0x00, 0xC0, 0x00, 0x00, 0xC0, 0x00, 0xFF, 0x00, 0x00, 0x00, 0x00, 0x00, 0x00, 0x00, 0x00
001f90 0000
001f91 0000
001f92 0000
001f93 0000
001f94 0000
001f95 0000
001f96 0000
001f97 0000                      .db  0x00, 0x00, 0x00, 0x00, 0x00, 0x00, 0x00, 0x00, 0x00, 0x00, 0x00, 0x00, 0x00, 0x00, 0x00, 0x00
001f98 0000
001f99 0000
001f9a 0000
001f9b 0000
001f9c 0000
001f9d 0000
001f9e 0000
001f9f 0000                      .db  0x00, 0x00, 0x00, 0x00, 0x00, 0x00, 0x00, 0x00, 0x00, 0x00, 0x00, 0x00, 0x00, 0x00, 0x00, 0x00
001fa0 0000
001fa1 0000
001fa2 0000
001fa3 0000
001fa4 0000
001fa5 0000
001fa6 0000
001fa7 0000                      .db  0x00, 0x00, 0x00, 0x00, 0x00, 0x00, 0x00, 0x00, 0x00, 0x00, 0x00, 0x00, 0x00, 0x00, 0x00, 0x00
001fa8 0000
001fa9 0000
001faa 0000
001fab 0000
001fac 0000
001fad 0000
001fae 0000
001faf ff00                      .db  0x00, 0x00, 0x00, 0x00, 0x00, 0x00, 0x00, 0x00, 0x00, 0x00, 0x00, 0x00, 0x00, 0x00, 0x00, 0xFF
001fb0 0000
001fb1 0000
001fb2 0000
001fb3 f000
001fb4 0000
001fb5 00f0
001fb6 0000
001fb7 0000                      .db  0x00, 0x00, 0x00, 0x00, 0x00, 0x00, 0x00, 0xF0, 0x00, 0x00, 0xF0, 0x00, 0x00, 0x00, 0x00, 0x00
001fb8 fc00
001fb9 0000
001fba 0000
001fbb 0000
001fbc f000
001fbd 0000
001fbe 0000
001fbf 0000                      .db  0x00, 0xFC, 0x00, 0x00, 0x00, 0x00, 0x00, 0x00, 0x00, 0xF0, 0x00, 0x00, 0x00, 0x00, 0x00, 0x00
001fc0 00f0
001fc1 0000
001fc2 0000
001fc3 f000
001fc4 0000
001fc5 0000
001fc6 0000
001fc7 0000                      .db  0xF0, 0x00, 0x00, 0x00, 0x00, 0x00, 0x00, 0xF0, 0x00, 0x00, 0x00, 0x00, 0x00, 0x00, 0x00, 0x00
001fc8 0000
001fc9 0000
001fca 0000
001fcb 0000
001fcc 00f0
001fcd c000
001fce 0000
001fcf 003c                      .db  0x00, 0x00, 0x00, 0x00, 0x00, 0x00, 0x00, 0x00, 0xF0, 0x00, 0x00, 0xC0, 0x00, 0x00, 0x3C, 0x00
001fd0 0000
001fd1 0000
001fd2 0000
001fd3 0000
001fd4 0000
001fd5 ff00
001fd6 000c
001fd7 0000                      .db  0x00, 0x00, 0x00, 0x00, 0x00, 0x00, 0x00, 0x00, 0x00, 0x00, 0x00, 0xFF, 0x0C, 0x00, 0x00, 0x00
001fd8 ccc0
001fd9 00fc
001fda 0000
001fdb 3030
001fdc 3000
001fdd 3030
001fde 0000
001fdf 0000                      .db  0xC0, 0xCC, 0xFC, 0x00, 0x00, 0x00, 0x30, 0x30, 0x00, 0x30, 0x30, 0x30, 0x00, 0x00, 0x00, 0x00
001fe0 0000
001fe1 0000
001fe2 0000
001fe3 3000
001fe4 3000
001fe5 3000
001fe6 0030
001fe7 0030                      .db  0x00, 0x00, 0x00, 0x00, 0x00, 0x00, 0x00, 0x30, 0x00, 0x30, 0x00, 0x30, 0x30, 0x00, 0x30, 0x00
001fe8 0000
001fe9 0030
001fea 0000
001feb 3030
001fec 0000
001fed ff00
001fee 00ff
001fef 00ff                      .db  0x00, 0x00, 0x30, 0x00, 0x00, 0x00, 0x30, 0x30, 0x00, 0x00, 0x00, 0xFF, 0xFF, 0x00, 0xFF, 0x00
001ff0 0000
001ff1 0000
001ff2 0000
001ff3 0000
001ff4 00f0
001ff5 0000
001ff6 0000
001ff7 0000                      .db  0x00, 0x00, 0x00, 0x00, 0x00, 0x00, 0x00, 0x00, 0xF0, 0x00, 0x00, 0x00, 0x00, 0x00, 0x00, 0x00
001ff8 0000
001ff9 0000
001ffa 0000
001ffb 0000
001ffc 0000
001ffd c000
001ffe 0000
001fff 0000                      .db  0x00, 0x00, 0x00, 0x00, 0x00, 0x00, 0x00, 0x00, 0x00, 0x00, 0x00, 0xC0, 0x00, 0x00, 0x00, 0x00
                                 .include "CGABoldfont.inc"
                                 
                                 ; COMPLETE CGA BOLD FONT
                                 ;
                                 ; Extracted by Grant Searle 2013
                                 ;******************************************************
                                 
                                 .CSEG
                                 .ORG 0x2000
                                 
                                 ; Character line 0:
                                 ;     0     1     2     3     4     5     6     7     8     9    10    11    12    13    14    15
002000 7e00
002001 6c7e
002002 3810
002003 0010
002004 00ff
002005 0fff
002006 3f3c
002007 187f                      .db  0x00, 0x7E, 0x7E, 0x6C, 0x10, 0x38, 0x10, 0x00, 0xFF, 0x00, 0xFF, 0x0F, 0x3C, 0x3F, 0x7F, 0x18
002008 0280
002009 6618
00200a 3e7f
00200b 1800
00200c 1818
00200d 0000
00200e 0000
00200f 0000                      .db  0x80, 0x02, 0x18, 0x66, 0x7F, 0x3E, 0x00, 0x18, 0x18, 0x18, 0x00, 0x00, 0x00, 0x00, 0x00, 0x00
002010 3000
002011 6c6c
002012 0030
002013 6038
002014 6018
002015 0000
002016 0000
002017 0600                      .db  0x00, 0x30, 0x6C, 0x6C, 0x30, 0x00, 0x38, 0x60, 0x18, 0x60, 0x00, 0x00, 0x00, 0x00, 0x00, 0x06
002018 307c
002019 7878
00201a fc1c
00201b fc38
00201c 7878
00201d 0000
00201e 0018
00201f 7860                      .db  0x7C, 0x30, 0x78, 0x78, 0x1C, 0xFC, 0x38, 0xFC, 0x78, 0x78, 0x00, 0x00, 0x18, 0x00, 0x60, 0x78
002020 307c
002021 3cfc
002022 fef8
002023 3cfe
002024 78cc
002025 e61e
002026 c6f0
002027 38c6                      .db  0x7C, 0x30, 0xFC, 0x3C, 0xF8, 0xFE, 0xFE, 0x3C, 0xCC, 0x78, 0x1E, 0xE6, 0xF0, 0xC6, 0xC6, 0x38
002028 78fc
002029 78fc
00202a ccfc
00202b c6cc
00202c ccc6
00202d 78fe
00202e 78c0
00202f 0010                      .db  0xFC, 0x78, 0xFC, 0x78, 0xFC, 0xCC, 0xCC, 0xC6, 0xC6, 0xCC, 0xFE, 0x78, 0xC0, 0x78, 0x10, 0x00
002030 0030
002031 00e0
002032 001c
002033 0038
002034 30e0
002035 e00c
002036 0070
002037 0000                      .db  0x30, 0x00, 0xE0, 0x00, 0x1C, 0x00, 0x38, 0x00, 0xE0, 0x30, 0x0C, 0xE0, 0x70, 0x00, 0x00, 0x00
002038 0000
002039 0000
00203a 0010
00203b 0000
00203c 0000
00203d 1c00
00203e e018
00203f 0076                      .db  0x00, 0x00, 0x00, 0x00, 0x10, 0x00, 0x00, 0x00, 0x00, 0x00, 0x00, 0x1C, 0x18, 0xE0, 0x76, 0x00
002040 0078
002041 7e1c
002042 e0cc
002043 0030
002044 cc7e
002045 cce0
002046 e07c
002047 30c6                      .db  0x78, 0x00, 0x1C, 0x7E, 0xCC, 0xE0, 0x30, 0x00, 0x7E, 0xCC, 0xE0, 0xCC, 0x7C, 0xE0, 0xC6, 0x30
002048 001c
002049 783e
00204a 0000
00204b 0078
00204c c300
00204d 18cc
00204e cc38
00204f 0ef8                      .db  0x1C, 0x00, 0x3E, 0x78, 0x00, 0x00, 0x78, 0x00, 0x00, 0xC3, 0xCC, 0x18, 0x38, 0xCC, 0xF8, 0x0E
002050 381c
002051 0000
002052 fc00
002053 383c
002054 0030
002055 c300
002056 18c3
002057 0000                      .db  0x1C, 0x38, 0x00, 0x00, 0x00, 0xFC, 0x3C, 0x38, 0x30, 0x00, 0x00, 0xC3, 0xC3, 0x18, 0x00, 0x00
002058 5522
002059 18db
00205a 1818
00205b 0036
00205c 3600
00205d 0036
00205e 3636
00205f 0018                      .db  0x22, 0x55, 0xDB, 0x18, 0x18, 0x18, 0x36, 0x00, 0x00, 0x36, 0x36, 0x00, 0x36, 0x36, 0x18, 0x00
002060 1818
002061 1800
002062 1800
002063 3618
002064 0036
002065 0036
002066 0036
002067 1836                      .db  0x18, 0x18, 0x00, 0x18, 0x00, 0x18, 0x18, 0x36, 0x36, 0x00, 0x36, 0x00, 0x36, 0x00, 0x36, 0x18
002068 0036
002069 3600
00206a 0018
00206b 3600
00206c 1818
00206d ff00
00206e f000
00206f ff0f                      .db  0x36, 0x00, 0x00, 0x36, 0x18, 0x00, 0x00, 0x36, 0x18, 0x18, 0x00, 0xFF, 0x00, 0xF0, 0x0F, 0xFF
002070 0000
002071 0000
002072 00fc
002073 0000
002074 38fc
002075 1c38
002076 0600
002077 7838                      .db  0x00, 0x00, 0x00, 0x00, 0xFC, 0x00, 0x00, 0x00, 0xFC, 0x38, 0x38, 0x1C, 0x00, 0x06, 0x38, 0x78
002078 3000
002079 1860
00207a 180e
00207b 0030
00207c 0038
00207d 0f00
00207e 7078
00207f 0000                      .db  0x00, 0x30, 0x60, 0x18, 0x0E, 0x18, 0x30, 0x00, 0x38, 0x00, 0x00, 0x0F, 0x78, 0x70, 0x00, 0x00
                                 
                                 ; Character line 1:
                                 ;     0     1     2     3     4     5     6     7     8     9    10    11    12    13    14    15
002080 8100
002081 feff
002082 7c38
002083 0010
002084 3cff
002085 07c3
002086 3366
002087 db63                      .db  0x00, 0x81, 0xFF, 0xFE, 0x38, 0x7C, 0x10, 0x00, 0xFF, 0x3C, 0xC3, 0x07, 0x66, 0x33, 0x63, 0xDB
002088 0ee0
002089 663c
00208a 63db
00208b 3c00
00208c 183c
00208d 3018
00208e 2400
00208f ff18                      .db  0xE0, 0x0E, 0x3C, 0x66, 0xDB, 0x63, 0x00, 0x3C, 0x3C, 0x18, 0x18, 0x30, 0x00, 0x24, 0x18, 0xFF
002090 7800
002091 6c6c
002092 c67c
002093 606c
002094 3030
002095 3066
002096 0000
002097 0c00                      .db  0x00, 0x78, 0x6C, 0x6C, 0x7C, 0xC6, 0x6C, 0x60, 0x30, 0x30, 0x66, 0x30, 0x00, 0x00, 0x00, 0x0C
002098 70c6
002099 cccc
00209a c03c
00209b cc60
00209c cccc
00209d 3030
00209e 0030
00209f cc30                      .db  0xC6, 0x70, 0xCC, 0xCC, 0x3C, 0xC0, 0x60, 0xCC, 0xCC, 0xCC, 0x30, 0x30, 0x30, 0x00, 0x30, 0xCC
0020a0 78c6
0020a1 6666
0020a2 626c
0020a3 6662
0020a4 30cc
0020a5 660c
0020a6 ee60
0020a7 6ce6                      .db  0xC6, 0x78, 0x66, 0x66, 0x6C, 0x62, 0x62, 0x66, 0xCC, 0x30, 0x0C, 0x66, 0x60, 0xEE, 0xE6, 0x6C
0020a8 cc66
0020a9 cc66
0020aa ccb4
0020ab c6cc
0020ac ccc6
0020ad 60c6
0020ae 1860
0020af 0038                      .db  0x66, 0xCC, 0x66, 0xCC, 0xB4, 0xCC, 0xCC, 0xC6, 0xC6, 0xCC, 0xC6, 0x60, 0x60, 0x18, 0x38, 0x00
0020b0 0030
0020b1 0060
0020b2 000c
0020b3 006c
0020b4 0060
0020b5 6000
0020b6 0030
0020b7 0000                      .db  0x30, 0x00, 0x60, 0x00, 0x0C, 0x00, 0x6C, 0x00, 0x60, 0x00, 0x00, 0x60, 0x30, 0x00, 0x00, 0x00
0020b8 0000
0020b9 0000
0020ba 0030
0020bb 0000
0020bc 0000
0020bd 3000
0020be 3018
0020bf 10dc                      .db  0x00, 0x00, 0x00, 0x00, 0x30, 0x00, 0x00, 0x00, 0x00, 0x00, 0x00, 0x30, 0x18, 0x30, 0xDC, 0x10
0020c0 cccc
0020c1 c300
0020c2 0000
0020c3 0030
0020c4 00c3
0020c5 0000
0020c6 00c6
0020c7 3038                      .db  0xCC, 0xCC, 0x00, 0xC3, 0x00, 0x00, 0x30, 0x00, 0xC3, 0x00, 0x00, 0x00, 0xC6, 0x00, 0x38, 0x30
0020c8 0000
0020c9 cc6c
0020ca e0cc
0020cb e0cc
0020cc 18cc
0020cd 1800
0020ce cc6c
0020cf 1bcc                      .db  0x00, 0x00, 0x6C, 0xCC, 0xCC, 0xE0, 0xCC, 0xE0, 0xCC, 0x18, 0x00, 0x18, 0x6C, 0xCC, 0xCC, 0x1B
0020d0 0000
0020d1 1c1c
0020d2 00f8
0020d3 6c6c
0020d4 0000
0020d5 c600
0020d6 18c6
0020d7 cc33                      .db  0x00, 0x00, 0x1C, 0x1C, 0xF8, 0x00, 0x6C, 0x6C, 0x00, 0x00, 0x00, 0xC6, 0xC6, 0x18, 0x33, 0xCC
0020d8 aa88
0020d9 1877
0020da 1818
0020db 0036
0020dc 3600
0020dd 0036
0020de 3636
0020df 0018                      .db  0x88, 0xAA, 0x77, 0x18, 0x18, 0x18, 0x36, 0x00, 0x00, 0x36, 0x36, 0x00, 0x36, 0x36, 0x18, 0x00
0020e0 1818
0020e1 1800
0020e2 1800
0020e3 3618
0020e4 0036
0020e5 0036
0020e6 0036
0020e7 1836                      .db  0x18, 0x18, 0x00, 0x18, 0x00, 0x18, 0x18, 0x36, 0x36, 0x00, 0x36, 0x00, 0x36, 0x00, 0x36, 0x18
0020e8 0036
0020e9 3600
0020ea 0018
0020eb 3600
0020ec 1818
0020ed ff00
0020ee f000
0020ef ff0f                      .db  0x36, 0x00, 0x00, 0x36, 0x18, 0x00, 0x00, 0x36, 0x18, 0x18, 0x00, 0xFF, 0x00, 0xF0, 0x0F, 0xFF
0020f0 7800
0020f1 fefc
0020f2 00cc
0020f3 7666
0020f4 6c30
0020f5 306c
0020f6 0c00
0020f7 cc60                      .db  0x00, 0x78, 0xFC, 0xFE, 0xCC, 0x00, 0x66, 0x76, 0x30, 0x6C, 0x6C, 0x30, 0x00, 0x0C, 0x60, 0xCC
0020f8 30fc
0020f9 3030
0020fa 181b
0020fb 7630
0020fc 006c
0020fd 0c00
0020fe 186c
0020ff 0000                      .db  0xFC, 0x30, 0x30, 0x30, 0x1B, 0x18, 0x30, 0x76, 0x6C, 0x00, 0x00, 0x0C, 0x6C, 0x18, 0x00, 0x00
                                 
                                 ; Character line 2:
                                 ;     0     1     2     3     4     5     6     7     8     9    10    11    12    13    14    15
002100 a500
002101 fedb
002102 387c
002103 1838
002104 66e7
002105 0f99
002106 3f66
002107 3c7f                      .db  0x00, 0xA5, 0xDB, 0xFE, 0x7C, 0x38, 0x38, 0x18, 0xE7, 0x66, 0x99, 0x0F, 0x66, 0x3F, 0x7F, 0x3C
002108 3ef8
002109 667e
00210a 38db
00210b 7e00
00210c 187e
00210d 600c
00210e 66c0
00210f ff3c                      .db  0xF8, 0x3E, 0x7E, 0x66, 0xDB, 0x38, 0x00, 0x7E, 0x7E, 0x18, 0x0C, 0x60, 0xC0, 0x66, 0x3C, 0xFF
002110 7800
002111 fe6c
002112 ccc0
002113 c038
002114 1860
002115 303c
002116 0000
002117 1800                      .db  0x00, 0x78, 0x6C, 0xFE, 0xC0, 0xCC, 0x38, 0xC0, 0x60, 0x18, 0x3C, 0x30, 0x00, 0x00, 0x00, 0x18
002118 30ce
002119 0c0c
00211a f86c
00211b 0cc0
00211c cccc
00211d 3030
00211e fc60
00211f 0c18                      .db  0xCE, 0x30, 0x0C, 0x0C, 0x6C, 0xF8, 0xC0, 0x0C, 0xCC, 0xCC, 0x30, 0x30, 0x60, 0xFC, 0x18, 0x0C
002120 ccde
002121 c066
002122 6866
002123 c068
002124 30cc
002125 6c0c
002126 fe60
002127 c6f6                      .db  0xDE, 0xCC, 0x66, 0xC0, 0x66, 0x68, 0x68, 0xC0, 0xCC, 0x30, 0x0C, 0x6C, 0x60, 0xFE, 0xF6, 0xC6
002128 cc66
002129 6066
00212a cc30
00212b c6cc
00212c cc6c
00212d 608c
00212e 1830
00212f 006c                      .db  0x66, 0xCC, 0x66, 0x60, 0x30, 0xCC, 0xCC, 0xC6, 0x6C, 0xCC, 0x8C, 0x60, 0x30, 0x18, 0x6C, 0x00
002130 7818
002131 7860
002132 780c
002133 7660
002134 706c
002135 660c
002136 cc30
002137 78f8                      .db  0x18, 0x78, 0x60, 0x78, 0x0C, 0x78, 0x60, 0x76, 0x6C, 0x70, 0x0C, 0x66, 0x30, 0xCC, 0xF8, 0x78
002138 76dc
002139 7cdc
00213a cc7c
00213b c6cc
00213c ccc6
00213d 30fc
00213e 3018
00213f 3800                      .db  0xDC, 0x76, 0xDC, 0x7C, 0x7C, 0xCC, 0xCC, 0xC6, 0xC6, 0xCC, 0xFC, 0x30, 0x18, 0x30, 0x00, 0x38
002140 00c0
002141 3c78
002142 7878
002143 7878
002144 783c
002145 7078
002146 7038
002147 006c                      .db  0xC0, 0x00, 0x78, 0x3C, 0x78, 0x78, 0x78, 0x78, 0x3C, 0x78, 0x78, 0x70, 0x38, 0x70, 0x6C, 0x00
002148 7ffc
002149 00cc
00214a 0000
00214b 0000
00214c 3c00
00214d 7ecc
00214e 7864
00214f 18cc                      .db  0xFC, 0x7F, 0xCC, 0x00, 0x00, 0x00, 0x00, 0x00, 0x00, 0x3C, 0xCC, 0x7E, 0x64, 0x78, 0xCC, 0x18
002150 7078
002151 0000
002152 cc00
002153 6c6c
002154 0030
002155 cc00
002156 00cc
002157 6666                      .db  0x78, 0x70, 0x00, 0x00, 0x00, 0xCC, 0x6C, 0x6C, 0x30, 0x00, 0x00, 0xCC, 0xCC, 0x00, 0x66, 0x66
002158 5522
002159 18db
00215a f818
00215b 0036
00215c f6f8
00215d fe36
00215e 36f6
00215f 00f8                      .db  0x22, 0x55, 0xDB, 0x18, 0x18, 0xF8, 0x36, 0x00, 0xF8, 0xF6, 0x36, 0xFE, 0xF6, 0x36, 0xF8, 0x00
002160 1818
002161 1800
002162 1800
002163 361f
002164 3f37
002165 fff7
002166 ff37
002167 fff7                      .db  0x18, 0x18, 0x00, 0x18, 0x00, 0x18, 0x1F, 0x36, 0x37, 0x3F, 0xF7, 0xFF, 0x37, 0xFF, 0xF7, 0xFF
002168 ff36
002169 3600
00216a 1f1f
00216b 3600
00216c 18ff
00216d ff00
00216e f000
00216f ff0f                      .db  0x36, 0xFF, 0x00, 0x36, 0x1F, 0x1F, 0x00, 0x36, 0xFF, 0x18, 0x00, 0xFF, 0x00, 0xF0, 0x0F, 0xFF
002170 cc76
002171 6ccc
002172 7e60
002173 dc66
002174 c678
002175 18c6
002176 7e7e
002177 ccc0                      .db  0x76, 0xCC, 0xCC, 0x6C, 0x60, 0x7E, 0x66, 0xDC, 0x78, 0xC6, 0xC6, 0x18, 0x7E, 0x7E, 0xC0, 0xCC
002178 fc00
002179 6018
00217a 181b
00217b dc00
00217c 006c
00217d 0c00
00217e 306c
00217f 003c                      .db  0x00, 0xFC, 0x18, 0x60, 0x1B, 0x18, 0x00, 0xDC, 0x6C, 0x00, 0x00, 0x0C, 0x6C, 0x30, 0x3C, 0x00
                                 
                                 ; Character line 3:
                                 ;     0     1     2     3     4     5     6     7     8     9    10    11    12    13    14    15
002180 8100
002181 feff
002182 fefe
002183 3c7c
002184 42c3
002185 7dbd
002186 3066
002187 e763                      .db  0x00, 0x81, 0xFF, 0xFE, 0xFE, 0xFE, 0x7C, 0x3C, 0xC3, 0x42, 0xBD, 0x7D, 0x66, 0x30, 0x63, 0xE7
002188 fefe
002189 6618
00218a 6c7b
00218b 1800
00218c 1818
00218d fefe
00218e ffc0
00218f 7e7e                      .db  0xFE, 0xFE, 0x18, 0x66, 0x7B, 0x6C, 0x00, 0x18, 0x18, 0x18, 0xFE, 0xFE, 0xC0, 0xFF, 0x7E, 0x7E
002190 3000
002191 6c00
002192 1878
002193 0076
002194 1860
002195 fcff
002196 fc00
002197 3000                      .db  0x00, 0x30, 0x00, 0x6C, 0x78, 0x18, 0x76, 0x00, 0x60, 0x18, 0xFF, 0xFC, 0x00, 0xFC, 0x00, 0x30
002198 30de
002199 3838
00219a 0ccc
00219b 18f8
00219c 7c78
00219d 0000
00219e 00c0
00219f 180c                      .db  0xDE, 0x30, 0x38, 0x38, 0xCC, 0x0C, 0xF8, 0x18, 0x78, 0x7C, 0x00, 0x00, 0xC0, 0x00, 0x0C, 0x18
0021a0 ccde
0021a1 c07c
0021a2 7866
0021a3 c078
0021a4 30fc
0021a5 780c
0021a6 fe60
0021a7 c6de                      .db  0xDE, 0xCC, 0x7C, 0xC0, 0x66, 0x78, 0x78, 0xC0, 0xFC, 0x30, 0x0C, 0x78, 0x60, 0xFE, 0xDE, 0xC6
0021a8 cc7c
0021a9 307c
0021aa cc30
0021ab d6cc
0021ac 7838
0021ad 6018
0021ae 1818
0021af 00c6                      .db  0x7C, 0xCC, 0x7C, 0x30, 0x30, 0xCC, 0xCC, 0xD6, 0x38, 0x78, 0x18, 0x60, 0x18, 0x18, 0xC6, 0x00
0021b0 0c00
0021b1 cc7c
0021b2 cc7c
0021b3 ccf0
0021b4 3076
0021b5 6c0c
0021b6 fe30
0021b7 cccc                      .db  0x00, 0x0C, 0x7C, 0xCC, 0x7C, 0xCC, 0xF0, 0xCC, 0x76, 0x30, 0x0C, 0x6C, 0x30, 0xFE, 0xCC, 0xCC
0021b8 cc66
0021b9 c076
0021ba cc30
0021bb d6cc
0021bc cc6c
0021bd e098
0021be 1c00
0021bf 6c00                      .db  0x66, 0xCC, 0x76, 0xC0, 0x30, 0xCC, 0xCC, 0xD6, 0x6C, 0xCC, 0x98, 0xE0, 0x00, 0x1C, 0x00, 0x6C
0021c0 cccc
0021c1 06cc
0021c2 0c0c
0021c3 c00c
0021c4 cc66
0021c5 30cc
0021c6 3018
0021c7 78c6                      .db  0xCC, 0xCC, 0xCC, 0x06, 0x0C, 0x0C, 0x0C, 0xC0, 0x66, 0xCC, 0xCC, 0x30, 0x18, 0x30, 0xC6, 0x78
0021c8 0c60
0021c9 78fe
0021ca 7878
0021cb cccc
0021cc 66cc
0021cd c0cc
0021ce fcf0
0021cf 3cfa                      .db  0x60, 0x0C, 0xFE, 0x78, 0x78, 0x78, 0xCC, 0xCC, 0xCC, 0x66, 0xCC, 0xC0, 0xF0, 0xFC, 0xFA, 0x3C
0021d0 300c
0021d1 cc78
0021d2 ecf8
0021d3 383e
0021d4 fc60
0021d5 defc
0021d6 18db
0021d7 33cc                      .db  0x0C, 0x30, 0x78, 0xCC, 0xF8, 0xEC, 0x3E, 0x38, 0x60, 0xFC, 0xFC, 0xDE, 0xDB, 0x18, 0xCC, 0x33
0021d8 aa88
0021d9 18ee
0021da 1818
0021db 0036
0021dc 0618
0021dd 0636
0021de 3606
0021df 0018                      .db  0x88, 0xAA, 0xEE, 0x18, 0x18, 0x18, 0x36, 0x00, 0x18, 0x06, 0x36, 0x06, 0x06, 0x36, 0x18, 0x00
0021e0 1818
0021e1 1800
0021e2 1800
0021e3 3618
0021e4 3030
0021e5 0000
0021e6 0030
0021e7 0000                      .db  0x18, 0x18, 0x00, 0x18, 0x00, 0x18, 0x18, 0x36, 0x30, 0x30, 0x00, 0x00, 0x30, 0x00, 0x00, 0x00
0021e8 0036
0021e9 3600
0021ea 1818
0021eb 3600
0021ec 1818
0021ed ff00
0021ee f000
0021ef ff0f                      .db  0x36, 0x00, 0x00, 0x36, 0x18, 0x18, 0x00, 0x36, 0x18, 0x18, 0x00, 0xFF, 0x00, 0xF0, 0x0F, 0xFF
0021f0 f8dc
0021f1 6cc0
0021f2 d830
0021f3 1866
0021f4 fecc
0021f5 7cc6
0021f6 dbdb
0021f7 ccf8                      .db  0xDC, 0xF8, 0xC0, 0x6C, 0x30, 0xD8, 0x66, 0x18, 0xCC, 0xFE, 0xC6, 0x7C, 0xDB, 0xDB, 0xF8, 0xCC
0021f8 30fc
0021f9 3030
0021fa 1818
0021fb 00fc
0021fc 1838
0021fd 0c00
0021fe 606c
0021ff 003c                      .db  0xFC, 0x30, 0x30, 0x30, 0x18, 0x18, 0xFC, 0x00, 0x38, 0x18, 0x00, 0x0C, 0x6C, 0x60, 0x3C, 0x00
                                 
                                 ; Character line 4:
                                 ;     0     1     2     3     4     5     6     7     8     9    10    11    12    13    14    15
002200 bd00
002201 7cc3
002202 fe7c
002203 3cfe
002204 42c3
002205 ccbd
002206 303c
002207 e763                      .db  0x00, 0xBD, 0xC3, 0x7C, 0x7C, 0xFE, 0xFE, 0x3C, 0xC3, 0x42, 0xBD, 0xCC, 0x3C, 0x30, 0x63, 0xE7
002208 3ef8
002209 6618
00220a 6c1b
00220b 7e7e
00220c 7e18
00220d 600c
00220e 66c0
00220f 3cff                      .db  0xF8, 0x3E, 0x18, 0x66, 0x1B, 0x6C, 0x7E, 0x7E, 0x18, 0x7E, 0x0C, 0x60, 0xC0, 0x66, 0xFF, 0x3C
002210 3000
002211 fe00
002212 300c
002213 00dc
002214 1860
002215 303c
002216 0000
002217 6000                      .db  0x00, 0x30, 0x00, 0xFE, 0x0C, 0x30, 0xDC, 0x00, 0x60, 0x18, 0x3C, 0x30, 0x00, 0x00, 0x00, 0x60
002218 30f6
002219 0c60
00221a 0cfe
00221b 30cc
00221c 0ccc
00221d 0000
00221e 0060
00221f 3018                      .db  0xF6, 0x30, 0x60, 0x0C, 0xFE, 0x0C, 0xCC, 0x30, 0xCC, 0x0C, 0x00, 0x00, 0x60, 0x00, 0x18, 0x30
002220 fcde
002221 c066
002222 6866
002223 ce68
002224 30cc
002225 6ccc
002226 d662
002227 c6ce                      .db  0xDE, 0xFC, 0x66, 0xC0, 0x66, 0x68, 0x68, 0xCE, 0xCC, 0x30, 0xCC, 0x6C, 0x62, 0xD6, 0xCE, 0xC6
002228 dc60
002229 186c
00222a cc30
00222b fecc
00222c 3038
00222d 6032
00222e 180c
00222f 0000                      .db  0x60, 0xDC, 0x6C, 0x18, 0x30, 0xCC, 0xCC, 0xFE, 0x38, 0x30, 0x32, 0x60, 0x0C, 0x18, 0x00, 0x00
002230 7c00
002231 c066
002232 fccc
002233 cc60
002234 3066
002235 780c
002236 fe30
002237 cccc                      .db  0x00, 0x7C, 0x66, 0xC0, 0xCC, 0xFC, 0x60, 0xCC, 0x66, 0x30, 0x0C, 0x78, 0x30, 0xFE, 0xCC, 0xCC
002238 cc66
002239 7866
00223a cc30
00223b fecc
00223c cc38
00223d 3030
00223e 3018
00223f c600                      .db  0x66, 0xCC, 0x66, 0x78, 0x30, 0xCC, 0xCC, 0xFE, 0x38, 0xCC, 0x30, 0x30, 0x18, 0x30, 0x00, 0xC6
002240 cc78
002241 3efc
002242 7c7c
002243 c07c
002244 fc7e
002245 30fc
002246 3018
002247 ccfe                      .db  0x78, 0xCC, 0xFC, 0x3E, 0x7C, 0x7C, 0x7C, 0xC0, 0x7E, 0xFC, 0xFC, 0x30, 0x18, 0x30, 0xFE, 0xCC
002248 7f78
002249 cccc
00224a cccc
00224b cccc
00224c 66cc
00224d c0cc
00224e 3060
00224f 18c6                      .db  0x78, 0x7F, 0xCC, 0xCC, 0xCC, 0xCC, 0xCC, 0xCC, 0xCC, 0x66, 0xCC, 0xC0, 0x60, 0x30, 0xC6, 0x18
002250 307c
002251 cccc
002252 fccc
002253 0000
002254 c0c0
002255 330c
002256 1837
002257 6666                      .db  0x7C, 0x30, 0xCC, 0xCC, 0xCC, 0xFC, 0x00, 0x00, 0xC0, 0xC0, 0x0C, 0x33, 0x37, 0x18, 0x66, 0x66
002258 5522
002259 18db
00225a f8f8
00225b fef6
00225c f6f8
00225d f636
00225e fefe
00225f f8f8                      .db  0x22, 0x55, 0xDB, 0x18, 0xF8, 0xF8, 0xF6, 0xFE, 0xF8, 0xF6, 0x36, 0xF6, 0xFE, 0xFE, 0xF8, 0xF8
002260 ff1f
002261 1fff
002262 ffff
002263 371f
002264 373f
002265 f7ff
002266 ff37
002267 fff7                      .db  0x1F, 0xFF, 0xFF, 0x1F, 0xFF, 0xFF, 0x1F, 0x37, 0x3F, 0x37, 0xFF, 0xF7, 0x37, 0xFF, 0xF7, 0xFF
002268 ffff
002269 3fff
00226a 1f1f
00226b ff3f
00226c f8ff
00226d ff1f
00226e f0ff
00226f 000f                      .db  0xFF, 0xFF, 0xFF, 0x3F, 0x1F, 0x1F, 0x3F, 0xFF, 0xFF, 0xF8, 0x1F, 0xFF, 0xFF, 0xF0, 0x0F, 0x00
002270 ccc8
002271 6cc0
002272 d860
002273 1866
002274 c6cc
002275 cc6c
002276 dbdb
002277 ccc0                      .db  0xC8, 0xCC, 0xC0, 0x6C, 0x60, 0xD8, 0x66, 0x18, 0xCC, 0xC6, 0x6C, 0xCC, 0xDB, 0xDB, 0xC0, 0xCC
002278 3000
002279 1860
00227a 1818
00227b 7600
00227c 1800
00227d ec18
00227e 786c
00227f 003c                      .db  0x00, 0x30, 0x60, 0x18, 0x18, 0x18, 0x00, 0x76, 0x00, 0x18, 0x18, 0xEC, 0x6C, 0x78, 0x3C, 0x00
                                 
                                 ; Character line 5:
                                 ;     0     1     2     3     4     5     6     7     8     9    10    11    12    13    14    15
002280 9900
002281 38e7
002282 d638
002283 187c
002284 66e7
002285 cc99
002286 7018
002287 3c67                      .db  0x00, 0x99, 0xE7, 0x38, 0x38, 0xD6, 0x7C, 0x18, 0xE7, 0x66, 0x99, 0xCC, 0x18, 0x70, 0x67, 0x3C
002288 0ee0
002289 007e
00228a 381b
00228b 3c7e
00228c 3c18
00228d 3018
00228e 24fe
00228f 18ff                      .db  0xE0, 0x0E, 0x7E, 0x00, 0x1B, 0x38, 0x7E, 0x3C, 0x18, 0x3C, 0x18, 0x30, 0xFE, 0x24, 0xFF, 0x18
002290 0000
002291 6c00
002292 66f8
002293 00cc
002294 3030
002295 3066
002296 0030
002297 c030                      .db  0x00, 0x00, 0x00, 0x6C, 0xF8, 0x66, 0xCC, 0x00, 0x30, 0x30, 0x66, 0x30, 0x30, 0x00, 0x30, 0xC0
002298 30e6
002299 cccc
00229a cc0c
00229b 30cc
00229c 18cc
00229d 3030
00229e fc30
00229f 0030                      .db  0xE6, 0x30, 0xCC, 0xCC, 0x0C, 0xCC, 0xCC, 0x30, 0xCC, 0x18, 0x30, 0x30, 0x30, 0xFC, 0x30, 0x00
0022a0 ccc0
0022a1 6666
0022a2 626c
0022a3 6660
0022a4 30cc
0022a5 66cc
0022a6 c666
0022a7 6cc6                      .db  0xC0, 0xCC, 0x66, 0x66, 0x6C, 0x62, 0x60, 0x66, 0xCC, 0x30, 0xCC, 0x66, 0x66, 0xC6, 0xC6, 0x6C
0022a8 7860
0022a9 cc66
0022aa cc30
0022ab ee78
0022ac 306c
0022ad 6066
0022ae 1806
0022af 0000                      .db  0x60, 0x78, 0x66, 0xCC, 0x30, 0xCC, 0x78, 0xEE, 0x6C, 0x30, 0x66, 0x60, 0x06, 0x18, 0x00, 0x00
0022b0 cc00
0022b1 cc66
0022b2 c0cc
0022b3 7c60
0022b4 3066
0022b5 6ccc
0022b6 d630
0022b7 cccc                      .db  0x00, 0xCC, 0x66, 0xCC, 0xCC, 0xC0, 0x60, 0x7C, 0x66, 0x30, 0xCC, 0x6C, 0x30, 0xD6, 0xCC, 0xCC
0022b8 7c7c
0022b9 0c60
0022ba cc34
0022bb fe78
0022bc 7c6c
0022bd 3064
0022be 3018
0022bf c600                      .db  0x7C, 0x7C, 0x60, 0x0C, 0x34, 0xCC, 0x78, 0xFE, 0x6C, 0x7C, 0x64, 0x30, 0x18, 0x30, 0x00, 0xC6
0022c0 cc18
0022c1 66c0
0022c2 cccc
0022c3 78cc
0022c4 c060
0022c5 30c0
0022c6 3018
0022c7 fcc6                      .db  0x18, 0xCC, 0xC0, 0x66, 0xCC, 0xCC, 0xCC, 0x78, 0x60, 0xC0, 0xC0, 0x30, 0x18, 0x30, 0xC6, 0xFC
0022c8 cc60
0022c9 cccc
0022ca cccc
0022cb cccc
0022cc 3c7c
0022cd 7ecc
0022ce fce6
0022cf 18cf                      .db  0x60, 0xCC, 0xCC, 0xCC, 0xCC, 0xCC, 0xCC, 0xCC, 0x7C, 0x3C, 0xCC, 0x7E, 0xE6, 0xFC, 0xCF, 0x18
0022d0 30cc
0022d1 cccc
0022d2 dccc
0022d3 7c7e
0022d4 c0cc
0022d5 660c
0022d6 186f
0022d7 cc33                      .db  0xCC, 0x30, 0xCC, 0xCC, 0xCC, 0xDC, 0x7E, 0x7C, 0xCC, 0xC0, 0x0C, 0x66, 0x6F, 0x18, 0x33, 0xCC
0022d8 aa88
0022d9 1877
0022da 1818
0022db 3636
0022dc 3618
0022dd 3636
0022de 0000
0022df 1800                      .db  0x88, 0xAA, 0x77, 0x18, 0x18, 0x18, 0x36, 0x36, 0x18, 0x36, 0x36, 0x36, 0x00, 0x00, 0x00, 0x18
0022e0 0000
0022e1 1818
0022e2 1800
0022e3 3618
0022e4 3600
0022e5 3600
0022e6 0036
0022e7 0036                      .db  0x00, 0x00, 0x18, 0x18, 0x00, 0x18, 0x18, 0x36, 0x00, 0x36, 0x00, 0x36, 0x36, 0x00, 0x36, 0x00
0022e8 1800
0022e9 0036
0022ea 1800
0022eb 3636
0022ec 0018
0022ed ff18
0022ee f0ff
0022ef 000f                      .db  0x00, 0x18, 0x36, 0x00, 0x00, 0x18, 0x36, 0x36, 0x18, 0x00, 0x18, 0xFF, 0xFF, 0xF0, 0x0F, 0x00
0022f0 f8dc
0022f1 6cc0
0022f2 d8cc
0022f3 187c
0022f4 6c78
0022f5 cc6c
0022f6 7e7e
0022f7 cc60                      .db  0xDC, 0xF8, 0xC0, 0x6C, 0xCC, 0xD8, 0x7C, 0x18, 0x78, 0x6C, 0x6C, 0xCC, 0x7E, 0x7E, 0x60, 0xCC
0022f8 00fc
0022f9 0000
0022fa d818
0022fb dc30
0022fc 0000
0022fd 6c00
0022fe 0000
0022ff 003c                      .db  0xFC, 0x00, 0x00, 0x00, 0x18, 0xD8, 0x30, 0xDC, 0x00, 0x00, 0x00, 0x6C, 0x00, 0x00, 0x3C, 0x00
                                 
                                 ; Character line 6:
                                 ;     0     1     2     3     4     5     6     7     8     9    10    11    12    13    14    15
002300 8100
002301 10ff
002302 1010
002303 0010
002304 3cff
002305 ccc3
002306 f07e
002307 dbe6                      .db  0x00, 0x81, 0xFF, 0x10, 0x10, 0x10, 0x10, 0x00, 0xFF, 0x3C, 0xC3, 0xCC, 0x7E, 0xF0, 0xE6, 0xDB
002308 0280
002309 663c
00230a cc1b
00230b 187e
00230c 1818
00230d 0000
00230e 0000
00230f 0000                      .db  0x80, 0x02, 0x3C, 0x66, 0x1B, 0xCC, 0x7E, 0x18, 0x18, 0x18, 0x00, 0x00, 0x00, 0x00, 0x00, 0x00
002310 3000
002311 6c00
002312 c630
002313 0076
002314 6018
002315 0000
002316 0030
002317 8030                      .db  0x00, 0x30, 0x00, 0x6C, 0x30, 0xC6, 0x76, 0x00, 0x18, 0x60, 0x00, 0x00, 0x30, 0x00, 0x30, 0x80
002318 fc7c
002319 78fc
00231a 781e
00231b 3078
00231c 7078
00231d 3030
00231e 0018
00231f 3060                      .db  0x7C, 0xFC, 0xFC, 0x78, 0x1E, 0x78, 0x78, 0x30, 0x78, 0x70, 0x30, 0x30, 0x18, 0x00, 0x60, 0x30
002320 cc78
002321 3cfc
002322 fef8
002323 3ef0
002324 78cc
002325 e678
002326 c6fe
002327 38c6                      .db  0x78, 0xCC, 0xFC, 0x3C, 0xF8, 0xFE, 0xF0, 0x3E, 0xCC, 0x78, 0x78, 0xE6, 0xFE, 0xC6, 0xC6, 0x38
002328 1cf0
002329 78e6
00232a fc78
00232b c630
00232c 78c6
00232d 78fe
00232e 7802
00232f 0000                      .db  0xF0, 0x1C, 0xE6, 0x78, 0x78, 0xFC, 0x30, 0xC6, 0xC6, 0x78, 0xFE, 0x78, 0x02, 0x78, 0x00, 0x00
002330 7600
002331 78dc
002332 7876
002333 0cf0
002334 78e6
002335 e6cc
002336 c678
002337 78cc                      .db  0x00, 0x76, 0xDC, 0x78, 0x76, 0x78, 0xF0, 0x0C, 0xE6, 0x78, 0xCC, 0xE6, 0x78, 0xC6, 0xCC, 0x78
002338 0c60
002339 f8f0
00233a 7618
00233b 6c30
00233c 0cc6
00233d 1cfc
00233e e018
00233f fe00                      .db  0x60, 0x0C, 0xF0, 0xF8, 0x18, 0x76, 0x30, 0x6C, 0xC6, 0x0C, 0xFC, 0x1C, 0x18, 0xE0, 0x00, 0xFE
002340 7e0c
002341 3f78
002342 7e7e
002343 0c7e
002344 783c
002345 7878
002346 783c
002347 ccc6                      .db  0x0C, 0x7E, 0x78, 0x3F, 0x7E, 0x7E, 0x7E, 0x0C, 0x3C, 0x78, 0x78, 0x78, 0x3C, 0x78, 0xC6, 0xCC
002348 7ffc
002349 78ce
00234a 7878
00234b 7e7e
00234c 180c
00234d 1878
00234e 30fc
00234f d8c6                      .db  0xFC, 0x7F, 0xCE, 0x78, 0x78, 0x78, 0x7E, 0x7E, 0x0C, 0x18, 0x78, 0x18, 0xFC, 0x30, 0xC6, 0xD8
002350 787e
002351 7e78
002352 cccc
002353 0000
002354 0078
002355 cc00
002356 18cf
002357 0000                      .db  0x7E, 0x78, 0x78, 0x7E, 0xCC, 0xCC, 0x00, 0x00, 0x78, 0x00, 0x00, 0xCC, 0xCF, 0x18, 0x00, 0x00
002358 5522
002359 18db
00235a 1818
00235b 3636
00235c 3618
00235d 3636
00235e 0000
00235f 1800                      .db  0x22, 0x55, 0xDB, 0x18, 0x18, 0x18, 0x36, 0x36, 0x18, 0x36, 0x36, 0x36, 0x00, 0x00, 0x00, 0x18
002360 0000
002361 1818
002362 1800
002363 3618
002364 3600
002365 3600
002366 0036
002367 0036                      .db  0x00, 0x00, 0x18, 0x18, 0x00, 0x18, 0x18, 0x36, 0x00, 0x36, 0x00, 0x36, 0x36, 0x00, 0x36, 0x00
002368 1800
002369 0036
00236a 1800
00236b 3636
00236c 0018
00236d ff18
00236e f0ff
00236f 000f                      .db  0x00, 0x18, 0x36, 0x00, 0x00, 0x18, 0x36, 0x36, 0x18, 0x00, 0x18, 0xFF, 0xFF, 0xF0, 0x0F, 0x00
002370 c076
002371 6cc0
002372 70fc
002373 1860
002374 3830
002375 78ee
002376 6000
002377 cc38                      .db  0x76, 0xC0, 0xC0, 0x6C, 0xFC, 0x70, 0x60, 0x18, 0x30, 0x38, 0xEE, 0x78, 0x00, 0x60, 0x38, 0xCC
002378 fc00
002379 fcfc
00237a d818
00237b 0030
00237c 0000
00237d 3c00
00237e 0000
00237f 0000                      .db  0x00, 0xFC, 0xFC, 0xFC, 0x18, 0xD8, 0x30, 0x00, 0x00, 0x00, 0x00, 0x3C, 0x00, 0x00, 0x00, 0x00
                                 
                                 ; Character line 7:
                                 ;     0     1     2     3     4     5     6     7     8     9    10    11    12    13    14    15
002380 7e00
002381 007e
002382 3800
002383 0038
002384 00ff
002385 78ff
002386 e018
002387 18c0                      .db  0x00, 0x7E, 0x7E, 0x00, 0x00, 0x38, 0x38, 0x00, 0xFF, 0x00, 0xFF, 0x78, 0x18, 0xE0, 0xC0, 0x18
002388 0000
002389 0018
00238a 7800
00238b ff00
00238c 0000
00238d 0000
00238e 0000
00238f 0000                      .db  0x00, 0x00, 0x18, 0x00, 0x00, 0x78, 0x00, 0xFF, 0x00, 0x00, 0x00, 0x00, 0x00, 0x00, 0x00, 0x00
002390 0000
002391 0000
002392 0000
002393 0000
002394 0000
002395 0000
002396 0060
002397 0000                      .db  0x00, 0x00, 0x00, 0x00, 0x00, 0x00, 0x00, 0x00, 0x00, 0x00, 0x00, 0x00, 0x60, 0x00, 0x00, 0x00
002398 0000
002399 0000
00239a 0000
00239b 0000
00239c 0000
00239d 6000
00239e 0000
00239f 0000                      .db  0x00, 0x00, 0x00, 0x00, 0x00, 0x00, 0x00, 0x00, 0x00, 0x00, 0x00, 0x60, 0x00, 0x00, 0x00, 0x00
0023a0 0000
0023a1 0000
0023a2 0000
0023a3 0000
0023a4 0000
0023a5 0000
0023a6 0000
0023a7 0000                      .db  0x00, 0x00, 0x00, 0x00, 0x00, 0x00, 0x00, 0x00, 0x00, 0x00, 0x00, 0x00, 0x00, 0x00, 0x00, 0x00
0023a8 0000
0023a9 0000
0023aa 0000
0023ab 0000
0023ac 0000
0023ad 0000
0023ae 0000
0023af ff00                      .db  0x00, 0x00, 0x00, 0x00, 0x00, 0x00, 0x00, 0x00, 0x00, 0x00, 0x00, 0x00, 0x00, 0x00, 0x00, 0xFF
0023b0 0000
0023b1 0000
0023b2 0000
0023b3 f800
0023b4 0000
0023b5 0078
0023b6 0000
0023b7 0000                      .db  0x00, 0x00, 0x00, 0x00, 0x00, 0x00, 0x00, 0xF8, 0x00, 0x00, 0x78, 0x00, 0x00, 0x00, 0x00, 0x00
0023b8 1ef0
0023b9 0000
0023ba 0000
0023bb 0000
0023bc f800
0023bd 0000
0023be 0000
0023bf 0000                      .db  0xF0, 0x1E, 0x00, 0x00, 0x00, 0x00, 0x00, 0x00, 0x00, 0xF8, 0x00, 0x00, 0x00, 0x00, 0x00, 0x00
0023c0 0078
0023c1 0000
0023c2 0000
0023c3 3800
0023c4 0000
0023c5 0000
0023c6 0000
0023c7 0000                      .db  0x78, 0x00, 0x00, 0x00, 0x00, 0x00, 0x00, 0x38, 0x00, 0x00, 0x00, 0x00, 0x00, 0x00, 0x00, 0x00
0023c8 0000
0023c9 0000
0023ca 0000
0023cb 0000
0023cc 00f8
0023cd 1800
0023ce 3000
0023cf 70c7                      .db  0x00, 0x00, 0x00, 0x00, 0x00, 0x00, 0x00, 0x00, 0xF8, 0x00, 0x00, 0x18, 0x00, 0x30, 0xC7, 0x70
0023d0 0000
0023d1 0000
0023d2 0000
0023d3 0000
0023d4 0000
0023d5 0f00
0023d6 0003
0023d7 0000                      .db  0x00, 0x00, 0x00, 0x00, 0x00, 0x00, 0x00, 0x00, 0x00, 0x00, 0x00, 0x0F, 0x03, 0x00, 0x00, 0x00
0023d8 aa88
0023d9 18ee
0023da 1818
0023db 3636
0023dc 3618
0023dd 3636
0023de 0000
0023df 1800                      .db  0x88, 0xAA, 0xEE, 0x18, 0x18, 0x18, 0x36, 0x36, 0x18, 0x36, 0x36, 0x36, 0x00, 0x00, 0x00, 0x18
0023e0 0000
0023e1 1818
0023e2 1800
0023e3 3618
0023e4 3600
0023e5 3600
0023e6 0036
0023e7 0036                      .db  0x00, 0x00, 0x18, 0x18, 0x00, 0x18, 0x18, 0x36, 0x00, 0x36, 0x00, 0x36, 0x36, 0x00, 0x36, 0x00
0023e8 1800
0023e9 0036
0023ea 1800
0023eb 3636
0023ec 0018
0023ed ff18
0023ee f0ff
0023ef 000f                      .db  0x00, 0x18, 0x36, 0x00, 0x00, 0x18, 0x36, 0x36, 0x18, 0x00, 0x18, 0xFF, 0xFF, 0xF0, 0x0F, 0x00
0023f0 c000
0023f1 0000
0023f2 0000
0023f3 00c0
0023f4 00fc
0023f5 0000
0023f6 c000
0023f7 0000                      .db  0x00, 0xC0, 0x00, 0x00, 0x00, 0x00, 0xC0, 0x00, 0xFC, 0x00, 0x00, 0x00, 0x00, 0xC0, 0x00, 0x00
0023f8 0000
0023f9 0000
0023fa 7018
0023fb 0000
0023fc 0000
0023fd 1c00
0023fe 0000
0023ff 0000                      .db  0x00, 0x00, 0x00, 0x00, 0x18, 0x70, 0x00, 0x00, 0x00, 0x00, 0x00, 0x1C, 0x00, 0x00, 0x00, 0x00
                                 .include "CGABoldFontWide.inc"
                                 
                                 ; COMPLETE CGA BOLD FONT - WIDE VERSERION
                                 ;
                                 ; Extracted by Grant Searle 2013
                                 ;******************************************************
                                 .CSEG
                                 .ORG 0x2800
                                 
                                 ; 40 Char / line font (double width) left half of each char
                                 
                                 ; Character line 0:
                                 ;     0     1     2     3     4     5     6     7     8     9    10    11    12    13    14    15
002800 3f00
002801 3c3f
002802 0f03
002803 0003
002804 00ff
002805 00ff
002806 0f0f
002807 033f                      .db  0x00, 0x3F, 0x3F, 0x3C, 0x03, 0x0F, 0x03, 0x00, 0xFF, 0x00, 0xFF, 0x00, 0x0F, 0x0F, 0x3F, 0x03
002808 00c0
002809 3c03
00280a 0f3f
00280b 0300
00280c 0303
00280d 0000
00280e 0000
00280f 0000                      .db  0xC0, 0x00, 0x03, 0x3C, 0x3F, 0x0F, 0x00, 0x03, 0x03, 0x03, 0x00, 0x00, 0x00, 0x00, 0x00, 0x00
002810 0f00
002811 3c3c
002812 000f
002813 3c0f
002814 3c03
002815 0000
002816 0000
002817 0000                      .db  0x00, 0x0F, 0x3C, 0x3C, 0x0F, 0x00, 0x0F, 0x3C, 0x03, 0x3C, 0x00, 0x00, 0x00, 0x00, 0x00, 0x00
002818 0f3f
002819 3f3f
00281a ff03
00281b ff0f
00281c 3f3f
00281d 0000
00281e 0003
00281f 3f3c                      .db  0x3F, 0x0F, 0x3F, 0x3F, 0x03, 0xFF, 0x0F, 0xFF, 0x3F, 0x3F, 0x00, 0x00, 0x03, 0x00, 0x3C, 0x3F
002820 0f3f
002821 0fff
002822 ffff
002823 0fff
002824 3ff0
002825 fc03
002826 f0ff
002827 0ff0                      .db  0x3F, 0x0F, 0xFF, 0x0F, 0xFF, 0xFF, 0xFF, 0x0F, 0xF0, 0x3F, 0x03, 0xFC, 0xFF, 0xF0, 0xF0, 0x0F
002828 3fff
002829 3fff
00282a f0ff
00282b f0f0
00282c f0f0
00282d 3fff
00282e 3ff0
00282f 0003                      .db  0xFF, 0x3F, 0xFF, 0x3F, 0xFF, 0xF0, 0xF0, 0xF0, 0xF0, 0xF0, 0xFF, 0x3F, 0xF0, 0x3F, 0x03, 0x00
002830 000f
002831 00fc
002832 0003
002833 000f
002834 0ffc
002835 fc00
002836 003f
002837 0000                      .db  0x0F, 0x00, 0xFC, 0x00, 0x03, 0x00, 0x0F, 0x00, 0xFC, 0x0F, 0x00, 0xFC, 0x3F, 0x00, 0x00, 0x00
002838 0000
002839 0000
00283a 0003
00283b 0000
00283c 0000
00283d 0300
00283e fc03
00283f 003f                      .db  0x00, 0x00, 0x00, 0x00, 0x03, 0x00, 0x00, 0x00, 0x00, 0x00, 0x00, 0x03, 0x03, 0xFC, 0x3F, 0x00
002840 003f
002841 3f03
002842 fcf0
002843 000f
002844 f03f
002845 f0fc
002846 fc3f
002847 0ff0                      .db  0x3F, 0x00, 0x03, 0x3F, 0xF0, 0xFC, 0x0F, 0x00, 0x3F, 0xF0, 0xFC, 0xF0, 0x3F, 0xFC, 0xF0, 0x0F
002848 0003
002849 3f0f
00284a 0000
00284b 003f
00284c f000
00284d 03f0
00284e f00f
00284f 00ff                      .db  0x03, 0x00, 0x0F, 0x3F, 0x00, 0x00, 0x3F, 0x00, 0x00, 0xF0, 0xF0, 0x03, 0x0F, 0xF0, 0xFF, 0x00
002850 0f03
002851 0000
002852 ff00
002853 0f0f
002854 000f
002855 f000
002856 03f0
002857 0000                      .db  0x03, 0x0F, 0x00, 0x00, 0x00, 0xFF, 0x0F, 0x0F, 0x0F, 0x00, 0x00, 0xF0, 0xF0, 0x03, 0x00, 0x00
002858 330c
002859 03f3
00285a 0303
00285b 000f
00285c 0f00
00285d 000f
00285e 0f0f
00285f 0003                      .db  0x0C, 0x33, 0xF3, 0x03, 0x03, 0x03, 0x0F, 0x00, 0x00, 0x0F, 0x0F, 0x00, 0x0F, 0x0F, 0x03, 0x00
002860 0303
002861 0300
002862 0300
002863 0f03
002864 000f
002865 000f
002866 000f
002867 030f                      .db  0x03, 0x03, 0x00, 0x03, 0x00, 0x03, 0x03, 0x0F, 0x0F, 0x00, 0x0F, 0x00, 0x0F, 0x00, 0x0F, 0x03
002868 000f
002869 0f00
00286a 0003
00286b 0f00
00286c 0303
00286d ff00
00286e ff00
00286f ff00                      .db  0x0F, 0x00, 0x00, 0x0F, 0x03, 0x00, 0x00, 0x0F, 0x03, 0x03, 0x00, 0xFF, 0x00, 0xFF, 0x00, 0xFF
002870 0000
002871 0000
002872 00ff
002873 0000
002874 0fff
002875 030f
002876 0000
002877 3f0f                      .db  0x00, 0x00, 0x00, 0x00, 0xFF, 0x00, 0x00, 0x00, 0xFF, 0x0F, 0x0F, 0x03, 0x00, 0x00, 0x0F, 0x3F
002878 0f00
002879 033c
00287a 0300
00287b 000f
00287c 000f
00287d 0000
00287e 3f3f
00287f 0000                      .db  0x00, 0x0F, 0x3C, 0x03, 0x00, 0x03, 0x0F, 0x00, 0x0F, 0x00, 0x00, 0x00, 0x3F, 0x3F, 0x00, 0x00
                                 
                                 ; Character line 1:
                                 ;     0     1     2     3     4     5     6     7     8     9    10    11    12    13    14    15
002880 c000
002881 ffff
002882 3f0f
002883 0003
002884 0fff
002885 00f0
002886 0f3c
002887 f33c                      .db  0x00, 0xC0, 0xFF, 0xFF, 0x0F, 0x3F, 0x03, 0x00, 0xFF, 0x0F, 0xF0, 0x00, 0x3C, 0x0F, 0x3C, 0xF3
002888 00fc
002889 3c0f
00288a 3cf3
00288b 0f00
00288c 030f
00288d 0f03
00288e 0c00
00288f ff03                      .db  0xFC, 0x00, 0x0F, 0x3C, 0xF3, 0x3C, 0x00, 0x0F, 0x0F, 0x03, 0x03, 0x0F, 0x00, 0x0C, 0x03, 0xFF
002890 3f00
002891 3c3c
002892 f03f
002893 3c3c
002894 0f0f
002895 0f3c
002896 0000
002897 0000                      .db  0x00, 0x3F, 0x3C, 0x3C, 0x3F, 0xF0, 0x3C, 0x3C, 0x0F, 0x0F, 0x3C, 0x0F, 0x00, 0x00, 0x00, 0x00
002898 3ff0
002899 f0f0
00289a f00f
00289b f03c
00289c f0f0
00289d 0f0f
00289e 000f
00289f f00f                      .db  0xF0, 0x3F, 0xF0, 0xF0, 0x0F, 0xF0, 0x3C, 0xF0, 0xF0, 0xF0, 0x0F, 0x0F, 0x0F, 0x00, 0x0F, 0xF0
0028a0 3ff0
0028a1 3c3c
0028a2 3c3c
0028a3 3c3c
0028a4 0ff0
0028a5 3c00
0028a6 fc3c
0028a7 3cfc                      .db  0xF0, 0x3F, 0x3C, 0x3C, 0x3C, 0x3C, 0x3C, 0x3C, 0xF0, 0x0F, 0x00, 0x3C, 0x3C, 0xFC, 0xFC, 0x3C
0028a8 f03c
0028a9 f03c
0028aa f0cf
0028ab f0f0
0028ac f0f0
0028ad 3cf0
0028ae 033c
0028af 000f                      .db  0x3C, 0xF0, 0x3C, 0xF0, 0xCF, 0xF0, 0xF0, 0xF0, 0xF0, 0xF0, 0xF0, 0x3C, 0x3C, 0x03, 0x0F, 0x00
0028b0 000f
0028b1 003c
0028b2 0000
0028b3 003c
0028b4 003c
0028b5 3c00
0028b6 000f
0028b7 0000                      .db  0x0F, 0x00, 0x3C, 0x00, 0x00, 0x00, 0x3C, 0x00, 0x3C, 0x00, 0x00, 0x3C, 0x0F, 0x00, 0x00, 0x00
0028b8 0000
0028b9 0000
0028ba 000f
0028bb 0000
0028bc 0000
0028bd 0f00
0028be 0f03
0028bf 03f3                      .db  0x00, 0x00, 0x00, 0x00, 0x0F, 0x00, 0x00, 0x00, 0x00, 0x00, 0x00, 0x0F, 0x03, 0x0F, 0xF3, 0x03
0028c0 f0f0
0028c1 f000
0028c2 0000
0028c3 000f
0028c4 00f0
0028c5 0000
0028c6 00f0
0028c7 0f0f                      .db  0xF0, 0xF0, 0x00, 0xF0, 0x00, 0x00, 0x0F, 0x00, 0xF0, 0x00, 0x00, 0x00, 0xF0, 0x00, 0x0F, 0x0F
0028c8 0000
0028c9 f03c
0028ca fcf0
0028cb fcf0
0028cc 03f0
0028cd 0300
0028ce f03c
0028cf 03f0                      .db  0x00, 0x00, 0x3C, 0xF0, 0xF0, 0xFC, 0xF0, 0xFC, 0xF0, 0x03, 0x00, 0x03, 0x3C, 0xF0, 0xF0, 0x03
0028d0 0000
0028d1 0303
0028d2 00ff
0028d3 3c3c
0028d4 0000
0028d5 f000
0028d6 03f0
0028d7 f00f                      .db  0x00, 0x00, 0x03, 0x03, 0xFF, 0x00, 0x3C, 0x3C, 0x00, 0x00, 0x00, 0xF0, 0xF0, 0x03, 0x0F, 0xF0
0028d8 ccc0
0028d9 033f
0028da 0303
0028db 000f
0028dc 0f00
0028dd 000f
0028de 0f0f
0028df 0003                      .db  0xC0, 0xCC, 0x3F, 0x03, 0x03, 0x03, 0x0F, 0x00, 0x00, 0x0F, 0x0F, 0x00, 0x0F, 0x0F, 0x03, 0x00
0028e0 0303
0028e1 0300
0028e2 0300
0028e3 0f03
0028e4 000f
0028e5 000f
0028e6 000f
0028e7 030f                      .db  0x03, 0x03, 0x00, 0x03, 0x00, 0x03, 0x03, 0x0F, 0x0F, 0x00, 0x0F, 0x00, 0x0F, 0x00, 0x0F, 0x03
0028e8 000f
0028e9 0f00
0028ea 0003
0028eb 0f00
0028ec 0303
0028ed ff00
0028ee ff00
0028ef ff00                      .db  0x0F, 0x00, 0x00, 0x0F, 0x03, 0x00, 0x00, 0x0F, 0x03, 0x03, 0x00, 0xFF, 0x00, 0xFF, 0x00, 0xFF
0028f0 3f00
0028f1 ffff
0028f2 00f0
0028f3 3f3c
0028f4 3c0f
0028f5 0f3c
0028f6 0000
0028f7 f03c                      .db  0x00, 0x3F, 0xFF, 0xFF, 0xF0, 0x00, 0x3C, 0x3F, 0x0F, 0x3C, 0x3C, 0x0F, 0x00, 0x00, 0x3C, 0xF0
0028f8 0fff
0028f9 0f0f
0028fa 0303
0028fb 3f0f
0028fc 003c
0028fd 0000
0028fe 033c
0028ff 0000                      .db  0xFF, 0x0F, 0x0F, 0x0F, 0x03, 0x03, 0x0F, 0x3F, 0x3C, 0x00, 0x00, 0x00, 0x3C, 0x03, 0x00, 0x00
                                 
                                 ; Character line 2:
                                 ;     0     1     2     3     4     5     6     7     8     9    10    11    12    13    14    15
002900 cc00
002901 fff3
002902 0f3f
002903 030f
002904 3cfc
002905 00c3
002906 0f3c
002907 0f3f                      .db  0x00, 0xCC, 0xF3, 0xFF, 0x3F, 0x0F, 0x0F, 0x03, 0xFC, 0x3C, 0xC3, 0x00, 0x3C, 0x0F, 0x3F, 0x0F
002908 0fff
002909 3c3f
00290a 0ff3
00290b 3f00
00290c 033f
00290d 3c00
00290e 3cf0
00290f ff0f                      .db  0xFF, 0x0F, 0x3F, 0x3C, 0xF3, 0x0F, 0x00, 0x3F, 0x3F, 0x03, 0x00, 0x3C, 0xF0, 0x3C, 0x0F, 0xFF
002910 3f00
002911 ff3c
002912 f0f0
002913 f00f
002914 033c
002915 0f0f
002916 0000
002917 0300                      .db  0x00, 0x3F, 0x3C, 0xFF, 0xF0, 0xF0, 0x0F, 0xF0, 0x3C, 0x03, 0x0F, 0x0F, 0x00, 0x00, 0x00, 0x03
002918 0ff0
002919 0000
00291a ff3c
00291b 00f0
00291c f0f0
00291d 0f0f
00291e ff3c
00291f 0003                      .db  0xF0, 0x0F, 0x00, 0x00, 0x3C, 0xFF, 0xF0, 0x00, 0xF0, 0xF0, 0x0F, 0x0F, 0x3C, 0xFF, 0x03, 0x00
002920 f0f3
002921 f03c
002922 3c3c
002923 f03c
002924 0ff0
002925 3c00
002926 ff3c
002927 f0ff                      .db  0xF3, 0xF0, 0x3C, 0xF0, 0x3C, 0x3C, 0x3C, 0xF0, 0xF0, 0x0F, 0x00, 0x3C, 0x3C, 0xFF, 0xFF, 0xF0
002928 f03c
002929 3c3c
00292a f00f
00292b f0f0
00292c f03c
00292d 3cc0
00292e 030f
00292f 003c                      .db  0x3C, 0xF0, 0x3C, 0x3C, 0x0F, 0xF0, 0xF0, 0xF0, 0x3C, 0xF0, 0xC0, 0x3C, 0x0F, 0x03, 0x3C, 0x00
002930 3f03
002931 3f3c
002932 3f00
002933 3f3c
002934 3f3c
002935 3c00
002936 f00f
002937 3fff                      .db  0x03, 0x3F, 0x3C, 0x3F, 0x00, 0x3F, 0x3C, 0x3F, 0x3C, 0x3F, 0x00, 0x3C, 0x0F, 0xF0, 0xFF, 0x3F
002938 3ff3
002939 3ff3
00293a f03f
00293b f0f0
00293c f0f0
00293d 0fff
00293e 0f03
00293f 0f00                      .db  0xF3, 0x3F, 0xF3, 0x3F, 0x3F, 0xF0, 0xF0, 0xF0, 0xF0, 0xF0, 0xFF, 0x0F, 0x03, 0x0F, 0x00, 0x0F
002940 00f0
002941 0f3f
002942 3f3f
002943 3f3f
002944 3f0f
002945 3f3f
002946 3f0f
002947 003c                      .db  0xF0, 0x00, 0x3F, 0x0F, 0x3F, 0x3F, 0x3F, 0x3F, 0x0F, 0x3F, 0x3F, 0x3F, 0x0F, 0x3F, 0x3C, 0x00
002948 3fff
002949 00f0
00294a 0000
00294b 0000
00294c 0f00
00294d 3ff0
00294e 3f3c
00294f 03f0                      .db  0xFF, 0x3F, 0xF0, 0x00, 0x00, 0x00, 0x00, 0x00, 0x00, 0x0F, 0xF0, 0x3F, 0x3C, 0x3F, 0xF0, 0x03
002950 3f3f
002951 0000
002952 f000
002953 3c3c
002954 000f
002955 f000
002956 00f0
002957 3c3c                      .db  0x3F, 0x3F, 0x00, 0x00, 0x00, 0xF0, 0x3C, 0x3C, 0x0F, 0x00, 0x00, 0xF0, 0xF0, 0x00, 0x3C, 0x3C
002958 330c
002959 03f3
00295a ff03
00295b 000f
00295c ffff
00295d ff0f
00295e 0fff
00295f 00ff                      .db  0x0C, 0x33, 0xF3, 0x03, 0x03, 0xFF, 0x0F, 0x00, 0xFF, 0xFF, 0x0F, 0xFF, 0xFF, 0x0F, 0xFF, 0x00
002960 0303
002961 0300
002962 0300
002963 0f03
002964 0f0f
002965 ffff
002966 ff0f
002967 ffff                      .db  0x03, 0x03, 0x00, 0x03, 0x00, 0x03, 0x03, 0x0F, 0x0F, 0x0F, 0xFF, 0xFF, 0x0F, 0xFF, 0xFF, 0xFF
002968 ff0f
002969 0f00
00296a 0303
00296b 0f00
00296c 03ff
00296d ff00
00296e ff00
00296f ff00                      .db  0x0F, 0xFF, 0x00, 0x0F, 0x03, 0x03, 0x00, 0x0F, 0xFF, 0x03, 0x00, 0xFF, 0x00, 0xFF, 0x00, 0xFF
002970 f03f
002971 3cf0
002972 3f3c
002973 f33c
002974 f03f
002975 03f0
002976 3f3f
002977 f0f0                      .db  0x3F, 0xF0, 0xF0, 0x3C, 0x3C, 0x3F, 0x3C, 0xF3, 0x3F, 0xF0, 0xF0, 0x03, 0x3F, 0x3F, 0xF0, 0xF0
002978 ff00
002979 3c03
00297a 0303
00297b f300
00297c 003c
00297d 0000
00297e 0f3c
00297f 000f                      .db  0x00, 0xFF, 0x03, 0x3C, 0x03, 0x03, 0x00, 0xF3, 0x3C, 0x00, 0x00, 0x00, 0x3C, 0x0F, 0x0F, 0x00
                                 
                                 ; Character line 3:
                                 ;     0     1     2     3     4     5     6     7     8     9    10    11    12    13    14    15
002980 c000
002981 ffff
002982 ffff
002983 0f3f
002984 30f0
002985 3fcf
002986 0f3c
002987 fc3c                      .db  0x00, 0xC0, 0xFF, 0xFF, 0xFF, 0xFF, 0x3F, 0x0F, 0xF0, 0x30, 0xCF, 0x3F, 0x3C, 0x0F, 0x3C, 0xFC
002988 ffff
002989 3c03
00298a 3c3f
00298b 0300
00298c 0303
00298d ffff
00298e fff0
00298f 3f3f                      .db  0xFF, 0xFF, 0x03, 0x3C, 0x3F, 0x3C, 0x00, 0x03, 0x03, 0x03, 0xFF, 0xFF, 0xF0, 0xFF, 0x3F, 0x3F
002990 0f00
002991 3c00
002992 033f
002993 003f
002994 033c
002995 ffff
002996 ff00
002997 0f00                      .db  0x00, 0x0F, 0x00, 0x3C, 0x3F, 0x03, 0x3F, 0x00, 0x3C, 0x03, 0xFF, 0xFF, 0x00, 0xFF, 0x00, 0x0F
002998 0ff3
002999 0f0f
00299a 00f0
00299b 03ff
00299c 3f3f
00299d 0000
00299e 00f0
00299f 0300                      .db  0xF3, 0x0F, 0x0F, 0x0F, 0xF0, 0x00, 0xFF, 0x03, 0x3F, 0x3F, 0x00, 0x00, 0xF0, 0x00, 0x00, 0x03
0029a0 f0f3
0029a1 f03f
0029a2 3f3c
0029a3 f03f
0029a4 0fff
0029a5 3f00
0029a6 ff3c
0029a7 f0f3                      .db  0xF3, 0xF0, 0x3F, 0xF0, 0x3C, 0x3F, 0x3F, 0xF0, 0xFF, 0x0F, 0x00, 0x3F, 0x3C, 0xFF, 0xF3, 0xF0
0029a8 f03f
0029a9 0f3f
0029aa f00f
0029ab f3f0
0029ac 3f0f
0029ad 3c03
0029ae 0303
0029af 00f0                      .db  0x3F, 0xF0, 0x3F, 0x0F, 0x0F, 0xF0, 0xF0, 0xF3, 0x0F, 0x3F, 0x03, 0x3C, 0x03, 0x03, 0xF0, 0x00
0029b0 0000
0029b1 f03f
0029b2 f03f
0029b3 f0ff
0029b4 0f3f
0029b5 3c00
0029b6 ff0f
0029b7 f0f0                      .db  0x00, 0x00, 0x3F, 0xF0, 0x3F, 0xF0, 0xFF, 0xF0, 0x3F, 0x0F, 0x00, 0x3C, 0x0F, 0xFF, 0xF0, 0xF0
0029b8 f03c
0029b9 f03f
0029ba f00f
0029bb f3f0
0029bc f03c
0029bd fcc3
0029be 0300
0029bf 3c00                      .db  0x3C, 0xF0, 0x3F, 0xF0, 0x0F, 0xF0, 0xF0, 0xF3, 0x3C, 0xF0, 0xC3, 0xFC, 0x00, 0x03, 0x00, 0x3C
0029c0 f0f0
0029c1 00f0
0029c2 0000
0029c3 f000
0029c4 f03c
0029c5 0ff0
0029c6 0f03
0029c7 3ff0                      .db  0xF0, 0xF0, 0xF0, 0x00, 0x00, 0x00, 0x00, 0xF0, 0x3C, 0xF0, 0xF0, 0x0F, 0x03, 0x0F, 0xF0, 0x3F
0029c8 003c
0029c9 3fff
0029ca 3f3f
0029cb f0f0
0029cc 3cf0
0029cd f0f0
0029ce ffff
0029cf 0fff                      .db  0x3C, 0x00, 0xFF, 0x3F, 0x3F, 0x3F, 0xF0, 0xF0, 0xF0, 0x3C, 0xF0, 0xF0, 0xFF, 0xFF, 0xFF, 0x0F
0029d0 0f00
0029d1 f03f
0029d2 fcff
0029d3 0f0f
0029d4 ff3c
0029d5 f3ff
0029d6 03f3
0029d7 0ff0                      .db  0x00, 0x0F, 0x3F, 0xF0, 0xFF, 0xFC, 0x0F, 0x0F, 0x3C, 0xFF, 0xFF, 0xF3, 0xF3, 0x03, 0xF0, 0x0F
0029d8 ccc0
0029d9 03fc
0029da 0303
0029db 000f
0029dc 0003
0029dd 000f
0029de 0f00
0029df 0003                      .db  0xC0, 0xCC, 0xFC, 0x03, 0x03, 0x03, 0x0F, 0x00, 0x03, 0x00, 0x0F, 0x00, 0x00, 0x0F, 0x03, 0x00
0029e0 0303
0029e1 0300
0029e2 0300
0029e3 0f03
0029e4 0f0f
0029e5 0000
0029e6 000f
0029e7 0000                      .db  0x03, 0x03, 0x00, 0x03, 0x00, 0x03, 0x03, 0x0F, 0x0F, 0x0F, 0x00, 0x00, 0x0F, 0x00, 0x00, 0x00
0029e8 000f
0029e9 0f00
0029ea 0303
0029eb 0f00
0029ec 0303
0029ed ff00
0029ee ff00
0029ef ff00                      .db  0x0F, 0x00, 0x00, 0x0F, 0x03, 0x03, 0x00, 0x0F, 0x03, 0x03, 0x00, 0xFF, 0x00, 0xFF, 0x00, 0xFF
0029f0 fff3
0029f1 3cf0
0029f2 f30f
0029f3 033c
0029f4 fff0
0029f5 3ff0
0029f6 f3f3
0029f7 f0ff                      .db  0xF3, 0xFF, 0xF0, 0x3C, 0x0F, 0xF3, 0x3C, 0x03, 0xF0, 0xFF, 0xF0, 0x3F, 0xF3, 0xF3, 0xFF, 0xF0
0029f8 0fff
0029f9 0f0f
0029fa 0303
0029fb 00ff
0029fc 030f
0029fd 0000
0029fe 3c3c
0029ff 000f                      .db  0xFF, 0x0F, 0x0F, 0x0F, 0x03, 0x03, 0xFF, 0x00, 0x0F, 0x03, 0x00, 0x00, 0x3C, 0x3C, 0x0F, 0x00
                                 
                                 ; Character line 4:
                                 ;     0     1     2     3     4     5     6     7     8     9    10    11    12    13    14    15
002a00 cf00
002a01 3ff0
002a02 ff3f
002a03 0fff
002a04 30f0
002a05 f0cf
002a06 0f0f
002a07 fc3c                      .db  0x00, 0xCF, 0xF0, 0x3F, 0x3F, 0xFF, 0xFF, 0x0F, 0xF0, 0x30, 0xCF, 0xF0, 0x0F, 0x0F, 0x3C, 0xFC
002a08 0fff
002a09 3c03
002a0a 3c03
002a0b 3f3f
002a0c 3f03
002a0d 3c00
002a0e 3cf0
002a0f 0fff                      .db  0xFF, 0x0F, 0x03, 0x3C, 0x03, 0x3C, 0x3F, 0x3F, 0x03, 0x3F, 0x00, 0x3C, 0xF0, 0x3C, 0xFF, 0x0F
002a10 0f00
002a11 ff00
002a12 0f00
002a13 00f3
002a14 033c
002a15 0f0f
002a16 0000
002a17 3c00                      .db  0x00, 0x0F, 0x00, 0xFF, 0x00, 0x0F, 0xF3, 0x00, 0x3C, 0x03, 0x0F, 0x0F, 0x00, 0x00, 0x00, 0x3C
002a18 0fff
002a19 003c
002a1a 00ff
002a1b 0ff0
002a1c 00f0
002a1d 0000
002a1e 003c
002a1f 0f03                      .db  0xFF, 0x0F, 0x3C, 0x00, 0xFF, 0x00, 0xF0, 0x0F, 0xF0, 0x00, 0x00, 0x00, 0x3C, 0x00, 0x03, 0x0F
002a20 fff3
002a21 f03c
002a22 3c3c
002a23 f03c
002a24 0ff0
002a25 3cf0
002a26 f33c
002a27 f0f0                      .db  0xF3, 0xFF, 0x3C, 0xF0, 0x3C, 0x3C, 0x3C, 0xF0, 0xF0, 0x0F, 0xF0, 0x3C, 0x3C, 0xF3, 0xF0, 0xF0
002a28 f33c
002a29 033c
002a2a f00f
002a2b fff0
002a2c 0f0f
002a2d 3c0f
002a2e 0300
002a2f 0000                      .db  0x3C, 0xF3, 0x3C, 0x03, 0x0F, 0xF0, 0xF0, 0xFF, 0x0F, 0x0F, 0x0F, 0x3C, 0x00, 0x03, 0x00, 0x00
002a30 3f00
002a31 f03c
002a32 fff0
002a33 f03c
002a34 0f3c
002a35 3f00
002a36 ff0f
002a37 f0f0                      .db  0x00, 0x3F, 0x3C, 0xF0, 0xF0, 0xFF, 0x3C, 0xF0, 0x3C, 0x0F, 0x00, 0x3F, 0x0F, 0xFF, 0xF0, 0xF0
002a38 f03c
002a39 3f3c
002a3a f00f
002a3b fff0
002a3c f00f
002a3d 0f0f
002a3e 0f03
002a3f f000                      .db  0x3C, 0xF0, 0x3C, 0x3F, 0x0F, 0xF0, 0xF0, 0xFF, 0x0F, 0xF0, 0x0F, 0x0F, 0x03, 0x0F, 0x00, 0xF0
002a40 f03f
002a41 0fff
002a42 3f3f
002a43 f03f
002a44 ff3f
002a45 0fff
002a46 0f03
002a47 f0ff                      .db  0x3F, 0xF0, 0xFF, 0x0F, 0x3F, 0x3F, 0x3F, 0xF0, 0x3F, 0xFF, 0xFF, 0x0F, 0x03, 0x0F, 0xFF, 0xF0
002a48 3f3f
002a49 f0f0
002a4a f0f0
002a4b f0f0
002a4c 3cf0
002a4d f0f0
002a4e 0f3c
002a4f 03f0                      .db  0x3F, 0x3F, 0xF0, 0xF0, 0xF0, 0xF0, 0xF0, 0xF0, 0xF0, 0x3C, 0xF0, 0xF0, 0x3C, 0x0F, 0xF0, 0x03
002a50 0f3f
002a51 f0f0
002a52 fff0
002a53 0000
002a54 f0f0
002a55 0f00
002a56 030f
002a57 3c3c                      .db  0x3F, 0x0F, 0xF0, 0xF0, 0xF0, 0xFF, 0x00, 0x00, 0xF0, 0xF0, 0x00, 0x0F, 0x0F, 0x03, 0x3C, 0x3C
002a58 330c
002a59 03f3
002a5a ffff
002a5b ffff
002a5c ffff
002a5d ff0f
002a5e ffff
002a5f ffff                      .db  0x0C, 0x33, 0xF3, 0x03, 0xFF, 0xFF, 0xFF, 0xFF, 0xFF, 0xFF, 0x0F, 0xFF, 0xFF, 0xFF, 0xFF, 0xFF
002a60 ff03
002a61 03ff
002a62 ffff
002a63 0f03
002a64 0f0f
002a65 ffff
002a66 ff0f
002a67 ffff                      .db  0x03, 0xFF, 0xFF, 0x03, 0xFF, 0xFF, 0x03, 0x0F, 0x0F, 0x0F, 0xFF, 0xFF, 0x0F, 0xFF, 0xFF, 0xFF
002a68 ffff
002a69 0fff
002a6a 0303
002a6b ff0f
002a6c ffff
002a6d ff03
002a6e ffff
002a6f 0000                      .db  0xFF, 0xFF, 0xFF, 0x0F, 0x03, 0x03, 0x0F, 0xFF, 0xFF, 0xFF, 0x03, 0xFF, 0xFF, 0xFF, 0x00, 0x00
002a70 f0f0
002a71 3cf0
002a72 f33c
002a73 033c
002a74 f0f0
002a75 f03c
002a76 f3f3
002a77 f0f0                      .db  0xF0, 0xF0, 0xF0, 0x3C, 0x3C, 0xF3, 0x3C, 0x03, 0xF0, 0xF0, 0x3C, 0xF0, 0xF3, 0xF3, 0xF0, 0xF0
002a78 0f00
002a79 033c
002a7a 0303
002a7b 3f00
002a7c 0300
002a7d fc03
002a7e 3f3c
002a7f 000f                      .db  0x00, 0x0F, 0x3C, 0x03, 0x03, 0x03, 0x00, 0x3F, 0x00, 0x03, 0x03, 0xFC, 0x3C, 0x3F, 0x0F, 0x00
                                 
                                 ; Character line 5:
                                 ;     0     1     2     3     4     5     6     7     8     9    10    11    12    13    14    15
002a80 c300
002a81 0ffc
002a82 f30f
002a83 033f
002a84 3cfc
002a85 f0c3
002a86 3f03
002a87 0f3c                      .db  0x00, 0xC3, 0xFC, 0x0F, 0x0F, 0xF3, 0x3F, 0x03, 0xFC, 0x3C, 0xC3, 0xF0, 0x03, 0x3F, 0x3C, 0x0F
002a88 00fc
002a89 003f
002a8a 0f03
002a8b 0f3f
002a8c 0f03
002a8d 0f03
002a8e 0cff
002a8f 03ff                      .db  0xFC, 0x00, 0x3F, 0x00, 0x03, 0x0F, 0x3F, 0x0F, 0x03, 0x0F, 0x03, 0x0F, 0xFF, 0x0C, 0xFF, 0x03
002a90 0000
002a91 3c00
002a92 3cff
002a93 00f0
002a94 0f0f
002a95 0f3c
002a96 000f
002a97 f00f                      .db  0x00, 0x00, 0x00, 0x3C, 0xFF, 0x3C, 0xF0, 0x00, 0x0F, 0x0F, 0x3C, 0x0F, 0x0F, 0x00, 0x0F, 0xF0
002a98 0ffc
002a99 f0f0
002a9a f000
002a9b 0ff0
002a9c 03f0
002a9d 0f0f
002a9e ff0f
002a9f 000f                      .db  0xFC, 0x0F, 0xF0, 0xF0, 0x00, 0xF0, 0xF0, 0x0F, 0xF0, 0x03, 0x0F, 0x0F, 0x0F, 0xFF, 0x0F, 0x00
002aa0 f0f0
002aa1 3c3c
002aa2 3c3c
002aa3 3c3c
002aa4 0ff0
002aa5 3cf0
002aa6 f03c
002aa7 3cf0                      .db  0xF0, 0xF0, 0x3C, 0x3C, 0x3C, 0x3C, 0x3C, 0x3C, 0xF0, 0x0F, 0xF0, 0x3C, 0x3C, 0xF0, 0xF0, 0x3C
002aa8 3f3c
002aa9 f03c
002aaa f00f
002aab fc3f
002aac 0f3c
002aad 3c3c
002aae 0300
002aaf 0000                      .db  0x3C, 0x3F, 0x3C, 0xF0, 0x0F, 0xF0, 0x3F, 0xFC, 0x3C, 0x0F, 0x3C, 0x3C, 0x00, 0x03, 0x00, 0x00
002ab0 f000
002ab1 f03c
002ab2 f0f0
002ab3 3f3c
002ab4 0f3c
002ab5 3cf0
002ab6 f30f
002ab7 f0f0                      .db  0x00, 0xF0, 0x3C, 0xF0, 0xF0, 0xF0, 0x3C, 0x3F, 0x3C, 0x0F, 0xF0, 0x3C, 0x0F, 0xF3, 0xF0, 0xF0
002ab8 3f3f
002ab9 003c
002aba f00f
002abb ff3f
002abc 3f3c
002abd 0f3c
002abe 0f03
002abf f000                      .db  0x3F, 0x3F, 0x3C, 0x00, 0x0F, 0xF0, 0x3F, 0xFF, 0x3C, 0x3F, 0x3C, 0x0F, 0x03, 0x0F, 0x00, 0xF0
002ac0 f003
002ac1 3cf0
002ac2 f0f0
002ac3 3ff0
002ac4 f03c
002ac5 0ff0
002ac6 0f03
002ac7 fff0                      .db  0x03, 0xF0, 0xF0, 0x3C, 0xF0, 0xF0, 0xF0, 0x3F, 0x3C, 0xF0, 0xF0, 0x0F, 0x03, 0x0F, 0xF0, 0xFF
002ac8 f03c
002ac9 f0f0
002aca f0f0
002acb f0f0
002acc 0f3f
002acd 3ff0
002ace fffc
002acf 03f0                      .db  0x3C, 0xF0, 0xF0, 0xF0, 0xF0, 0xF0, 0xF0, 0xF0, 0x3F, 0x0F, 0xF0, 0x3F, 0xFC, 0xFF, 0xF0, 0x03
002ad0 0ff0
002ad1 f0f0
002ad2 f3f0
002ad3 3f3f
002ad4 f0f0
002ad5 3c00
002ad6 033c
002ad7 f00f                      .db  0xF0, 0x0F, 0xF0, 0xF0, 0xF0, 0xF3, 0x3F, 0x3F, 0xF0, 0xF0, 0x00, 0x3C, 0x3C, 0x03, 0x0F, 0xF0
002ad8 ccc0
002ad9 033f
002ada 0303
002adb 0f0f
002adc 0f03
002add 0f0f
002ade 0000
002adf 0300                      .db  0xC0, 0xCC, 0x3F, 0x03, 0x03, 0x03, 0x0F, 0x0F, 0x03, 0x0F, 0x0F, 0x0F, 0x00, 0x00, 0x00, 0x03
002ae0 0000
002ae1 0303
002ae2 0300
002ae3 0f03
002ae4 0f00
002ae5 0f00
002ae6 000f
002ae7 000f                      .db  0x00, 0x00, 0x03, 0x03, 0x00, 0x03, 0x03, 0x0F, 0x00, 0x0F, 0x00, 0x0F, 0x0F, 0x00, 0x0F, 0x00
002ae8 0300
002ae9 000f
002aea 0300
002aeb 0f0f
002aec 0003
002aed ff03
002aee ffff
002aef 0000                      .db  0x00, 0x03, 0x0F, 0x00, 0x00, 0x03, 0x0F, 0x0F, 0x03, 0x00, 0x03, 0xFF, 0xFF, 0xFF, 0x00, 0x00
002af0 fff3
002af1 3cf0
002af2 f3f0
002af3 033f
002af4 3c3f
002af5 f03c
002af6 3f3f
002af7 f03c                      .db  0xF3, 0xFF, 0xF0, 0x3C, 0xF0, 0xF3, 0x3F, 0x03, 0x3F, 0x3C, 0x3C, 0xF0, 0x3F, 0x3F, 0x3C, 0xF0
002af8 00ff
002af9 0000
002afa f303
002afb f30f
002afc 0000
002afd 3c00
002afe 0000
002aff 000f                      .db  0xFF, 0x00, 0x00, 0x00, 0x03, 0xF3, 0x0F, 0xF3, 0x00, 0x00, 0x00, 0x3C, 0x00, 0x00, 0x0F, 0x00
                                 
                                 ; Character line 6:
                                 ;     0     1     2     3     4     5     6     7     8     9    10    11    12    13    14    15
002b00 c000
002b01 03ff
002b02 0303
002b03 0003
002b04 0fff
002b05 f0f0
002b06 ff3f
002b07 f3fc                      .db  0x00, 0xC0, 0xFF, 0x03, 0x03, 0x03, 0x03, 0x00, 0xFF, 0x0F, 0xF0, 0xF0, 0x3F, 0xFF, 0xFC, 0xF3
002b08 00c0
002b09 3c0f
002b0a f003
002b0b 033f
002b0c 0303
002b0d 0000
002b0e 0000
002b0f 0000                      .db  0xC0, 0x00, 0x0F, 0x3C, 0x03, 0xF0, 0x3F, 0x03, 0x03, 0x03, 0x00, 0x00, 0x00, 0x00, 0x00, 0x00
002b10 0f00
002b11 3c00
002b12 f00f
002b13 003f
002b14 3c03
002b15 0000
002b16 000f
002b17 c00f                      .db  0x00, 0x0F, 0x00, 0x3C, 0x0F, 0xF0, 0x3F, 0x00, 0x03, 0x3C, 0x00, 0x00, 0x0F, 0x00, 0x0F, 0xC0
002b18 ff3f
002b19 3fff
002b1a 3f03
002b1b 0f3f
002b1c 3f3f
002b1d 0f0f
002b1e 0003
002b1f 0f3c                      .db  0x3F, 0xFF, 0xFF, 0x3F, 0x03, 0x3F, 0x3F, 0x0F, 0x3F, 0x3F, 0x0F, 0x0F, 0x03, 0x00, 0x3C, 0x0F
002b20 f03f
002b21 0fff
002b22 ffff
002b23 0fff
002b24 3ff0
002b25 fc3f
002b26 f0ff
002b27 0ff0                      .db  0x3F, 0xF0, 0xFF, 0x0F, 0xFF, 0xFF, 0xFF, 0x0F, 0xF0, 0x3F, 0x3F, 0xFC, 0xFF, 0xF0, 0xF0, 0x0F
002b28 03ff
002b29 3ffc
002b2a ff3f
002b2b f00f
002b2c 3ff0
002b2d 3fff
002b2e 3f00
002b2f 0000                      .db  0xFF, 0x03, 0xFC, 0x3F, 0x3F, 0xFF, 0x0F, 0xF0, 0xF0, 0x3F, 0xFF, 0x3F, 0x00, 0x3F, 0x00, 0x00
002b30 3f00
002b31 3ff3
002b32 3f3f
002b33 00ff
002b34 3ffc
002b35 fcf0
002b36 f03f
002b37 3ff0                      .db  0x00, 0x3F, 0xF3, 0x3F, 0x3F, 0x3F, 0xFF, 0x00, 0xFC, 0x3F, 0xF0, 0xFC, 0x3F, 0xF0, 0xF0, 0x3F
002b38 003c
002b39 ffff
002b3a 3f03
002b3b 3c0f
002b3c 00f0
002b3d 03ff
002b3e fc03
002b3f ff00                      .db  0x3C, 0x00, 0xFF, 0xFF, 0x03, 0x3F, 0x0F, 0x3C, 0xF0, 0x00, 0xFF, 0x03, 0x03, 0xFC, 0x00, 0xFF
002b40 3f00
002b41 0f3f
002b42 3f3f
002b43 003f
002b44 3f0f
002b45 3f3f
002b46 3f0f
002b47 f0f0                      .db  0x00, 0x3F, 0x3F, 0x0F, 0x3F, 0x3F, 0x3F, 0x00, 0x0F, 0x3F, 0x3F, 0x3F, 0x0F, 0x3F, 0xF0, 0xF0
002b48 3fff
002b49 3ff0
002b4a 3f3f
002b4b 3f3f
002b4c 0300
002b4d 033f
002b4e 0fff
002b4f f3f0                      .db  0xFF, 0x3F, 0xF0, 0x3F, 0x3F, 0x3F, 0x3F, 0x3F, 0x00, 0x03, 0x3F, 0x03, 0xFF, 0x0F, 0xF0, 0xF3
002b50 3f3f
002b51 3f3f
002b52 f0f0
002b53 0000
002b54 003f
002b55 f000
002b56 03f0
002b57 0000                      .db  0x3F, 0x3F, 0x3F, 0x3F, 0xF0, 0xF0, 0x00, 0x00, 0x3F, 0x00, 0x00, 0xF0, 0xF0, 0x03, 0x00, 0x00
002b58 330c
002b59 03f3
002b5a 0303
002b5b 0f0f
002b5c 0f03
002b5d 0f0f
002b5e 0000
002b5f 0300                      .db  0x0C, 0x33, 0xF3, 0x03, 0x03, 0x03, 0x0F, 0x0F, 0x03, 0x0F, 0x0F, 0x0F, 0x00, 0x00, 0x00, 0x03
002b60 0000
002b61 0303
002b62 0300
002b63 0f03
002b64 0f00
002b65 0f00
002b66 000f
002b67 000f                      .db  0x00, 0x00, 0x03, 0x03, 0x00, 0x03, 0x03, 0x0F, 0x00, 0x0F, 0x00, 0x0F, 0x0F, 0x00, 0x0F, 0x00
002b68 0300
002b69 000f
002b6a 0300
002b6b 0f0f
002b6c 0003
002b6d ff03
002b6e ffff
002b6f 0000                      .db  0x00, 0x03, 0x0F, 0x00, 0x00, 0x03, 0x0F, 0x0F, 0x03, 0x00, 0x03, 0xFF, 0xFF, 0xFF, 0x00, 0x00
002b70 f03f
002b71 3cf0
002b72 3fff
002b73 033c
002b74 0f0f
002b75 3ffc
002b76 3c00
002b77 f00f                      .db  0x3F, 0xF0, 0xF0, 0x3C, 0xFF, 0x3F, 0x3C, 0x03, 0x0F, 0x0F, 0xFC, 0x3F, 0x00, 0x3C, 0x0F, 0xF0
002b78 ff00
002b79 ffff
002b7a f303
002b7b 000f
002b7c 0000
002b7d 0f00
002b7e 0000
002b7f 0000                      .db  0x00, 0xFF, 0xFF, 0xFF, 0x03, 0xF3, 0x0F, 0x00, 0x00, 0x00, 0x00, 0x0F, 0x00, 0x00, 0x00, 0x00
                                 
                                 ; Character line 7:
                                 ;     0     1     2     3     4     5     6     7     8     9    10    11    12    13    14    15
002b80 3f00
002b81 003f
002b82 0f00
002b83 000f
002b84 00ff
002b85 3fff
002b86 fc03
002b87 03f0                      .db  0x00, 0x3F, 0x3F, 0x00, 0x00, 0x0F, 0x0F, 0x00, 0xFF, 0x00, 0xFF, 0x3F, 0x03, 0xFC, 0xF0, 0x03
002b88 0000
002b89 0003
002b8a 3f00
002b8b ff00
002b8c 0000
002b8d 0000
002b8e 0000
002b8f 0000                      .db  0x00, 0x00, 0x03, 0x00, 0x00, 0x3F, 0x00, 0xFF, 0x00, 0x00, 0x00, 0x00, 0x00, 0x00, 0x00, 0x00
002b90 0000
002b91 0000
002b92 0000
002b93 0000
002b94 0000
002b95 0000
002b96 003c
002b97 0000                      .db  0x00, 0x00, 0x00, 0x00, 0x00, 0x00, 0x00, 0x00, 0x00, 0x00, 0x00, 0x00, 0x3C, 0x00, 0x00, 0x00
002b98 0000
002b99 0000
002b9a 0000
002b9b 0000
002b9c 0000
002b9d 3c00
002b9e 0000
002b9f 0000                      .db  0x00, 0x00, 0x00, 0x00, 0x00, 0x00, 0x00, 0x00, 0x00, 0x00, 0x00, 0x3C, 0x00, 0x00, 0x00, 0x00
002ba0 0000
002ba1 0000
002ba2 0000
002ba3 0000
002ba4 0000
002ba5 0000
002ba6 0000
002ba7 0000                      .db  0x00, 0x00, 0x00, 0x00, 0x00, 0x00, 0x00, 0x00, 0x00, 0x00, 0x00, 0x00, 0x00, 0x00, 0x00, 0x00
002ba8 0000
002ba9 0000
002baa 0000
002bab 0000
002bac 0000
002bad 0000
002bae 0000
002baf ff00                      .db  0x00, 0x00, 0x00, 0x00, 0x00, 0x00, 0x00, 0x00, 0x00, 0x00, 0x00, 0x00, 0x00, 0x00, 0x00, 0xFF
002bb0 0000
002bb1 0000
002bb2 0000
002bb3 ff00
002bb4 0000
002bb5 003f
002bb6 0000
002bb7 0000                      .db  0x00, 0x00, 0x00, 0x00, 0x00, 0x00, 0x00, 0xFF, 0x00, 0x00, 0x3F, 0x00, 0x00, 0x00, 0x00, 0x00
002bb8 03ff
002bb9 0000
002bba 0000
002bbb 0000
002bbc ff00
002bbd 0000
002bbe 0000
002bbf 0000                      .db  0xFF, 0x03, 0x00, 0x00, 0x00, 0x00, 0x00, 0x00, 0x00, 0xFF, 0x00, 0x00, 0x00, 0x00, 0x00, 0x00
002bc0 003f
002bc1 0000
002bc2 0000
002bc3 0f00
002bc4 0000
002bc5 0000
002bc6 0000
002bc7 0000                      .db  0x3F, 0x00, 0x00, 0x00, 0x00, 0x00, 0x00, 0x0F, 0x00, 0x00, 0x00, 0x00, 0x00, 0x00, 0x00, 0x00
002bc8 0000
002bc9 0000
002bca 0000
002bcb 0000
002bcc 00ff
002bcd 0300
002bce 0f00
002bcf 3ff0                      .db  0x00, 0x00, 0x00, 0x00, 0x00, 0x00, 0x00, 0x00, 0xFF, 0x00, 0x00, 0x03, 0x00, 0x0F, 0xF0, 0x3F
002bd0 0000
002bd1 0000
002bd2 0000
002bd3 0000
002bd4 0000
002bd5 0000
002bd6 0000
002bd7 0000                      .db  0x00, 0x00, 0x00, 0x00, 0x00, 0x00, 0x00, 0x00, 0x00, 0x00, 0x00, 0x00, 0x00, 0x00, 0x00, 0x00
002bd8 ccc0
002bd9 03fc
002bda 0303
002bdb 0f0f
002bdc 0f03
002bdd 0f0f
002bde 0000
002bdf 0300                      .db  0xC0, 0xCC, 0xFC, 0x03, 0x03, 0x03, 0x0F, 0x0F, 0x03, 0x0F, 0x0F, 0x0F, 0x00, 0x00, 0x00, 0x03
002be0 0000
002be1 0303
002be2 0300
002be3 0f03
002be4 0f00
002be5 0f00
002be6 000f
002be7 000f                      .db  0x00, 0x00, 0x03, 0x03, 0x00, 0x03, 0x03, 0x0F, 0x00, 0x0F, 0x00, 0x0F, 0x0F, 0x00, 0x0F, 0x00
002be8 0300
002be9 000f
002bea 0300
002beb 0f0f
002bec 0003
002bed ff03
002bee ffff
002bef 0000                      .db  0x00, 0x03, 0x0F, 0x00, 0x00, 0x03, 0x0F, 0x0F, 0x03, 0x00, 0x03, 0xFF, 0xFF, 0xFF, 0x00, 0x00
002bf0 f000
002bf1 0000
002bf2 0000
002bf3 00f0
002bf4 00ff
002bf5 0000
002bf6 f000
002bf7 0000                      .db  0x00, 0xF0, 0x00, 0x00, 0x00, 0x00, 0xF0, 0x00, 0xFF, 0x00, 0x00, 0x00, 0x00, 0xF0, 0x00, 0x00
002bf8 0000
002bf9 0000
002bfa 3f03
002bfb 0000
002bfc 0000
002bfd 0300
002bfe 0000
002bff 0000                      .db  0x00, 0x00, 0x00, 0x00, 0x03, 0x3F, 0x00, 0x00, 0x00, 0x00, 0x00, 0x03, 0x00, 0x00, 0x00, 0x00
                                 
                                 
                                 ; 40 Char / line font (double width) right half of each char
                                 
                                 ; Character line 0:
                                 ;     0     1     2     3     4     5     6     7     8     9    10    11    12    13    14    15
002c00 fc00
002c01 f0fc
002c02 c000
002c03 0000
002c04 00ff
002c05 ffff
002c06 fff0
002c07 c0ff                      .db  0x00, 0xFC, 0xFC, 0xF0, 0x00, 0xC0, 0x00, 0x00, 0xFF, 0x00, 0xFF, 0xFF, 0xF0, 0xFF, 0xFF, 0xC0
002c08 0c00
002c09 3cc0
002c0a fcff
002c0b c000
002c0c c0c0
002c0d 0000
002c0e 0000
002c0f 0000                      .db  0x00, 0x0C, 0xC0, 0x3C, 0xFF, 0xFC, 0x00, 0xC0, 0xC0, 0xC0, 0x00, 0x00, 0x00, 0x00, 0x00, 0x00
002c10 0000
002c11 f0f0
002c12 0000
002c13 00c0
002c14 00c0
002c15 0000
002c16 0000
002c17 3c00                      .db  0x00, 0x00, 0xF0, 0xF0, 0x00, 0x00, 0xC0, 0x00, 0xC0, 0x00, 0x00, 0x00, 0x00, 0x00, 0x00, 0x3C
002c18 00f0
002c19 c0c0
002c1a f0f0
002c1b f0c0
002c1c c0c0
002c1d 0000
002c1e 00c0
002c1f c000                      .db  0xF0, 0x00, 0xC0, 0xC0, 0xF0, 0xF0, 0xC0, 0xF0, 0xC0, 0xC0, 0x00, 0x00, 0xC0, 0x00, 0x00, 0xC0
002c20 00f0
002c21 f0f0
002c22 fcc0
002c23 f0fc
002c24 c0f0
002c25 3cfc
002c26 3c00
002c27 c03c                      .db  0xF0, 0x00, 0xF0, 0xF0, 0xC0, 0xFC, 0xFC, 0xF0, 0xF0, 0xC0, 0xFC, 0x3C, 0x00, 0x3C, 0x3C, 0xC0
002c28 c0f0
002c29 c0f0
002c2a f0f0
002c2b 3cf0
002c2c f03c
002c2d c0fc
002c2e c000
002c2f 0000                      .db  0xF0, 0xC0, 0xF0, 0xC0, 0xF0, 0xF0, 0xF0, 0x3C, 0x3C, 0xF0, 0xFC, 0xC0, 0x00, 0xC0, 0x00, 0x00
002c30 0000
002c31 0000
002c32 00f0
002c33 00c0
002c34 0000
002c35 00f0
002c36 0000
002c37 0000                      .db  0x00, 0x00, 0x00, 0x00, 0xF0, 0x00, 0xC0, 0x00, 0x00, 0x00, 0xF0, 0x00, 0x00, 0x00, 0x00, 0x00
002c38 0000
002c39 0000
002c3a 0000
002c3b 0000
002c3c 0000
002c3d f000
002c3e 00c0
002c3f 003c                      .db  0x00, 0x00, 0x00, 0x00, 0x00, 0x00, 0x00, 0x00, 0x00, 0x00, 0x00, 0xF0, 0xC0, 0x00, 0x3C, 0x00
002c40 00c0
002c41 fcf0
002c42 00f0
002c43 0000
002c44 f0fc
002c45 f000
002c46 00f0
002c47 003c                      .db  0xC0, 0x00, 0xF0, 0xFC, 0xF0, 0x00, 0x00, 0x00, 0xFC, 0xF0, 0x00, 0xF0, 0xF0, 0x00, 0x3C, 0x00
002c48 00f0
002c49 c0fc
002c4a 0000
002c4b 00c0
002c4c 0f00
002c4d c0f0
002c4e f0c0
002c4f fcc0                      .db  0xF0, 0x00, 0xFC, 0xC0, 0x00, 0x00, 0xC0, 0x00, 0x00, 0x0F, 0xF0, 0xC0, 0xC0, 0xF0, 0xC0, 0xFC
002c50 c0f0
002c51 0000
002c52 f000
002c53 c0f0
002c54 0000
002c55 0f00
002c56 c00f
002c57 0000                      .db  0xF0, 0xC0, 0x00, 0x00, 0x00, 0xF0, 0xF0, 0xC0, 0x00, 0x00, 0x00, 0x0F, 0x0F, 0xC0, 0x00, 0x00
002c58 330c
002c59 c0cf
002c5a c0c0
002c5b 003c
002c5c 3c00
002c5d 003c
002c5e 3c3c
002c5f 00c0                      .db  0x0C, 0x33, 0xCF, 0xC0, 0xC0, 0xC0, 0x3C, 0x00, 0x00, 0x3C, 0x3C, 0x00, 0x3C, 0x3C, 0xC0, 0x00
002c60 c0c0
002c61 c000
002c62 c000
002c63 3cc0
002c64 003c
002c65 003c
002c66 003c
002c67 c03c                      .db  0xC0, 0xC0, 0x00, 0xC0, 0x00, 0xC0, 0xC0, 0x3C, 0x3C, 0x00, 0x3C, 0x00, 0x3C, 0x00, 0x3C, 0xC0
002c68 003c
002c69 3c00
002c6a 00c0
002c6b 3c00
002c6c c0c0
002c6d ff00
002c6e 0000
002c6f ffff                      .db  0x3C, 0x00, 0x00, 0x3C, 0xC0, 0x00, 0x00, 0x3C, 0xC0, 0xC0, 0x00, 0xFF, 0x00, 0x00, 0xFF, 0xFF
002c70 0000
002c71 0000
002c72 00f0
002c73 0000
002c74 c0f0
002c75 f0c0
002c76 3c00
002c77 c0c0                      .db  0x00, 0x00, 0x00, 0x00, 0xF0, 0x00, 0x00, 0x00, 0xF0, 0xC0, 0xC0, 0xF0, 0x00, 0x3C, 0xC0, 0xC0
002c78 0000
002c79 c000
002c7a c0fc
002c7b 0000
002c7c 00c0
002c7d ff00
002c7e 00c0
002c7f 0000                      .db  0x00, 0x00, 0x00, 0xC0, 0xFC, 0xC0, 0x00, 0x00, 0xC0, 0x00, 0x00, 0xFF, 0xC0, 0x00, 0x00, 0x00
                                 
                                 ; Character line 1:
                                 ;     0     1     2     3     4     5     6     7     8     9    10    11    12    13    14    15
002c80 0300
002c81 fcff
002c82 f0c0
002c83 0000
002c84 f0ff
002c85 3f0f
002c86 0f3c
002c87 cf0f                      .db  0x00, 0x03, 0xFF, 0xFC, 0xC0, 0xF0, 0x00, 0x00, 0xFF, 0xF0, 0x0F, 0x3F, 0x3C, 0x0F, 0x0F, 0xCF
002c88 fc00
002c89 3cf0
002c8a 0fcf
002c8b f000
002c8c c0f0
002c8d 00c0
002c8e 3000
002c8f ffc0                      .db  0x00, 0xFC, 0xF0, 0x3C, 0xCF, 0x0F, 0x00, 0xF0, 0xF0, 0xC0, 0xC0, 0x00, 0x00, 0x30, 0xC0, 0xFF
002c90 c000
002c91 f0f0
002c92 3cf0
002c93 00f0
002c94 0000
002c95 003c
002c96 0000
002c97 f000                      .db  0x00, 0xC0, 0xF0, 0xF0, 0xF0, 0x3C, 0xF0, 0x00, 0x00, 0x00, 0x3C, 0x00, 0x00, 0x00, 0x00, 0xF0
002c98 003c
002c99 f0f0
002c9a 00f0
002c9b f000
002c9c f0f0
002c9d 0000
002c9e 0000
002c9f f000                      .db  0x3C, 0x00, 0xF0, 0xF0, 0xF0, 0x00, 0x00, 0xF0, 0xF0, 0xF0, 0x00, 0x00, 0x00, 0x00, 0x00, 0xF0
002ca0 c03c
002ca1 3c3c
002ca2 0cf0
002ca3 3c0c
002ca4 00f0
002ca5 3cf0
002ca6 fc00
002ca7 f03c                      .db  0x3C, 0xC0, 0x3C, 0x3C, 0xF0, 0x0C, 0x0C, 0x3C, 0xF0, 0x00, 0xF0, 0x3C, 0x00, 0xFC, 0x3C, 0xF0
002ca8 f03c
002ca9 f03c
002caa f030
002cab 3cf0
002cac f03c
002cad 003c
002cae c000
002caf 00c0                      .db  0x3C, 0xF0, 0x3C, 0xF0, 0x30, 0xF0, 0xF0, 0x3C, 0x3C, 0xF0, 0x3C, 0x00, 0x00, 0xC0, 0xC0, 0x00
002cb0 0000
002cb1 0000
002cb2 00f0
002cb3 00f0
002cb4 0000
002cb5 0000
002cb6 0000
002cb7 0000                      .db  0x00, 0x00, 0x00, 0x00, 0xF0, 0x00, 0xF0, 0x00, 0x00, 0x00, 0x00, 0x00, 0x00, 0x00, 0x00, 0x00
002cb8 0000
002cb9 0000
002cba 0000
002cbb 0000
002cbc 0000
002cbd 0000
002cbe 00c0
002cbf 00f0                      .db  0x00, 0x00, 0x00, 0x00, 0x00, 0x00, 0x00, 0x00, 0x00, 0x00, 0x00, 0x00, 0xC0, 0x00, 0xF0, 0x00
002cc0 f0f0
002cc1 0f00
002cc2 0000
002cc3 0000
002cc4 000f
002cc5 0000
002cc6 003c
002cc7 00c0                      .db  0xF0, 0xF0, 0x00, 0x0F, 0x00, 0x00, 0x00, 0x00, 0x0F, 0x00, 0x00, 0x00, 0x3C, 0x00, 0xC0, 0x00
002cc8 0000
002cc9 f0f0
002cca 00f0
002ccb 00f0
002ccc c0f0
002ccd c000
002cce f0f0
002ccf cff0                      .db  0x00, 0x00, 0xF0, 0xF0, 0xF0, 0x00, 0xF0, 0x00, 0xF0, 0xC0, 0x00, 0xC0, 0xF0, 0xF0, 0xF0, 0xCF
002cd0 0000
002cd1 f0f0
002cd2 00c0
002cd3 f0f0
002cd4 0000
002cd5 3c00
002cd6 c03c
002cd7 f00f                      .db  0x00, 0x00, 0xF0, 0xF0, 0xC0, 0x00, 0xF0, 0xF0, 0x00, 0x00, 0x00, 0x3C, 0x3C, 0xC0, 0x0F, 0xF0
002cd8 ccc0
002cd9 c03f
002cda c0c0
002cdb 003c
002cdc 3c00
002cdd 003c
002cde 3c3c
002cdf 00c0                      .db  0xC0, 0xCC, 0x3F, 0xC0, 0xC0, 0xC0, 0x3C, 0x00, 0x00, 0x3C, 0x3C, 0x00, 0x3C, 0x3C, 0xC0, 0x00
002ce0 c0c0
002ce1 c000
002ce2 c000
002ce3 3cc0
002ce4 003c
002ce5 003c
002ce6 003c
002ce7 c03c                      .db  0xC0, 0xC0, 0x00, 0xC0, 0x00, 0xC0, 0xC0, 0x3C, 0x3C, 0x00, 0x3C, 0x00, 0x3C, 0x00, 0x3C, 0xC0
002ce8 003c
002ce9 3c00
002cea 00c0
002ceb 3c00
002cec c0c0
002ced ff00
002cee 0000
002cef ffff                      .db  0x3C, 0x00, 0x00, 0x3C, 0xC0, 0x00, 0x00, 0x3C, 0xC0, 0xC0, 0x00, 0xFF, 0x00, 0x00, 0xFF, 0xFF
002cf0 c000
002cf1 fcf0
002cf2 00f0
002cf3 3c3c
002cf4 f000
002cf5 00f0
002cf6 f000
002cf7 f000                      .db  0x00, 0xC0, 0xF0, 0xFC, 0xF0, 0x00, 0x3C, 0x3C, 0x00, 0xF0, 0xF0, 0x00, 0x00, 0xF0, 0x00, 0xF0
002cf8 00f0
002cf9 0000
002cfa c0cf
002cfb 3c00
002cfc 00f0
002cfd f000
002cfe c0f0
002cff 0000                      .db  0xF0, 0x00, 0x00, 0x00, 0xCF, 0xC0, 0x00, 0x3C, 0xF0, 0x00, 0x00, 0xF0, 0xF0, 0xC0, 0x00, 0x00
                                 
                                 ; Character line 2:
                                 ;     0     1     2     3     4     5     6     7     8     9    10    11    12    13    14    15
002d00 3300
002d01 fccf
002d02 c0f0
002d03 c0c0
002d04 3c3f
002d05 ffc3
002d06 ff3c
002d07 f0ff                      .db  0x00, 0x33, 0xCF, 0xFC, 0xF0, 0xC0, 0xC0, 0xC0, 0x3F, 0x3C, 0xC3, 0xFF, 0x3C, 0xFF, 0xFF, 0xF0
002d08 fcc0
002d09 3cfc
002d0a c0cf
002d0b fc00
002d0c c0fc
002d0d 00f0
002d0e 3c00
002d0f fff0                      .db  0xC0, 0xFC, 0xFC, 0x3C, 0xCF, 0xC0, 0x00, 0xFC, 0xFC, 0xC0, 0xF0, 0x00, 0x00, 0x3C, 0xF0, 0xFF
002d10 c000
002d11 fcf0
002d12 f000
002d13 00c0
002d14 c000
002d15 00f0
002d16 0000
002d17 c000                      .db  0x00, 0xC0, 0xF0, 0xFC, 0x00, 0xF0, 0xC0, 0x00, 0x00, 0xC0, 0xF0, 0x00, 0x00, 0x00, 0x00, 0xC0
002d18 00fc
002d19 f0f0
002d1a c0f0
002d1b f000
002d1c f0f0
002d1d 0000
002d1e f000
002d1f f0c0                      .db  0xFC, 0x00, 0xF0, 0xF0, 0xF0, 0xC0, 0x00, 0xF0, 0xF0, 0xF0, 0x00, 0x00, 0x00, 0xF0, 0xC0, 0xF0
002d20 f0fc
002d21 003c
002d22 c03c
002d23 00c0
002d24 00f0
002d25 f0f0
002d26 fc00
002d27 3c3c                      .db  0xFC, 0xF0, 0x3C, 0x00, 0x3C, 0xC0, 0xC0, 0x00, 0xF0, 0x00, 0xF0, 0xF0, 0x00, 0xFC, 0x3C, 0x3C
002d28 f03c
002d29 003c
002d2a f000
002d2b 3cf0
002d2c f0f0
002d2d 00f0
002d2e c000
002d2f 00f0                      .db  0x3C, 0xF0, 0x3C, 0x00, 0x00, 0xF0, 0xF0, 0x3C, 0xF0, 0xF0, 0xF0, 0x00, 0x00, 0xC0, 0xF0, 0x00
002d30 c0c0
002d31 c000
002d32 c0f0
002d33 3c00
002d34 00f0
002d35 3cf0
002d36 f000
002d37 c0c0                      .db  0xC0, 0xC0, 0x00, 0xC0, 0xF0, 0xC0, 0x00, 0x3C, 0xF0, 0x00, 0xF0, 0x3C, 0x00, 0xF0, 0xC0, 0xC0
002d38 3cf0
002d39 f0f0
002d3a f0f0
002d3b 3cf0
002d3c f03c
002d3d 00f0
002d3e 00c0
002d3f c000                      .db  0xF0, 0x3C, 0xF0, 0xF0, 0xF0, 0xF0, 0xF0, 0x3C, 0x3C, 0xF0, 0xF0, 0x00, 0xC0, 0x00, 0x00, 0xC0
002d40 0000
002d41 f0c0
002d42 c0c0
002d43 c0c0
002d44 c0f0
002d45 00c0
002d46 00c0
002d47 00f0                      .db  0x00, 0x00, 0xC0, 0xF0, 0xC0, 0xC0, 0xC0, 0xC0, 0xF0, 0xC0, 0xC0, 0x00, 0xC0, 0x00, 0xF0, 0x00
002d48 fff0
002d49 00f0
002d4a 0000
002d4b 0000
002d4c f000
002d4d fcf0
002d4e c030
002d4f c0f0                      .db  0xF0, 0xFF, 0xF0, 0x00, 0x00, 0x00, 0x00, 0x00, 0x00, 0xF0, 0xF0, 0xFC, 0x30, 0xC0, 0xF0, 0xC0
002d50 00c0
002d51 0000
002d52 f000
002d53 f0f0
002d54 0000
002d55 f000
002d56 00f0
002d57 3c3c                      .db  0xC0, 0x00, 0x00, 0x00, 0x00, 0xF0, 0xF0, 0xF0, 0x00, 0x00, 0x00, 0xF0, 0xF0, 0x00, 0x3C, 0x3C
002d58 330c
002d59 c0cf
002d5a c0c0
002d5b 003c
002d5c 3cc0
002d5d fc3c
002d5e 3c3c
002d5f 00c0                      .db  0x0C, 0x33, 0xCF, 0xC0, 0xC0, 0xC0, 0x3C, 0x00, 0xC0, 0x3C, 0x3C, 0xFC, 0x3C, 0x3C, 0xC0, 0x00
002d60 c0c0
002d61 c000
002d62 c000
002d63 3cff
002d64 ff3f
002d65 ff3f
002d66 ff3f
002d67 ff3f                      .db  0xC0, 0xC0, 0x00, 0xC0, 0x00, 0xC0, 0xFF, 0x3C, 0x3F, 0xFF, 0x3F, 0xFF, 0x3F, 0xFF, 0x3F, 0xFF
002d68 ff3c
002d69 3c00
002d6a ffff
002d6b 3c00
002d6c c0ff
002d6d ff00
002d6e 0000
002d6f ffff                      .db  0x3C, 0xFF, 0x00, 0x3C, 0xFF, 0xFF, 0x00, 0x3C, 0xFF, 0xC0, 0x00, 0xFF, 0x00, 0x00, 0xFF, 0xFF
002d70 f03c
002d71 f0f0
002d72 fc00
002d73 f03c
002d74 3cc0
002d75 c03c
002d76 fcfc
002d77 f000                      .db  0x3C, 0xF0, 0xF0, 0xF0, 0x00, 0xFC, 0x3C, 0xF0, 0xC0, 0x3C, 0x3C, 0xC0, 0xFC, 0xFC, 0x00, 0xF0
002d78 f000
002d79 00c0
002d7a c0cf
002d7b f000
002d7c 00f0
002d7d f000
002d7e 00f0
002d7f 00f0                      .db  0x00, 0xF0, 0xC0, 0x00, 0xCF, 0xC0, 0x00, 0xF0, 0xF0, 0x00, 0x00, 0xF0, 0xF0, 0x00, 0xF0, 0x00
                                 
                                 ; Character line 3:
                                 ;     0     1     2     3     4     5     6     7     8     9    10    11    12    13    14    15
002d80 0300
002d81 fcff
002d82 fcfc
002d83 f0f0
002d84 0c0f
002d85 f3f3
002d86 003c
002d87 3f0f                      .db  0x00, 0x03, 0xFF, 0xFC, 0xFC, 0xFC, 0xF0, 0xF0, 0x0F, 0x0C, 0xF3, 0xF3, 0x3C, 0x00, 0x0F, 0x3F
002d88 fcfc
002d89 3cc0
002d8a f0cf
002d8b c000
002d8c c0c0
002d8d fcfc
002d8e ff00
002d8f fcfc                      .db  0xFC, 0xFC, 0xC0, 0x3C, 0xCF, 0xF0, 0x00, 0xC0, 0xC0, 0xC0, 0xFC, 0xFC, 0x00, 0xFF, 0xFC, 0xFC
002d90 0000
002d91 f000
002d92 c0c0
002d93 003c
002d94 c000
002d95 f0ff
002d96 f000
002d97 0000                      .db  0x00, 0x00, 0x00, 0xF0, 0xC0, 0xC0, 0x3C, 0x00, 0x00, 0xC0, 0xFF, 0xF0, 0x00, 0xF0, 0x00, 0x00
002d98 00fc
002d99 c0c0
002d9a f0f0
002d9b c0c0
002d9c f0c0
002d9d 0000
002d9e 0000
002d9f c0f0                      .db  0xFC, 0x00, 0xC0, 0xC0, 0xF0, 0xF0, 0xC0, 0xC0, 0xC0, 0xF0, 0x00, 0x00, 0x00, 0x00, 0xF0, 0xC0
002da0 f0fc
002da1 00f0
002da2 c03c
002da3 00c0
002da4 00f0
002da5 c0f0
002da6 fc00
002da7 3cfc                      .db  0xFC, 0xF0, 0xF0, 0x00, 0x3C, 0xC0, 0xC0, 0x00, 0xF0, 0x00, 0xF0, 0xC0, 0x00, 0xFC, 0xFC, 0x3C
002da8 f0f0
002da9 00f0
002daa f000
002dab 3cf0
002dac c0c0
002dad 00c0
002dae c0c0
002daf 003c                      .db  0xF0, 0xF0, 0xF0, 0x00, 0x00, 0xF0, 0xF0, 0x3C, 0xC0, 0xC0, 0xC0, 0x00, 0xC0, 0xC0, 0x3C, 0x00
002db0 f000
002db1 f0f0
002db2 f0f0
002db3 f000
002db4 003c
002db5 f0f0
002db6 fc00
002db7 f0f0                      .db  0x00, 0xF0, 0xF0, 0xF0, 0xF0, 0xF0, 0x00, 0xF0, 0x3C, 0x00, 0xF0, 0xF0, 0x00, 0xFC, 0xF0, 0xF0
002db8 f03c
002db9 003c
002dba f000
002dbb 3cf0
002dbc f0f0
002dbd 00c0
002dbe f000
002dbf f000                      .db  0x3C, 0xF0, 0x3C, 0x00, 0x00, 0xF0, 0xF0, 0x3C, 0xF0, 0xF0, 0xC0, 0x00, 0x00, 0xF0, 0x00, 0xF0
002dc0 f0f0
002dc1 3cf0
002dc2 f0f0
002dc3 00f0
002dc4 f03c
002dc5 00f0
002dc6 00c0
002dc7 c03c                      .db  0xF0, 0xF0, 0xF0, 0x3C, 0xF0, 0xF0, 0xF0, 0x00, 0x3C, 0xF0, 0xF0, 0x00, 0xC0, 0x00, 0x3C, 0xC0
002dc8 f000
002dc9 c0fc
002dca c0c0
002dcb f0f0
002dcc 3cf0
002dcd 00f0
002dce f000
002dcf f0cc                      .db  0x00, 0xF0, 0xFC, 0xC0, 0xC0, 0xC0, 0xF0, 0xF0, 0xF0, 0x3C, 0xF0, 0x00, 0x00, 0xF0, 0xCC, 0xF0
002dd0 00f0
002dd1 f0c0
002dd2 f0c0
002dd3 c0fc
002dd4 f000
002dd5 fcf0
002dd6 c0cf
002dd7 0ff0                      .db  0xF0, 0x00, 0xC0, 0xF0, 0xC0, 0xF0, 0xFC, 0xC0, 0x00, 0xF0, 0xF0, 0xFC, 0xCF, 0xC0, 0xF0, 0x0F
002dd8 ccc0
002dd9 c0fc
002dda c0c0
002ddb 003c
002ddc 3cc0
002ddd 3c3c
002dde 3c3c
002ddf 00c0                      .db  0xC0, 0xCC, 0xFC, 0xC0, 0xC0, 0xC0, 0x3C, 0x00, 0xC0, 0x3C, 0x3C, 0x3C, 0x3C, 0x3C, 0xC0, 0x00
002de0 c0c0
002de1 c000
002de2 c000
002de3 3cc0
002de4 0000
002de5 0000
002de6 0000
002de7 0000                      .db  0xC0, 0xC0, 0x00, 0xC0, 0x00, 0xC0, 0xC0, 0x3C, 0x00, 0x00, 0x00, 0x00, 0x00, 0x00, 0x00, 0x00
002de8 003c
002de9 3c00
002dea c0c0
002deb 3c00
002dec c0c0
002ded ff00
002dee 0000
002def ffff                      .db  0x3C, 0x00, 0x00, 0x3C, 0xC0, 0xC0, 0x00, 0x3C, 0xC0, 0xC0, 0x00, 0xFF, 0x00, 0x00, 0xFF, 0xFF
002df0 c0f0
002df1 f000
002df2 c000
002df3 c03c
002df4 fcf0
002df5 f03c
002df6 cfcf
002df7 f0c0                      .db  0xF0, 0xC0, 0x00, 0xF0, 0x00, 0xC0, 0x3C, 0xC0, 0xF0, 0xFC, 0x3C, 0xF0, 0xCF, 0xCF, 0xC0, 0xF0
002df8 00f0
002df9 0000
002dfa c0c0
002dfb 00f0
002dfc c0c0
002dfd f000
002dfe 00f0
002dff 00f0                      .db  0xF0, 0x00, 0x00, 0x00, 0xC0, 0xC0, 0xF0, 0x00, 0xC0, 0xC0, 0x00, 0xF0, 0xF0, 0x00, 0xF0, 0x00
                                 
                                 ; Character line 4:
                                 ;     0     1     2     3     4     5     6     7     8     9    10    11    12    13    14    15
002e00 f300
002e01 f00f
002e02 fcf0
002e03 f0fc
002e04 0c0f
002e05 f0f3
002e06 00f0
002e07 3f0f                      .db  0x00, 0xF3, 0x0F, 0xF0, 0xF0, 0xFC, 0xFC, 0xF0, 0x0F, 0x0C, 0xF3, 0xF0, 0xF0, 0x00, 0x0F, 0x3F
002e08 fcc0
002e09 3cc0
002e0a f0cf
002e0b fcfc
002e0c fcc0
002e0d 00f0
002e0e 3c00
002e0f f0ff                      .db  0xC0, 0xFC, 0xC0, 0x3C, 0xCF, 0xF0, 0xFC, 0xFC, 0xC0, 0xFC, 0xF0, 0x00, 0x00, 0x3C, 0xFF, 0xF0
002e10 0000
002e11 fc00
002e12 00f0
002e13 00f0
002e14 c000
002e15 00f0
002e16 0000
002e17 0000                      .db  0x00, 0x00, 0x00, 0xFC, 0xF0, 0x00, 0xF0, 0x00, 0x00, 0xC0, 0xF0, 0x00, 0x00, 0x00, 0x00, 0x00
002e18 003c
002e19 f000
002e1a f0fc
002e1b 00f0
002e1c f0f0
002e1d 0000
002e1e 0000
002e1f 00c0                      .db  0x3C, 0x00, 0x00, 0xF0, 0xFC, 0xF0, 0xF0, 0x00, 0xF0, 0xF0, 0x00, 0x00, 0x00, 0x00, 0xC0, 0x00
002e20 f0fc
002e21 003c
002e22 c03c
002e23 fcc0
002e24 00f0
002e25 f0f0
002e26 3c0c
002e27 3cfc                      .db  0xFC, 0xF0, 0x3C, 0x00, 0x3C, 0xC0, 0xC0, 0xFC, 0xF0, 0x00, 0xF0, 0xF0, 0x0C, 0x3C, 0xFC, 0x3C
002e28 f000
002e29 c0f0
002e2a f000
002e2b fcf0
002e2c 00c0
002e2d 000c
002e2e c0f0
002e2f 0000                      .db  0x00, 0xF0, 0xF0, 0xC0, 0x00, 0xF0, 0xF0, 0xFC, 0xC0, 0x00, 0x0C, 0x00, 0xF0, 0xC0, 0x00, 0x00
002e30 f000
002e31 003c
002e32 f0f0
002e33 f000
002e34 003c
002e35 c0f0
002e36 fc00
002e37 f0f0                      .db  0x00, 0xF0, 0x3C, 0x00, 0xF0, 0xF0, 0x00, 0xF0, 0x3C, 0x00, 0xF0, 0xC0, 0x00, 0xFC, 0xF0, 0xF0
002e38 f03c
002e39 c03c
002e3a f000
002e3b fcf0
002e3c f0c0
002e3d 0000
002e3e 00c0
002e3f 3c00                      .db  0x3C, 0xF0, 0x3C, 0xC0, 0x00, 0xF0, 0xF0, 0xFC, 0xC0, 0xF0, 0x00, 0x00, 0xC0, 0x00, 0x00, 0x3C
002e40 f0c0
002e41 fcf0
002e42 f0f0
002e43 00f0
002e44 f0fc
002e45 00f0
002e46 00c0
002e47 f0fc                      .db  0xC0, 0xF0, 0xF0, 0xFC, 0xF0, 0xF0, 0xF0, 0x00, 0xFC, 0xF0, 0xF0, 0x00, 0xC0, 0x00, 0xFC, 0xF0
002e48 ffc0
002e49 f0f0
002e4a f0f0
002e4b f0f0
002e4c 3cf0
002e4d 00f0
002e4e 0000
002e4f c03c                      .db  0xC0, 0xFF, 0xF0, 0xF0, 0xF0, 0xF0, 0xF0, 0xF0, 0xF0, 0x3C, 0xF0, 0x00, 0x00, 0x00, 0x3C, 0xC0
002e50 00f0
002e51 f0f0
002e52 f0f0
002e53 0000
002e54 0000
002e55 0ff0
002e56 c03f
002e57 3c3c                      .db  0xF0, 0x00, 0xF0, 0xF0, 0xF0, 0xF0, 0x00, 0x00, 0x00, 0x00, 0xF0, 0x0F, 0x3F, 0xC0, 0x3C, 0x3C
002e58 330c
002e59 c0cf
002e5a c0c0
002e5b fc3c
002e5c 3cc0
002e5d 3c3c
002e5e fcfc
002e5f c0c0                      .db  0x0C, 0x33, 0xCF, 0xC0, 0xC0, 0xC0, 0x3C, 0xFC, 0xC0, 0x3C, 0x3C, 0x3C, 0xFC, 0xFC, 0xC0, 0xC0
002e60 ffff
002e61 ffff
002e62 ffff
002e63 3fff
002e64 3fff
002e65 3fff
002e66 ff3f
002e67 ff3f                      .db  0xFF, 0xFF, 0xFF, 0xFF, 0xFF, 0xFF, 0xFF, 0x3F, 0xFF, 0x3F, 0xFF, 0x3F, 0x3F, 0xFF, 0x3F, 0xFF
002e68 ffff
002e69 ffff
002e6a ffff
002e6b ffff
002e6c c0ff
002e6d ffff
002e6e 00ff
002e6f 00ff                      .db  0xFF, 0xFF, 0xFF, 0xFF, 0xFF, 0xFF, 0xFF, 0xFF, 0xFF, 0xC0, 0xFF, 0xFF, 0xFF, 0x00, 0xFF, 0x00
002e70 f0c0
002e71 f000
002e72 c000
002e73 c03c
002e74 3cf0
002e75 f0f0
002e76 cfcf
002e77 f000                      .db  0xC0, 0xF0, 0x00, 0xF0, 0x00, 0xC0, 0x3C, 0xC0, 0xF0, 0x3C, 0xF0, 0xF0, 0xCF, 0xCF, 0x00, 0xF0
002e78 0000
002e79 c000
002e7a c0c0
002e7b 3c00
002e7c c000
002e7d f0c0
002e7e c0f0
002e7f 00f0                      .db  0x00, 0x00, 0x00, 0xC0, 0xC0, 0xC0, 0x00, 0x3C, 0x00, 0xC0, 0xC0, 0xF0, 0xF0, 0xC0, 0xF0, 0x00
                                 
                                 ; Character line 5:
                                 ;     0     1     2     3     4     5     6     7     8     9    10    11    12    13    14    15
002e80 c300
002e81 c03f
002e82 3cc0
002e83 c0f0
002e84 3c3f
002e85 f0c3
002e86 00c0
002e87 f03f                      .db  0x00, 0xC3, 0x3F, 0xC0, 0xC0, 0x3C, 0xF0, 0xC0, 0x3F, 0x3C, 0xC3, 0xF0, 0xC0, 0x00, 0x3F, 0xF0
002e88 fc00
002e89 00fc
002e8a c0cf
002e8b f0fc
002e8c f0c0
002e8d 00c0
002e8e 30fc
002e8f c0ff                      .db  0x00, 0xFC, 0xFC, 0x00, 0xCF, 0xC0, 0xFC, 0xF0, 0xC0, 0xF0, 0xC0, 0x00, 0xFC, 0x30, 0xFF, 0xC0
002e90 0000
002e91 f000
002e92 3cc0
002e93 00f0
002e94 0000
002e95 003c
002e96 0000
002e97 0000                      .db  0x00, 0x00, 0x00, 0xF0, 0xC0, 0x3C, 0xF0, 0x00, 0x00, 0x00, 0x3C, 0x00, 0x00, 0x00, 0x00, 0x00
002e98 003c
002e99 f0f0
002e9a f0f0
002e9b 00f0
002e9c c0f0
002e9d 0000
002e9e f000
002e9f 0000                      .db  0x3C, 0x00, 0xF0, 0xF0, 0xF0, 0xF0, 0xF0, 0x00, 0xF0, 0xC0, 0x00, 0x00, 0x00, 0xF0, 0x00, 0x00
002ea0 f000
002ea1 3c3c
002ea2 0cf0
002ea3 3c00
002ea4 00f0
002ea5 3cf0
002ea6 3c3c
002ea7 f03c                      .db  0x00, 0xF0, 0x3C, 0x3C, 0xF0, 0x0C, 0x00, 0x3C, 0xF0, 0x00, 0xF0, 0x3C, 0x3C, 0x3C, 0x3C, 0xF0
002ea8 c000
002ea9 f03c
002eaa f000
002eab fcc0
002eac 00f0
002ead 003c
002eae c03c
002eaf 0000                      .db  0x00, 0xC0, 0x3C, 0xF0, 0x00, 0xF0, 0xC0, 0xFC, 0xF0, 0x00, 0x3C, 0x00, 0x3C, 0xC0, 0x00, 0x00
002eb0 f000
002eb1 f03c
002eb2 00f0
002eb3 f000
002eb4 003c
002eb5 f0f0
002eb6 3c00
002eb7 f0f0                      .db  0x00, 0xF0, 0x3C, 0xF0, 0xF0, 0x00, 0x00, 0xF0, 0x3C, 0x00, 0xF0, 0xF0, 0x00, 0x3C, 0xF0, 0xF0
002eb8 f0f0
002eb9 f000
002eba f030
002ebb fcc0
002ebc f0f0
002ebd 0030
002ebe 00c0
002ebf 3c00                      .db  0xF0, 0xF0, 0x00, 0xF0, 0x30, 0xF0, 0xC0, 0xFC, 0xF0, 0xF0, 0x30, 0x00, 0xC0, 0x00, 0x00, 0x3C
002ec0 f0c0
002ec1 3c00
002ec2 f0f0
002ec3 c0f0
002ec4 0000
002ec5 0000
002ec6 00c0
002ec7 f03c                      .db  0xC0, 0xF0, 0x00, 0x3C, 0xF0, 0xF0, 0xF0, 0xC0, 0x00, 0x00, 0x00, 0x00, 0xC0, 0x00, 0x3C, 0xF0
002ec8 f000
002ec9 f0f0
002eca f0f0
002ecb f0f0
002ecc f0f0
002ecd fcf0
002ece f03c
002ecf c0ff                      .db  0x00, 0xF0, 0xF0, 0xF0, 0xF0, 0xF0, 0xF0, 0xF0, 0xF0, 0xF0, 0xF0, 0xFC, 0x3C, 0xF0, 0xFF, 0xC0
002ed0 00f0
002ed1 f0f0
002ed2 f0f0
002ed3 f0fc
002ed4 00f0
002ed5 3cf0
002ed6 c0ff
002ed7 f00f                      .db  0xF0, 0x00, 0xF0, 0xF0, 0xF0, 0xF0, 0xFC, 0xF0, 0xF0, 0x00, 0xF0, 0x3C, 0xFF, 0xC0, 0x0F, 0xF0
002ed8 ccc0
002ed9 c03f
002eda c0c0
002edb 3c3c
002edc 3cc0
002edd 3c3c
002ede 0000
002edf c000                      .db  0xC0, 0xCC, 0x3F, 0xC0, 0xC0, 0xC0, 0x3C, 0x3C, 0xC0, 0x3C, 0x3C, 0x3C, 0x00, 0x00, 0x00, 0xC0
002ee0 0000
002ee1 c0c0
002ee2 c000
002ee3 3cc0
002ee4 3c00
002ee5 3c00
002ee6 003c
002ee7 003c                      .db  0x00, 0x00, 0xC0, 0xC0, 0x00, 0xC0, 0xC0, 0x3C, 0x00, 0x3C, 0x00, 0x3C, 0x3C, 0x00, 0x3C, 0x00
002ee8 c000
002ee9 003c
002eea c000
002eeb 3c3c
002eec 00c0
002eed ffc0
002eee 00ff
002eef 00ff                      .db  0x00, 0xC0, 0x3C, 0x00, 0x00, 0xC0, 0x3C, 0x3C, 0xC0, 0x00, 0xC0, 0xFF, 0xFF, 0x00, 0xFF, 0x00
002ef0 c0f0
002ef1 f000
002ef2 c0f0
002ef3 c0f0
002ef4 f0c0
002ef5 f0f0
002ef6 fcfc
002ef7 f000                      .db  0xF0, 0xC0, 0x00, 0xF0, 0xF0, 0xC0, 0xF0, 0xC0, 0xC0, 0xF0, 0xF0, 0xF0, 0xFC, 0xFC, 0x00, 0xF0
002ef8 00f0
002ef9 0000
002efa c0c0
002efb f000
002efc 0000
002efd f000
002efe 0000
002eff 00f0                      .db  0xF0, 0x00, 0x00, 0x00, 0xC0, 0xC0, 0x00, 0xF0, 0x00, 0x00, 0x00, 0xF0, 0x00, 0x00, 0xF0, 0x00
                                 
                                 ; Character line 6:
                                 ;     0     1     2     3     4     5     6     7     8     9    10    11    12    13    14    15
002f00 0300
002f01 00ff
002f02 0000
002f03 0000
002f04 f0ff
002f05 f00f
002f06 00fc
002f07 cf3c                      .db  0x00, 0x03, 0xFF, 0x00, 0x00, 0x00, 0x00, 0x00, 0xFF, 0xF0, 0x0F, 0xF0, 0xFC, 0x00, 0x3C, 0xCF
002f08 0c00
002f09 3cf0
002f0a f0cf
002f0b c0fc
002f0c c0c0
002f0d 0000
002f0e 0000
002f0f 0000                      .db  0x00, 0x0C, 0xF0, 0x3C, 0xCF, 0xF0, 0xFC, 0xC0, 0xC0, 0xC0, 0x00, 0x00, 0x00, 0x00, 0x00, 0x00
002f10 0000
002f11 f000
002f12 3c00
002f13 003c
002f14 00c0
002f15 0000
002f16 0000
002f17 0000                      .db  0x00, 0x00, 0x00, 0xF0, 0x00, 0x3C, 0x3C, 0x00, 0xC0, 0x00, 0x00, 0x00, 0x00, 0x00, 0x00, 0x00
002f18 f0f0
002f19 c0f0
002f1a c0fc
002f1b 00c0
002f1c 00c0
002f1d 0000
002f1e 00c0
002f1f 0000                      .db  0xF0, 0xF0, 0xF0, 0xC0, 0xFC, 0xC0, 0xC0, 0x00, 0xC0, 0x00, 0x00, 0x00, 0xC0, 0x00, 0x00, 0x00
002f20 f0c0
002f21 f0f0
002f22 fcc0
002f23 fc00
002f24 c0f0
002f25 3cc0
002f26 3cfc
002f27 c03c                      .db  0xC0, 0xF0, 0xF0, 0xF0, 0xC0, 0xFC, 0x00, 0xFC, 0xF0, 0xC0, 0xC0, 0x3C, 0xFC, 0x3C, 0x3C, 0xC0
002f28 f000
002f29 c03c
002f2a f0c0
002f2b 3c00
002f2c c03c
002f2d c0fc
002f2e c00c
002f2f 0000                      .db  0x00, 0xF0, 0x3C, 0xC0, 0xC0, 0xF0, 0x00, 0x3C, 0x3C, 0xC0, 0xFC, 0xC0, 0x0C, 0xC0, 0x00, 0x00
002f30 3c00
002f31 c0f0
002f32 c03c
002f33 f000
002f34 c03c
002f35 3cf0
002f36 3cc0
002f37 c0f0                      .db  0x00, 0x3C, 0xF0, 0xC0, 0x3C, 0xC0, 0x00, 0xF0, 0x3C, 0xC0, 0xF0, 0x3C, 0xC0, 0x3C, 0xF0, 0xC0
002f38 f000
002f39 c000
002f3a 3cc0
002f3b f000
002f3c f03c
002f3d f0f0
002f3e 00c0
002f3f fc00                      .db  0x00, 0xF0, 0x00, 0xC0, 0xC0, 0x3C, 0x00, 0xF0, 0x3C, 0xF0, 0xF0, 0xF0, 0xC0, 0x00, 0x00, 0xFC
002f40 fcf0
002f41 ffc0
002f42 fcfc
002f43 f0fc
002f44 c0f0
002f45 c0c0
002f46 c0f0
002f47 f03c                      .db  0xF0, 0xFC, 0xC0, 0xFF, 0xFC, 0xFC, 0xFC, 0xF0, 0xF0, 0xC0, 0xC0, 0xC0, 0xF0, 0xC0, 0x3C, 0xF0
002f48 fff0
002f49 c0fc
002f4a c0c0
002f4b fcfc
002f4c c0f0
002f4d c0c0
002f4e 00f0
002f4f c03c                      .db  0xF0, 0xFF, 0xFC, 0xC0, 0xC0, 0xC0, 0xFC, 0xFC, 0xF0, 0xC0, 0xC0, 0xC0, 0xF0, 0x00, 0x3C, 0xC0
002f50 c0fc
002f51 fcc0
002f52 f0f0
002f53 0000
002f54 00c0
002f55 f000
002f56 c0ff
002f57 0000                      .db  0xFC, 0xC0, 0xC0, 0xFC, 0xF0, 0xF0, 0x00, 0x00, 0xC0, 0x00, 0x00, 0xF0, 0xFF, 0xC0, 0x00, 0x00
002f58 330c
002f59 c0cf
002f5a c0c0
002f5b 3c3c
002f5c 3cc0
002f5d 3c3c
002f5e 0000
002f5f c000                      .db  0x0C, 0x33, 0xCF, 0xC0, 0xC0, 0xC0, 0x3C, 0x3C, 0xC0, 0x3C, 0x3C, 0x3C, 0x00, 0x00, 0x00, 0xC0
002f60 0000
002f61 c0c0
002f62 c000
002f63 3cc0
002f64 3c00
002f65 3c00
002f66 003c
002f67 003c                      .db  0x00, 0x00, 0xC0, 0xC0, 0x00, 0xC0, 0xC0, 0x3C, 0x00, 0x3C, 0x00, 0x3C, 0x3C, 0x00, 0x3C, 0x00
002f68 c000
002f69 003c
002f6a c000
002f6b 3c3c
002f6c 00c0
002f6d ffc0
002f6e 00ff
002f6f 00ff                      .db  0x00, 0xC0, 0x3C, 0x00, 0x00, 0xC0, 0x3C, 0x3C, 0xC0, 0x00, 0xC0, 0xFF, 0xFF, 0x00, 0xFF, 0x00
002f70 003c
002f71 f000
002f72 00f0
002f73 c000
002f74 c000
002f75 c0fc
002f76 0000
002f77 f0c0                      .db  0x3C, 0x00, 0x00, 0xF0, 0xF0, 0x00, 0x00, 0xC0, 0x00, 0xC0, 0xFC, 0xC0, 0x00, 0x00, 0xC0, 0xF0
002f78 f000
002f79 f0f0
002f7a c0c0
002f7b 0000
002f7c 0000
002f7d f000
002f7e 0000
002f7f 0000                      .db  0x00, 0xF0, 0xF0, 0xF0, 0xC0, 0xC0, 0x00, 0x00, 0x00, 0x00, 0x00, 0xF0, 0x00, 0x00, 0x00, 0x00
                                 
                                 ; Character line 7:
                                 ;     0     1     2     3     4     5     6     7     8     9    10    11    12    13    14    15
002f80 fc00
002f81 00fc
002f82 c000
002f83 00c0
002f84 00ff
002f85 c0ff
002f86 00c0
002f87 c000                      .db  0x00, 0xFC, 0xFC, 0x00, 0x00, 0xC0, 0xC0, 0x00, 0xFF, 0x00, 0xFF, 0xC0, 0xC0, 0x00, 0x00, 0xC0
002f88 0000
002f89 00c0
002f8a c000
002f8b ff00
002f8c 0000
002f8d 0000
002f8e 0000
002f8f 0000                      .db  0x00, 0x00, 0xC0, 0x00, 0x00, 0xC0, 0x00, 0xFF, 0x00, 0x00, 0x00, 0x00, 0x00, 0x00, 0x00, 0x00
002f90 0000
002f91 0000
002f92 0000
002f93 0000
002f94 0000
002f95 0000
002f96 0000
002f97 0000                      .db  0x00, 0x00, 0x00, 0x00, 0x00, 0x00, 0x00, 0x00, 0x00, 0x00, 0x00, 0x00, 0x00, 0x00, 0x00, 0x00
002f98 0000
002f99 0000
002f9a 0000
002f9b 0000
002f9c 0000
002f9d 0000
002f9e 0000
002f9f 0000                      .db  0x00, 0x00, 0x00, 0x00, 0x00, 0x00, 0x00, 0x00, 0x00, 0x00, 0x00, 0x00, 0x00, 0x00, 0x00, 0x00
002fa0 0000
002fa1 0000
002fa2 0000
002fa3 0000
002fa4 0000
002fa5 0000
002fa6 0000
002fa7 0000                      .db  0x00, 0x00, 0x00, 0x00, 0x00, 0x00, 0x00, 0x00, 0x00, 0x00, 0x00, 0x00, 0x00, 0x00, 0x00, 0x00
002fa8 0000
002fa9 0000
002faa 0000
002fab 0000
002fac 0000
002fad 0000
002fae 0000
002faf ff00                      .db  0x00, 0x00, 0x00, 0x00, 0x00, 0x00, 0x00, 0x00, 0x00, 0x00, 0x00, 0x00, 0x00, 0x00, 0x00, 0xFF
002fb0 0000
002fb1 0000
002fb2 0000
002fb3 c000
002fb4 0000
002fb5 00c0
002fb6 0000
002fb7 0000                      .db  0x00, 0x00, 0x00, 0x00, 0x00, 0x00, 0x00, 0xC0, 0x00, 0x00, 0xC0, 0x00, 0x00, 0x00, 0x00, 0x00
002fb8 fc00
002fb9 0000
002fba 0000
002fbb 0000
002fbc c000
002fbd 0000
002fbe 0000
002fbf 0000                      .db  0x00, 0xFC, 0x00, 0x00, 0x00, 0x00, 0x00, 0x00, 0x00, 0xC0, 0x00, 0x00, 0x00, 0x00, 0x00, 0x00
002fc0 00c0
002fc1 0000
002fc2 0000
002fc3 c000
002fc4 0000
002fc5 0000
002fc6 0000
002fc7 0000                      .db  0xC0, 0x00, 0x00, 0x00, 0x00, 0x00, 0x00, 0xC0, 0x00, 0x00, 0x00, 0x00, 0x00, 0x00, 0x00, 0x00
002fc8 0000
002fc9 0000
002fca 0000
002fcb 0000
002fcc 00c0
002fcd c000
002fce 0000
002fcf 003f                      .db  0x00, 0x00, 0x00, 0x00, 0x00, 0x00, 0x00, 0x00, 0xC0, 0x00, 0x00, 0xC0, 0x00, 0x00, 0x3F, 0x00
002fd0 0000
002fd1 0000
002fd2 0000
002fd3 0000
002fd4 0000
002fd5 ff00
002fd6 000f
002fd7 0000                      .db  0x00, 0x00, 0x00, 0x00, 0x00, 0x00, 0x00, 0x00, 0x00, 0x00, 0x00, 0xFF, 0x0F, 0x00, 0x00, 0x00
002fd8 ccc0
002fd9 c0fc
002fda c0c0
002fdb 3c3c
002fdc 3cc0
002fdd 3c3c
002fde 0000
002fdf c000                      .db  0xC0, 0xCC, 0xFC, 0xC0, 0xC0, 0xC0, 0x3C, 0x3C, 0xC0, 0x3C, 0x3C, 0x3C, 0x00, 0x00, 0x00, 0xC0
002fe0 0000
002fe1 c0c0
002fe2 c000
002fe3 3cc0
002fe4 3c00
002fe5 3c00
002fe6 003c
002fe7 003c                      .db  0x00, 0x00, 0xC0, 0xC0, 0x00, 0xC0, 0xC0, 0x3C, 0x00, 0x3C, 0x00, 0x3C, 0x3C, 0x00, 0x3C, 0x00
002fe8 c000
002fe9 003c
002fea c000
002feb 3c3c
002fec 00c0
002fed ffc0
002fee 00ff
002fef 00ff                      .db  0x00, 0xC0, 0x3C, 0x00, 0x00, 0xC0, 0x3C, 0x3C, 0xC0, 0x00, 0xC0, 0xFF, 0xFF, 0x00, 0xFF, 0x00
002ff0 0000
002ff1 0000
002ff2 0000
002ff3 0000
002ff4 00f0
002ff5 0000
002ff6 0000
002ff7 0000                      .db  0x00, 0x00, 0x00, 0x00, 0x00, 0x00, 0x00, 0x00, 0xF0, 0x00, 0x00, 0x00, 0x00, 0x00, 0x00, 0x00
002ff8 0000
002ff9 0000
002ffa 00c0
002ffb 0000
002ffc 0000
002ffd f000
002ffe 0000
002fff 0000                      .db  0x00, 0x00, 0x00, 0x00, 0xC0, 0x00, 0x00, 0x00, 0x00, 0x00, 0x00, 0xF0, 0x00, 0x00, 0x00, 0x00
                                 .include "BlockFont.inc"
                                 
                                 ; Block font for medium-res graphics
                                 ;
                                 ; by Grant Searle 2013
                                 ;******************************************************
                                 
                                 .CSEG
                                 .ORG 0x1400
                                 
                                 ; Character line 0:
                                 ;     0     1     2     3     4     5     6     7     8     9    10    11    12    13    14    15
001400 f000
001401 ff0f
001402 f000
001403 ff0f
001404 f000
001405 ff0f
001406 f000
001407 ff0f                      .db  0x00, 0xF0, 0x0F, 0xFF, 0x00, 0xF0, 0x0F, 0xFF, 0x00, 0xF0, 0x0F, 0xFF, 0x00, 0xF0, 0x0F, 0xFF
001408 f000
001409 ff0f
00140a f000
00140b ff0f
00140c f000
00140d ff0f
00140e f000
00140f ff0f                      .db  0x00, 0xF0, 0x0F, 0xFF, 0x00, 0xF0, 0x0F, 0xFF, 0x00, 0xF0, 0x0F, 0xFF, 0x00, 0xF0, 0x0F, 0xFF
001410 f000
001411 ff0f
001412 f000
001413 ff0f
001414 f000
001415 ff0f
001416 f000
001417 ff0f                      .db  0x00, 0xF0, 0x0F, 0xFF, 0x00, 0xF0, 0x0F, 0xFF, 0x00, 0xF0, 0x0F, 0xFF, 0x00, 0xF0, 0x0F, 0xFF
001418 f000
001419 ff0f
00141a f000
00141b ff0f
00141c f000
00141d ff0f
00141e f000
00141f ff0f                      .db  0x00, 0xF0, 0x0F, 0xFF, 0x00, 0xF0, 0x0F, 0xFF, 0x00, 0xF0, 0x0F, 0xFF, 0x00, 0xF0, 0x0F, 0xFF
001420 f000
001421 ff0f
001422 f000
001423 ff0f
001424 f000
001425 ff0f
001426 f000
001427 ff0f                      .db  0x00, 0xF0, 0x0F, 0xFF, 0x00, 0xF0, 0x0F, 0xFF, 0x00, 0xF0, 0x0F, 0xFF, 0x00, 0xF0, 0x0F, 0xFF
001428 f000
001429 ff0f
00142a f000
00142b ff0f
00142c f000
00142d ff0f
00142e f000
00142f ff0f                      .db  0x00, 0xF0, 0x0F, 0xFF, 0x00, 0xF0, 0x0F, 0xFF, 0x00, 0xF0, 0x0F, 0xFF, 0x00, 0xF0, 0x0F, 0xFF
001430 f000
001431 ff0f
001432 f000
001433 ff0f
001434 f000
001435 ff0f
001436 f000
001437 ff0f                      .db  0x00, 0xF0, 0x0F, 0xFF, 0x00, 0xF0, 0x0F, 0xFF, 0x00, 0xF0, 0x0F, 0xFF, 0x00, 0xF0, 0x0F, 0xFF
001438 f000
001439 ff0f
00143a f000
00143b ff0f
00143c f000
00143d ff0f
00143e f000
00143f ff0f                      .db  0x00, 0xF0, 0x0F, 0xFF, 0x00, 0xF0, 0x0F, 0xFF, 0x00, 0xF0, 0x0F, 0xFF, 0x00, 0xF0, 0x0F, 0xFF
001440 f000
001441 ff0f
001442 f000
001443 ff0f
001444 f000
001445 ff0f
001446 f000
001447 ff0f                      .db  0x00, 0xF0, 0x0F, 0xFF, 0x00, 0xF0, 0x0F, 0xFF, 0x00, 0xF0, 0x0F, 0xFF, 0x00, 0xF0, 0x0F, 0xFF
001448 f000
001449 ff0f
00144a f000
00144b ff0f
00144c f000
00144d ff0f
00144e f000
00144f ff0f                      .db  0x00, 0xF0, 0x0F, 0xFF, 0x00, 0xF0, 0x0F, 0xFF, 0x00, 0xF0, 0x0F, 0xFF, 0x00, 0xF0, 0x0F, 0xFF
001450 f000
001451 ff0f
001452 f000
001453 ff0f
001454 f000
001455 ff0f
001456 f000
001457 ff0f                      .db  0x00, 0xF0, 0x0F, 0xFF, 0x00, 0xF0, 0x0F, 0xFF, 0x00, 0xF0, 0x0F, 0xFF, 0x00, 0xF0, 0x0F, 0xFF
001458 f000
001459 ff0f
00145a f000
00145b ff0f
00145c f000
00145d ff0f
00145e f000
00145f ff0f                      .db  0x00, 0xF0, 0x0F, 0xFF, 0x00, 0xF0, 0x0F, 0xFF, 0x00, 0xF0, 0x0F, 0xFF, 0x00, 0xF0, 0x0F, 0xFF
001460 f000
001461 ff0f
001462 f000
001463 ff0f
001464 f000
001465 ff0f
001466 f000
001467 ff0f                      .db  0x00, 0xF0, 0x0F, 0xFF, 0x00, 0xF0, 0x0F, 0xFF, 0x00, 0xF0, 0x0F, 0xFF, 0x00, 0xF0, 0x0F, 0xFF
001468 f000
001469 ff0f
00146a f000
00146b ff0f
00146c f000
00146d ff0f
00146e f000
00146f ff0f                      .db  0x00, 0xF0, 0x0F, 0xFF, 0x00, 0xF0, 0x0F, 0xFF, 0x00, 0xF0, 0x0F, 0xFF, 0x00, 0xF0, 0x0F, 0xFF
001470 f000
001471 ff0f
001472 f000
001473 ff0f
001474 f000
001475 ff0f
001476 f000
001477 ff0f                      .db  0x00, 0xF0, 0x0F, 0xFF, 0x00, 0xF0, 0x0F, 0xFF, 0x00, 0xF0, 0x0F, 0xFF, 0x00, 0xF0, 0x0F, 0xFF
001478 f000
001479 ff0f
00147a f000
00147b ff0f
00147c f000
00147d ff0f
00147e f000
00147f ff0f                      .db  0x00, 0xF0, 0x0F, 0xFF, 0x00, 0xF0, 0x0F, 0xFF, 0x00, 0xF0, 0x0F, 0xFF, 0x00, 0xF0, 0x0F, 0xFF
                                 
                                 ; Character line 1 (same as 0):
                                 ;     0     1     2     3     4     5     6     7     8     9    10    11    12    13    14    15
001480 f000
001481 ff0f
001482 f000
001483 ff0f
001484 f000
001485 ff0f
001486 f000
001487 ff0f                      .db  0x00, 0xF0, 0x0F, 0xFF, 0x00, 0xF0, 0x0F, 0xFF, 0x00, 0xF0, 0x0F, 0xFF, 0x00, 0xF0, 0x0F, 0xFF
001488 f000
001489 ff0f
00148a f000
00148b ff0f
00148c f000
00148d ff0f
00148e f000
00148f ff0f                      .db  0x00, 0xF0, 0x0F, 0xFF, 0x00, 0xF0, 0x0F, 0xFF, 0x00, 0xF0, 0x0F, 0xFF, 0x00, 0xF0, 0x0F, 0xFF
001490 f000
001491 ff0f
001492 f000
001493 ff0f
001494 f000
001495 ff0f
001496 f000
001497 ff0f                      .db  0x00, 0xF0, 0x0F, 0xFF, 0x00, 0xF0, 0x0F, 0xFF, 0x00, 0xF0, 0x0F, 0xFF, 0x00, 0xF0, 0x0F, 0xFF
001498 f000
001499 ff0f
00149a f000
00149b ff0f
00149c f000
00149d ff0f
00149e f000
00149f ff0f                      .db  0x00, 0xF0, 0x0F, 0xFF, 0x00, 0xF0, 0x0F, 0xFF, 0x00, 0xF0, 0x0F, 0xFF, 0x00, 0xF0, 0x0F, 0xFF
0014a0 f000
0014a1 ff0f
0014a2 f000
0014a3 ff0f
0014a4 f000
0014a5 ff0f
0014a6 f000
0014a7 ff0f                      .db  0x00, 0xF0, 0x0F, 0xFF, 0x00, 0xF0, 0x0F, 0xFF, 0x00, 0xF0, 0x0F, 0xFF, 0x00, 0xF0, 0x0F, 0xFF
0014a8 f000
0014a9 ff0f
0014aa f000
0014ab ff0f
0014ac f000
0014ad ff0f
0014ae f000
0014af ff0f                      .db  0x00, 0xF0, 0x0F, 0xFF, 0x00, 0xF0, 0x0F, 0xFF, 0x00, 0xF0, 0x0F, 0xFF, 0x00, 0xF0, 0x0F, 0xFF
0014b0 f000
0014b1 ff0f
0014b2 f000
0014b3 ff0f
0014b4 f000
0014b5 ff0f
0014b6 f000
0014b7 ff0f                      .db  0x00, 0xF0, 0x0F, 0xFF, 0x00, 0xF0, 0x0F, 0xFF, 0x00, 0xF0, 0x0F, 0xFF, 0x00, 0xF0, 0x0F, 0xFF
0014b8 f000
0014b9 ff0f
0014ba f000
0014bb ff0f
0014bc f000
0014bd ff0f
0014be f000
0014bf ff0f                      .db  0x00, 0xF0, 0x0F, 0xFF, 0x00, 0xF0, 0x0F, 0xFF, 0x00, 0xF0, 0x0F, 0xFF, 0x00, 0xF0, 0x0F, 0xFF
0014c0 f000
0014c1 ff0f
0014c2 f000
0014c3 ff0f
0014c4 f000
0014c5 ff0f
0014c6 f000
0014c7 ff0f                      .db  0x00, 0xF0, 0x0F, 0xFF, 0x00, 0xF0, 0x0F, 0xFF, 0x00, 0xF0, 0x0F, 0xFF, 0x00, 0xF0, 0x0F, 0xFF
0014c8 f000
0014c9 ff0f
0014ca f000
0014cb ff0f
0014cc f000
0014cd ff0f
0014ce f000
0014cf ff0f                      .db  0x00, 0xF0, 0x0F, 0xFF, 0x00, 0xF0, 0x0F, 0xFF, 0x00, 0xF0, 0x0F, 0xFF, 0x00, 0xF0, 0x0F, 0xFF
0014d0 f000
0014d1 ff0f
0014d2 f000
0014d3 ff0f
0014d4 f000
0014d5 ff0f
0014d6 f000
0014d7 ff0f                      .db  0x00, 0xF0, 0x0F, 0xFF, 0x00, 0xF0, 0x0F, 0xFF, 0x00, 0xF0, 0x0F, 0xFF, 0x00, 0xF0, 0x0F, 0xFF
0014d8 f000
0014d9 ff0f
0014da f000
0014db ff0f
0014dc f000
0014dd ff0f
0014de f000
0014df ff0f                      .db  0x00, 0xF0, 0x0F, 0xFF, 0x00, 0xF0, 0x0F, 0xFF, 0x00, 0xF0, 0x0F, 0xFF, 0x00, 0xF0, 0x0F, 0xFF
0014e0 f000
0014e1 ff0f
0014e2 f000
0014e3 ff0f
0014e4 f000
0014e5 ff0f
0014e6 f000
0014e7 ff0f                      .db  0x00, 0xF0, 0x0F, 0xFF, 0x00, 0xF0, 0x0F, 0xFF, 0x00, 0xF0, 0x0F, 0xFF, 0x00, 0xF0, 0x0F, 0xFF
0014e8 f000
0014e9 ff0f
0014ea f000
0014eb ff0f
0014ec f000
0014ed ff0f
0014ee f000
0014ef ff0f                      .db  0x00, 0xF0, 0x0F, 0xFF, 0x00, 0xF0, 0x0F, 0xFF, 0x00, 0xF0, 0x0F, 0xFF, 0x00, 0xF0, 0x0F, 0xFF
0014f0 f000
0014f1 ff0f
0014f2 f000
0014f3 ff0f
0014f4 f000
0014f5 ff0f
0014f6 f000
0014f7 ff0f                      .db  0x00, 0xF0, 0x0F, 0xFF, 0x00, 0xF0, 0x0F, 0xFF, 0x00, 0xF0, 0x0F, 0xFF, 0x00, 0xF0, 0x0F, 0xFF
0014f8 f000
0014f9 ff0f
0014fa f000
0014fb ff0f
0014fc f000
0014fd ff0f
0014fe f000
0014ff ff0f                      .db  0x00, 0xF0, 0x0F, 0xFF, 0x00, 0xF0, 0x0F, 0xFF, 0x00, 0xF0, 0x0F, 0xFF, 0x00, 0xF0, 0x0F, 0xFF
                                 
                                 
                                 ; Character line 2:
                                 ;     0     1     2     3     4     5     6     7     8     9    10    11    12    13    14    15
001500 0000
001501 0000
001502 f0f0
001503 f0f0
001504 0f0f
001505 0f0f
001506 ffff
001507 ffff                      .db  0x00, 0x00, 0x00, 0x00, 0xF0, 0xF0, 0xF0, 0xF0, 0x0F, 0x0F, 0x0F, 0x0F, 0xFF, 0xFF, 0xFF, 0xFF
001508 0000
001509 0000
00150a f0f0
00150b f0f0
00150c 0f0f
00150d 0f0f
00150e ffff
00150f ffff                      .db  0x00, 0x00, 0x00, 0x00, 0xF0, 0xF0, 0xF0, 0xF0, 0x0F, 0x0F, 0x0F, 0x0F, 0xFF, 0xFF, 0xFF, 0xFF
001510 0000
001511 0000
001512 f0f0
001513 f0f0
001514 0f0f
001515 0f0f
001516 ffff
001517 ffff                      .db  0x00, 0x00, 0x00, 0x00, 0xF0, 0xF0, 0xF0, 0xF0, 0x0F, 0x0F, 0x0F, 0x0F, 0xFF, 0xFF, 0xFF, 0xFF
001518 0000
001519 0000
00151a f0f0
00151b f0f0
00151c 0f0f
00151d 0f0f
00151e ffff
00151f ffff                      .db  0x00, 0x00, 0x00, 0x00, 0xF0, 0xF0, 0xF0, 0xF0, 0x0F, 0x0F, 0x0F, 0x0F, 0xFF, 0xFF, 0xFF, 0xFF
001520 0000
001521 0000
001522 f0f0
001523 f0f0
001524 0f0f
001525 0f0f
001526 ffff
001527 ffff                      .db  0x00, 0x00, 0x00, 0x00, 0xF0, 0xF0, 0xF0, 0xF0, 0x0F, 0x0F, 0x0F, 0x0F, 0xFF, 0xFF, 0xFF, 0xFF
001528 0000
001529 0000
00152a f0f0
00152b f0f0
00152c 0f0f
00152d 0f0f
00152e ffff
00152f ffff                      .db  0x00, 0x00, 0x00, 0x00, 0xF0, 0xF0, 0xF0, 0xF0, 0x0F, 0x0F, 0x0F, 0x0F, 0xFF, 0xFF, 0xFF, 0xFF
001530 0000
001531 0000
001532 f0f0
001533 f0f0
001534 0f0f
001535 0f0f
001536 ffff
001537 ffff                      .db  0x00, 0x00, 0x00, 0x00, 0xF0, 0xF0, 0xF0, 0xF0, 0x0F, 0x0F, 0x0F, 0x0F, 0xFF, 0xFF, 0xFF, 0xFF
001538 0000
001539 0000
00153a f0f0
00153b f0f0
00153c 0f0f
00153d 0f0f
00153e ffff
00153f ffff                      .db  0x00, 0x00, 0x00, 0x00, 0xF0, 0xF0, 0xF0, 0xF0, 0x0F, 0x0F, 0x0F, 0x0F, 0xFF, 0xFF, 0xFF, 0xFF
001540 0000
001541 0000
001542 f0f0
001543 f0f0
001544 0f0f
001545 0f0f
001546 ffff
001547 ffff                      .db  0x00, 0x00, 0x00, 0x00, 0xF0, 0xF0, 0xF0, 0xF0, 0x0F, 0x0F, 0x0F, 0x0F, 0xFF, 0xFF, 0xFF, 0xFF
001548 0000
001549 0000
00154a f0f0
00154b f0f0
00154c 0f0f
00154d 0f0f
00154e ffff
00154f ffff                      .db  0x00, 0x00, 0x00, 0x00, 0xF0, 0xF0, 0xF0, 0xF0, 0x0F, 0x0F, 0x0F, 0x0F, 0xFF, 0xFF, 0xFF, 0xFF
001550 0000
001551 0000
001552 f0f0
001553 f0f0
001554 0f0f
001555 0f0f
001556 ffff
001557 ffff                      .db  0x00, 0x00, 0x00, 0x00, 0xF0, 0xF0, 0xF0, 0xF0, 0x0F, 0x0F, 0x0F, 0x0F, 0xFF, 0xFF, 0xFF, 0xFF
001558 0000
001559 0000
00155a f0f0
00155b f0f0
00155c 0f0f
00155d 0f0f
00155e ffff
00155f ffff                      .db  0x00, 0x00, 0x00, 0x00, 0xF0, 0xF0, 0xF0, 0xF0, 0x0F, 0x0F, 0x0F, 0x0F, 0xFF, 0xFF, 0xFF, 0xFF
001560 0000
001561 0000
001562 f0f0
001563 f0f0
001564 0f0f
001565 0f0f
001566 ffff
001567 ffff                      .db  0x00, 0x00, 0x00, 0x00, 0xF0, 0xF0, 0xF0, 0xF0, 0x0F, 0x0F, 0x0F, 0x0F, 0xFF, 0xFF, 0xFF, 0xFF
001568 0000
001569 0000
00156a f0f0
00156b f0f0
00156c 0f0f
00156d 0f0f
00156e ffff
00156f ffff                      .db  0x00, 0x00, 0x00, 0x00, 0xF0, 0xF0, 0xF0, 0xF0, 0x0F, 0x0F, 0x0F, 0x0F, 0xFF, 0xFF, 0xFF, 0xFF
001570 0000
001571 0000
001572 f0f0
001573 f0f0
001574 0f0f
001575 0f0f
001576 ffff
001577 ffff                      .db  0x00, 0x00, 0x00, 0x00, 0xF0, 0xF0, 0xF0, 0xF0, 0x0F, 0x0F, 0x0F, 0x0F, 0xFF, 0xFF, 0xFF, 0xFF
001578 0000
001579 0000
00157a f0f0
00157b f0f0
00157c 0f0f
00157d 0f0f
00157e ffff
00157f ffff                      .db  0x00, 0x00, 0x00, 0x00, 0xF0, 0xF0, 0xF0, 0xF0, 0x0F, 0x0F, 0x0F, 0x0F, 0xFF, 0xFF, 0xFF, 0xFF
                                 
                                 ; Character line 3 (same as 2):
                                 ;     0     1     2     3     4     5     6     7     8     9    10    11    12    13    14    15
001580 0000
001581 0000
001582 f0f0
001583 f0f0
001584 0f0f
001585 0f0f
001586 ffff
001587 ffff                      .db  0x00, 0x00, 0x00, 0x00, 0xF0, 0xF0, 0xF0, 0xF0, 0x0F, 0x0F, 0x0F, 0x0F, 0xFF, 0xFF, 0xFF, 0xFF
001588 0000
001589 0000
00158a f0f0
00158b f0f0
00158c 0f0f
00158d 0f0f
00158e ffff
00158f ffff                      .db  0x00, 0x00, 0x00, 0x00, 0xF0, 0xF0, 0xF0, 0xF0, 0x0F, 0x0F, 0x0F, 0x0F, 0xFF, 0xFF, 0xFF, 0xFF
001590 0000
001591 0000
001592 f0f0
001593 f0f0
001594 0f0f
001595 0f0f
001596 ffff
001597 ffff                      .db  0x00, 0x00, 0x00, 0x00, 0xF0, 0xF0, 0xF0, 0xF0, 0x0F, 0x0F, 0x0F, 0x0F, 0xFF, 0xFF, 0xFF, 0xFF
001598 0000
001599 0000
00159a f0f0
00159b f0f0
00159c 0f0f
00159d 0f0f
00159e ffff
00159f ffff                      .db  0x00, 0x00, 0x00, 0x00, 0xF0, 0xF0, 0xF0, 0xF0, 0x0F, 0x0F, 0x0F, 0x0F, 0xFF, 0xFF, 0xFF, 0xFF
0015a0 0000
0015a1 0000
0015a2 f0f0
0015a3 f0f0
0015a4 0f0f
0015a5 0f0f
0015a6 ffff
0015a7 ffff                      .db  0x00, 0x00, 0x00, 0x00, 0xF0, 0xF0, 0xF0, 0xF0, 0x0F, 0x0F, 0x0F, 0x0F, 0xFF, 0xFF, 0xFF, 0xFF
0015a8 0000
0015a9 0000
0015aa f0f0
0015ab f0f0
0015ac 0f0f
0015ad 0f0f
0015ae ffff
0015af ffff                      .db  0x00, 0x00, 0x00, 0x00, 0xF0, 0xF0, 0xF0, 0xF0, 0x0F, 0x0F, 0x0F, 0x0F, 0xFF, 0xFF, 0xFF, 0xFF
0015b0 0000
0015b1 0000
0015b2 f0f0
0015b3 f0f0
0015b4 0f0f
0015b5 0f0f
0015b6 ffff
0015b7 ffff                      .db  0x00, 0x00, 0x00, 0x00, 0xF0, 0xF0, 0xF0, 0xF0, 0x0F, 0x0F, 0x0F, 0x0F, 0xFF, 0xFF, 0xFF, 0xFF
0015b8 0000
0015b9 0000
0015ba f0f0
0015bb f0f0
0015bc 0f0f
0015bd 0f0f
0015be ffff
0015bf ffff                      .db  0x00, 0x00, 0x00, 0x00, 0xF0, 0xF0, 0xF0, 0xF0, 0x0F, 0x0F, 0x0F, 0x0F, 0xFF, 0xFF, 0xFF, 0xFF
0015c0 0000
0015c1 0000
0015c2 f0f0
0015c3 f0f0
0015c4 0f0f
0015c5 0f0f
0015c6 ffff
0015c7 ffff                      .db  0x00, 0x00, 0x00, 0x00, 0xF0, 0xF0, 0xF0, 0xF0, 0x0F, 0x0F, 0x0F, 0x0F, 0xFF, 0xFF, 0xFF, 0xFF
0015c8 0000
0015c9 0000
0015ca f0f0
0015cb f0f0
0015cc 0f0f
0015cd 0f0f
0015ce ffff
0015cf ffff                      .db  0x00, 0x00, 0x00, 0x00, 0xF0, 0xF0, 0xF0, 0xF0, 0x0F, 0x0F, 0x0F, 0x0F, 0xFF, 0xFF, 0xFF, 0xFF
0015d0 0000
0015d1 0000
0015d2 f0f0
0015d3 f0f0
0015d4 0f0f
0015d5 0f0f
0015d6 ffff
0015d7 ffff                      .db  0x00, 0x00, 0x00, 0x00, 0xF0, 0xF0, 0xF0, 0xF0, 0x0F, 0x0F, 0x0F, 0x0F, 0xFF, 0xFF, 0xFF, 0xFF
0015d8 0000
0015d9 0000
0015da f0f0
0015db f0f0
0015dc 0f0f
0015dd 0f0f
0015de ffff
0015df ffff                      .db  0x00, 0x00, 0x00, 0x00, 0xF0, 0xF0, 0xF0, 0xF0, 0x0F, 0x0F, 0x0F, 0x0F, 0xFF, 0xFF, 0xFF, 0xFF
0015e0 0000
0015e1 0000
0015e2 f0f0
0015e3 f0f0
0015e4 0f0f
0015e5 0f0f
0015e6 ffff
0015e7 ffff                      .db  0x00, 0x00, 0x00, 0x00, 0xF0, 0xF0, 0xF0, 0xF0, 0x0F, 0x0F, 0x0F, 0x0F, 0xFF, 0xFF, 0xFF, 0xFF
0015e8 0000
0015e9 0000
0015ea f0f0
0015eb f0f0
0015ec 0f0f
0015ed 0f0f
0015ee ffff
0015ef ffff                      .db  0x00, 0x00, 0x00, 0x00, 0xF0, 0xF0, 0xF0, 0xF0, 0x0F, 0x0F, 0x0F, 0x0F, 0xFF, 0xFF, 0xFF, 0xFF
0015f0 0000
0015f1 0000
0015f2 f0f0
0015f3 f0f0
0015f4 0f0f
0015f5 0f0f
0015f6 ffff
0015f7 ffff                      .db  0x00, 0x00, 0x00, 0x00, 0xF0, 0xF0, 0xF0, 0xF0, 0x0F, 0x0F, 0x0F, 0x0F, 0xFF, 0xFF, 0xFF, 0xFF
0015f8 0000
0015f9 0000
0015fa f0f0
0015fb f0f0
0015fc 0f0f
0015fd 0f0f
0015fe ffff
0015ff ffff                      .db  0x00, 0x00, 0x00, 0x00, 0xF0, 0xF0, 0xF0, 0xF0, 0x0F, 0x0F, 0x0F, 0x0F, 0xFF, 0xFF, 0xFF, 0xFF
                                 
                                 ; Character line 4:
                                 ;     0     1     2     3     4     5     6     7     8     9    10    11    12    13    14    15
001600 0000
001601 0000
001602 0000
001603 0000
001604 0000
001605 0000
001606 0000
001607 0000                      .db  0x00, 0x00, 0x00, 0x00, 0x00, 0x00, 0x00, 0x00, 0x00, 0x00, 0x00, 0x00, 0x00, 0x00, 0x00, 0x00
001608 f0f0
001609 f0f0
00160a f0f0
00160b f0f0
00160c f0f0
00160d f0f0
00160e f0f0
00160f f0f0                      .db  0xF0, 0xF0, 0xF0, 0xF0, 0xF0, 0xF0, 0xF0, 0xF0, 0xF0, 0xF0, 0xF0, 0xF0, 0xF0, 0xF0, 0xF0, 0xF0
001610 0f0f
001611 0f0f
001612 0f0f
001613 0f0f
001614 0f0f
001615 0f0f
001616 0f0f
001617 0f0f                      .db  0x0F, 0x0F, 0x0F, 0x0F, 0x0F, 0x0F, 0x0F, 0x0F, 0x0F, 0x0F, 0x0F, 0x0F, 0x0F, 0x0F, 0x0F, 0x0F
001618 ffff
001619 ffff
00161a ffff
00161b ffff
00161c ffff
00161d ffff
00161e ffff
00161f ffff                      .db  0xFF, 0xFF, 0xFF, 0xFF, 0xFF, 0xFF, 0xFF, 0xFF, 0xFF, 0xFF, 0xFF, 0xFF, 0xFF, 0xFF, 0xFF, 0xFF
001620 0000
001621 0000
001622 0000
001623 0000
001624 0000
001625 0000
001626 0000
001627 0000                      .db  0x00, 0x00, 0x00, 0x00, 0x00, 0x00, 0x00, 0x00, 0x00, 0x00, 0x00, 0x00, 0x00, 0x00, 0x00, 0x00
001628 f0f0
001629 f0f0
00162a f0f0
00162b f0f0
00162c f0f0
00162d f0f0
00162e f0f0
00162f f0f0                      .db  0xF0, 0xF0, 0xF0, 0xF0, 0xF0, 0xF0, 0xF0, 0xF0, 0xF0, 0xF0, 0xF0, 0xF0, 0xF0, 0xF0, 0xF0, 0xF0
001630 0f0f
001631 0f0f
001632 0f0f
001633 0f0f
001634 0f0f
001635 0f0f
001636 0f0f
001637 0f0f                      .db  0x0F, 0x0F, 0x0F, 0x0F, 0x0F, 0x0F, 0x0F, 0x0F, 0x0F, 0x0F, 0x0F, 0x0F, 0x0F, 0x0F, 0x0F, 0x0F
001638 ffff
001639 ffff
00163a ffff
00163b ffff
00163c ffff
00163d ffff
00163e ffff
00163f ffff                      .db  0xFF, 0xFF, 0xFF, 0xFF, 0xFF, 0xFF, 0xFF, 0xFF, 0xFF, 0xFF, 0xFF, 0xFF, 0xFF, 0xFF, 0xFF, 0xFF
001640 0000
001641 0000
001642 0000
001643 0000
001644 0000
001645 0000
001646 0000
001647 0000                      .db  0x00, 0x00, 0x00, 0x00, 0x00, 0x00, 0x00, 0x00, 0x00, 0x00, 0x00, 0x00, 0x00, 0x00, 0x00, 0x00
001648 f0f0
001649 f0f0
00164a f0f0
00164b f0f0
00164c f0f0
00164d f0f0
00164e f0f0
00164f f0f0                      .db  0xF0, 0xF0, 0xF0, 0xF0, 0xF0, 0xF0, 0xF0, 0xF0, 0xF0, 0xF0, 0xF0, 0xF0, 0xF0, 0xF0, 0xF0, 0xF0
001650 0f0f
001651 0f0f
001652 0f0f
001653 0f0f
001654 0f0f
001655 0f0f
001656 0f0f
001657 0f0f                      .db  0x0F, 0x0F, 0x0F, 0x0F, 0x0F, 0x0F, 0x0F, 0x0F, 0x0F, 0x0F, 0x0F, 0x0F, 0x0F, 0x0F, 0x0F, 0x0F
001658 ffff
001659 ffff
00165a ffff
00165b ffff
00165c ffff
00165d ffff
00165e ffff
00165f ffff                      .db  0xFF, 0xFF, 0xFF, 0xFF, 0xFF, 0xFF, 0xFF, 0xFF, 0xFF, 0xFF, 0xFF, 0xFF, 0xFF, 0xFF, 0xFF, 0xFF
001660 0000
001661 0000
001662 0000
001663 0000
001664 0000
001665 0000
001666 0000
001667 0000                      .db  0x00, 0x00, 0x00, 0x00, 0x00, 0x00, 0x00, 0x00, 0x00, 0x00, 0x00, 0x00, 0x00, 0x00, 0x00, 0x00
001668 f0f0
001669 f0f0
00166a f0f0
00166b f0f0
00166c f0f0
00166d f0f0
00166e f0f0
00166f f0f0                      .db  0xF0, 0xF0, 0xF0, 0xF0, 0xF0, 0xF0, 0xF0, 0xF0, 0xF0, 0xF0, 0xF0, 0xF0, 0xF0, 0xF0, 0xF0, 0xF0
001670 0f0f
001671 0f0f
001672 0f0f
001673 0f0f
001674 0f0f
001675 0f0f
001676 0f0f
001677 0f0f                      .db  0x0F, 0x0F, 0x0F, 0x0F, 0x0F, 0x0F, 0x0F, 0x0F, 0x0F, 0x0F, 0x0F, 0x0F, 0x0F, 0x0F, 0x0F, 0x0F
001678 ffff
001679 ffff
00167a ffff
00167b ffff
00167c ffff
00167d ffff
00167e ffff
00167f ffff                      .db  0xFF, 0xFF, 0xFF, 0xFF, 0xFF, 0xFF, 0xFF, 0xFF, 0xFF, 0xFF, 0xFF, 0xFF, 0xFF, 0xFF, 0xFF, 0xFF
                                 
                                 
                                 ; Character line 5 (same as 4):
                                 ;     0     1     2     3     4     5     6     7     8     9    10    11    12    13    14    15
001680 0000
001681 0000
001682 0000
001683 0000
001684 0000
001685 0000
001686 0000
001687 0000                      .db  0x00, 0x00, 0x00, 0x00, 0x00, 0x00, 0x00, 0x00, 0x00, 0x00, 0x00, 0x00, 0x00, 0x00, 0x00, 0x00
001688 f0f0
001689 f0f0
00168a f0f0
00168b f0f0
00168c f0f0
00168d f0f0
00168e f0f0
00168f f0f0                      .db  0xF0, 0xF0, 0xF0, 0xF0, 0xF0, 0xF0, 0xF0, 0xF0, 0xF0, 0xF0, 0xF0, 0xF0, 0xF0, 0xF0, 0xF0, 0xF0
001690 0f0f
001691 0f0f
001692 0f0f
001693 0f0f
001694 0f0f
001695 0f0f
001696 0f0f
001697 0f0f                      .db  0x0F, 0x0F, 0x0F, 0x0F, 0x0F, 0x0F, 0x0F, 0x0F, 0x0F, 0x0F, 0x0F, 0x0F, 0x0F, 0x0F, 0x0F, 0x0F
001698 ffff
001699 ffff
00169a ffff
00169b ffff
00169c ffff
00169d ffff
00169e ffff
00169f ffff                      .db  0xFF, 0xFF, 0xFF, 0xFF, 0xFF, 0xFF, 0xFF, 0xFF, 0xFF, 0xFF, 0xFF, 0xFF, 0xFF, 0xFF, 0xFF, 0xFF
0016a0 0000
0016a1 0000
0016a2 0000
0016a3 0000
0016a4 0000
0016a5 0000
0016a6 0000
0016a7 0000                      .db  0x00, 0x00, 0x00, 0x00, 0x00, 0x00, 0x00, 0x00, 0x00, 0x00, 0x00, 0x00, 0x00, 0x00, 0x00, 0x00
0016a8 f0f0
0016a9 f0f0
0016aa f0f0
0016ab f0f0
0016ac f0f0
0016ad f0f0
0016ae f0f0
0016af f0f0                      .db  0xF0, 0xF0, 0xF0, 0xF0, 0xF0, 0xF0, 0xF0, 0xF0, 0xF0, 0xF0, 0xF0, 0xF0, 0xF0, 0xF0, 0xF0, 0xF0
0016b0 0f0f
0016b1 0f0f
0016b2 0f0f
0016b3 0f0f
0016b4 0f0f
0016b5 0f0f
0016b6 0f0f
0016b7 0f0f                      .db  0x0F, 0x0F, 0x0F, 0x0F, 0x0F, 0x0F, 0x0F, 0x0F, 0x0F, 0x0F, 0x0F, 0x0F, 0x0F, 0x0F, 0x0F, 0x0F
0016b8 ffff
0016b9 ffff
0016ba ffff
0016bb ffff
0016bc ffff
0016bd ffff
0016be ffff
0016bf ffff                      .db  0xFF, 0xFF, 0xFF, 0xFF, 0xFF, 0xFF, 0xFF, 0xFF, 0xFF, 0xFF, 0xFF, 0xFF, 0xFF, 0xFF, 0xFF, 0xFF
0016c0 0000
0016c1 0000
0016c2 0000
0016c3 0000
0016c4 0000
0016c5 0000
0016c6 0000
0016c7 0000                      .db  0x00, 0x00, 0x00, 0x00, 0x00, 0x00, 0x00, 0x00, 0x00, 0x00, 0x00, 0x00, 0x00, 0x00, 0x00, 0x00
0016c8 f0f0
0016c9 f0f0
0016ca f0f0
0016cb f0f0
0016cc f0f0
0016cd f0f0
0016ce f0f0
0016cf f0f0                      .db  0xF0, 0xF0, 0xF0, 0xF0, 0xF0, 0xF0, 0xF0, 0xF0, 0xF0, 0xF0, 0xF0, 0xF0, 0xF0, 0xF0, 0xF0, 0xF0
0016d0 0f0f
0016d1 0f0f
0016d2 0f0f
0016d3 0f0f
0016d4 0f0f
0016d5 0f0f
0016d6 0f0f
0016d7 0f0f                      .db  0x0F, 0x0F, 0x0F, 0x0F, 0x0F, 0x0F, 0x0F, 0x0F, 0x0F, 0x0F, 0x0F, 0x0F, 0x0F, 0x0F, 0x0F, 0x0F
0016d8 ffff
0016d9 ffff
0016da ffff
0016db ffff
0016dc ffff
0016dd ffff
0016de ffff
0016df ffff                      .db  0xFF, 0xFF, 0xFF, 0xFF, 0xFF, 0xFF, 0xFF, 0xFF, 0xFF, 0xFF, 0xFF, 0xFF, 0xFF, 0xFF, 0xFF, 0xFF
0016e0 0000
0016e1 0000
0016e2 0000
0016e3 0000
0016e4 0000
0016e5 0000
0016e6 0000
0016e7 0000                      .db  0x00, 0x00, 0x00, 0x00, 0x00, 0x00, 0x00, 0x00, 0x00, 0x00, 0x00, 0x00, 0x00, 0x00, 0x00, 0x00
0016e8 f0f0
0016e9 f0f0
0016ea f0f0
0016eb f0f0
0016ec f0f0
0016ed f0f0
0016ee f0f0
0016ef f0f0                      .db  0xF0, 0xF0, 0xF0, 0xF0, 0xF0, 0xF0, 0xF0, 0xF0, 0xF0, 0xF0, 0xF0, 0xF0, 0xF0, 0xF0, 0xF0, 0xF0
0016f0 0f0f
0016f1 0f0f
0016f2 0f0f
0016f3 0f0f
0016f4 0f0f
0016f5 0f0f
0016f6 0f0f
0016f7 0f0f                      .db  0x0F, 0x0F, 0x0F, 0x0F, 0x0F, 0x0F, 0x0F, 0x0F, 0x0F, 0x0F, 0x0F, 0x0F, 0x0F, 0x0F, 0x0F, 0x0F
0016f8 ffff
0016f9 ffff
0016fa ffff
0016fb ffff
0016fc ffff
0016fd ffff
0016fe ffff
0016ff ffff                      .db  0xFF, 0xFF, 0xFF, 0xFF, 0xFF, 0xFF, 0xFF, 0xFF, 0xFF, 0xFF, 0xFF, 0xFF, 0xFF, 0xFF, 0xFF, 0xFF
                                 
                                 ; Character line 6:
                                 ;     0     1     2     3     4     5     6     7     8     9    10    11    12    13    14    15
001700 0000
001701 0000
001702 0000
001703 0000
001704 0000
001705 0000
001706 0000
001707 0000                      .db  0x00, 0x00, 0x00, 0x00, 0x00, 0x00, 0x00, 0x00, 0x00, 0x00, 0x00, 0x00, 0x00, 0x00, 0x00, 0x00
001708 0000
001709 0000
00170a 0000
00170b 0000
00170c 0000
00170d 0000
00170e 0000
00170f 0000                      .db  0x00, 0x00, 0x00, 0x00, 0x00, 0x00, 0x00, 0x00, 0x00, 0x00, 0x00, 0x00, 0x00, 0x00, 0x00, 0x00
001710 0000
001711 0000
001712 0000
001713 0000
001714 0000
001715 0000
001716 0000
001717 0000                      .db  0x00, 0x00, 0x00, 0x00, 0x00, 0x00, 0x00, 0x00, 0x00, 0x00, 0x00, 0x00, 0x00, 0x00, 0x00, 0x00
001718 0000
001719 0000
00171a 0000
00171b 0000
00171c 0000
00171d 0000
00171e 0000
00171f 0000                      .db  0x00, 0x00, 0x00, 0x00, 0x00, 0x00, 0x00, 0x00, 0x00, 0x00, 0x00, 0x00, 0x00, 0x00, 0x00, 0x00
001720 f0f0
001721 f0f0
001722 f0f0
001723 f0f0
001724 f0f0
001725 f0f0
001726 f0f0
001727 f0f0                      .db  0xF0, 0xF0, 0xF0, 0xF0, 0xF0, 0xF0, 0xF0, 0xF0, 0xF0, 0xF0, 0xF0, 0xF0, 0xF0, 0xF0, 0xF0, 0xF0
001728 f0f0
001729 f0f0
00172a f0f0
00172b f0f0
00172c f0f0
00172d f0f0
00172e f0f0
00172f f0f0                      .db  0xF0, 0xF0, 0xF0, 0xF0, 0xF0, 0xF0, 0xF0, 0xF0, 0xF0, 0xF0, 0xF0, 0xF0, 0xF0, 0xF0, 0xF0, 0xF0
001730 f0f0
001731 f0f0
001732 f0f0
001733 f0f0
001734 f0f0
001735 f0f0
001736 f0f0
001737 f0f0                      .db  0xF0, 0xF0, 0xF0, 0xF0, 0xF0, 0xF0, 0xF0, 0xF0, 0xF0, 0xF0, 0xF0, 0xF0, 0xF0, 0xF0, 0xF0, 0xF0
001738 f0f0
001739 f0f0
00173a f0f0
00173b f0f0
00173c f0f0
00173d f0f0
00173e f0f0
00173f f0f0                      .db  0xF0, 0xF0, 0xF0, 0xF0, 0xF0, 0xF0, 0xF0, 0xF0, 0xF0, 0xF0, 0xF0, 0xF0, 0xF0, 0xF0, 0xF0, 0xF0
001740 0f0f
001741 0f0f
001742 0f0f
001743 0f0f
001744 0f0f
001745 0f0f
001746 0f0f
001747 0f0f                      .db  0x0F, 0x0F, 0x0F, 0x0F, 0x0F, 0x0F, 0x0F, 0x0F, 0x0F, 0x0F, 0x0F, 0x0F, 0x0F, 0x0F, 0x0F, 0x0F
001748 0f0f
001749 0f0f
00174a 0f0f
00174b 0f0f
00174c 0f0f
00174d 0f0f
00174e 0f0f
00174f 0f0f                      .db  0x0F, 0x0F, 0x0F, 0x0F, 0x0F, 0x0F, 0x0F, 0x0F, 0x0F, 0x0F, 0x0F, 0x0F, 0x0F, 0x0F, 0x0F, 0x0F
001750 0f0f
001751 0f0f
001752 0f0f
001753 0f0f
001754 0f0f
001755 0f0f
001756 0f0f
001757 0f0f                      .db  0x0F, 0x0F, 0x0F, 0x0F, 0x0F, 0x0F, 0x0F, 0x0F, 0x0F, 0x0F, 0x0F, 0x0F, 0x0F, 0x0F, 0x0F, 0x0F
001758 0f0f
001759 0f0f
00175a 0f0f
00175b 0f0f
00175c 0f0f
00175d 0f0f
00175e 0f0f
00175f 0f0f                      .db  0x0F, 0x0F, 0x0F, 0x0F, 0x0F, 0x0F, 0x0F, 0x0F, 0x0F, 0x0F, 0x0F, 0x0F, 0x0F, 0x0F, 0x0F, 0x0F
001760 ffff
001761 ffff
001762 ffff
001763 ffff
001764 ffff
001765 ffff
001766 ffff
001767 ffff                      .db  0xFF, 0xFF, 0xFF, 0xFF, 0xFF, 0xFF, 0xFF, 0xFF, 0xFF, 0xFF, 0xFF, 0xFF, 0xFF, 0xFF, 0xFF, 0xFF
001768 ffff
001769 ffff
00176a ffff
00176b ffff
00176c ffff
00176d ffff
00176e ffff
00176f ffff                      .db  0xFF, 0xFF, 0xFF, 0xFF, 0xFF, 0xFF, 0xFF, 0xFF, 0xFF, 0xFF, 0xFF, 0xFF, 0xFF, 0xFF, 0xFF, 0xFF
001770 ffff
001771 ffff
001772 ffff
001773 ffff
001774 ffff
001775 ffff
001776 ffff
001777 ffff                      .db  0xFF, 0xFF, 0xFF, 0xFF, 0xFF, 0xFF, 0xFF, 0xFF, 0xFF, 0xFF, 0xFF, 0xFF, 0xFF, 0xFF, 0xFF, 0xFF
001778 ffff
001779 ffff
00177a ffff
00177b ffff
00177c ffff
00177d ffff
00177e ffff
00177f ffff                      .db  0xFF, 0xFF, 0xFF, 0xFF, 0xFF, 0xFF, 0xFF, 0xFF, 0xFF, 0xFF, 0xFF, 0xFF, 0xFF, 0xFF, 0xFF, 0xFF
                                 
                                 
                                 ; Character line 7 (same as 6):
                                 ;     0     1     2     3     4     5     6     7     8     9    10    11    12    13    14    15
001780 0000
001781 0000
001782 0000
001783 0000
001784 0000
001785 0000
001786 0000
001787 0000                      .db  0x00, 0x00, 0x00, 0x00, 0x00, 0x00, 0x00, 0x00, 0x00, 0x00, 0x00, 0x00, 0x00, 0x00, 0x00, 0x00
001788 0000
001789 0000
00178a 0000
00178b 0000
00178c 0000
00178d 0000
00178e 0000
00178f 0000                      .db  0x00, 0x00, 0x00, 0x00, 0x00, 0x00, 0x00, 0x00, 0x00, 0x00, 0x00, 0x00, 0x00, 0x00, 0x00, 0x00
001790 0000
001791 0000
001792 0000
001793 0000
001794 0000
001795 0000
001796 0000
001797 0000                      .db  0x00, 0x00, 0x00, 0x00, 0x00, 0x00, 0x00, 0x00, 0x00, 0x00, 0x00, 0x00, 0x00, 0x00, 0x00, 0x00
001798 0000
001799 0000
00179a 0000
00179b 0000
00179c 0000
00179d 0000
00179e 0000
00179f 0000                      .db  0x00, 0x00, 0x00, 0x00, 0x00, 0x00, 0x00, 0x00, 0x00, 0x00, 0x00, 0x00, 0x00, 0x00, 0x00, 0x00
0017a0 f0f0
0017a1 f0f0
0017a2 f0f0
0017a3 f0f0
0017a4 f0f0
0017a5 f0f0
0017a6 f0f0
0017a7 f0f0                      .db  0xF0, 0xF0, 0xF0, 0xF0, 0xF0, 0xF0, 0xF0, 0xF0, 0xF0, 0xF0, 0xF0, 0xF0, 0xF0, 0xF0, 0xF0, 0xF0
0017a8 f0f0
0017a9 f0f0
0017aa f0f0
0017ab f0f0
0017ac f0f0
0017ad f0f0
0017ae f0f0
0017af f0f0                      .db  0xF0, 0xF0, 0xF0, 0xF0, 0xF0, 0xF0, 0xF0, 0xF0, 0xF0, 0xF0, 0xF0, 0xF0, 0xF0, 0xF0, 0xF0, 0xF0
0017b0 f0f0
0017b1 f0f0
0017b2 f0f0
0017b3 f0f0
0017b4 f0f0
0017b5 f0f0
0017b6 f0f0
0017b7 f0f0                      .db  0xF0, 0xF0, 0xF0, 0xF0, 0xF0, 0xF0, 0xF0, 0xF0, 0xF0, 0xF0, 0xF0, 0xF0, 0xF0, 0xF0, 0xF0, 0xF0
0017b8 f0f0
0017b9 f0f0
0017ba f0f0
0017bb f0f0
0017bc f0f0
0017bd f0f0
0017be f0f0
0017bf f0f0                      .db  0xF0, 0xF0, 0xF0, 0xF0, 0xF0, 0xF0, 0xF0, 0xF0, 0xF0, 0xF0, 0xF0, 0xF0, 0xF0, 0xF0, 0xF0, 0xF0
0017c0 0f0f
0017c1 0f0f
0017c2 0f0f
0017c3 0f0f
0017c4 0f0f
0017c5 0f0f
0017c6 0f0f
0017c7 0f0f                      .db  0x0F, 0x0F, 0x0F, 0x0F, 0x0F, 0x0F, 0x0F, 0x0F, 0x0F, 0x0F, 0x0F, 0x0F, 0x0F, 0x0F, 0x0F, 0x0F
0017c8 0f0f
0017c9 0f0f
0017ca 0f0f
0017cb 0f0f
0017cc 0f0f
0017cd 0f0f
0017ce 0f0f
0017cf 0f0f                      .db  0x0F, 0x0F, 0x0F, 0x0F, 0x0F, 0x0F, 0x0F, 0x0F, 0x0F, 0x0F, 0x0F, 0x0F, 0x0F, 0x0F, 0x0F, 0x0F
0017d0 0f0f
0017d1 0f0f
0017d2 0f0f
0017d3 0f0f
0017d4 0f0f
0017d5 0f0f
0017d6 0f0f
0017d7 0f0f                      .db  0x0F, 0x0F, 0x0F, 0x0F, 0x0F, 0x0F, 0x0F, 0x0F, 0x0F, 0x0F, 0x0F, 0x0F, 0x0F, 0x0F, 0x0F, 0x0F
0017d8 0f0f
0017d9 0f0f
0017da 0f0f
0017db 0f0f
0017dc 0f0f
0017dd 0f0f
0017de 0f0f
0017df 0f0f                      .db  0x0F, 0x0F, 0x0F, 0x0F, 0x0F, 0x0F, 0x0F, 0x0F, 0x0F, 0x0F, 0x0F, 0x0F, 0x0F, 0x0F, 0x0F, 0x0F
0017e0 ffff
0017e1 ffff
0017e2 ffff
0017e3 ffff
0017e4 ffff
0017e5 ffff
0017e6 ffff
0017e7 ffff                      .db  0xFF, 0xFF, 0xFF, 0xFF, 0xFF, 0xFF, 0xFF, 0xFF, 0xFF, 0xFF, 0xFF, 0xFF, 0xFF, 0xFF, 0xFF, 0xFF
0017e8 ffff
0017e9 ffff
0017ea ffff
0017eb ffff
0017ec ffff
0017ed ffff
0017ee ffff
0017ef ffff                      .db  0xFF, 0xFF, 0xFF, 0xFF, 0xFF, 0xFF, 0xFF, 0xFF, 0xFF, 0xFF, 0xFF, 0xFF, 0xFF, 0xFF, 0xFF, 0xFF
0017f0 ffff
0017f1 ffff
0017f2 ffff
0017f3 ffff
0017f4 ffff
0017f5 ffff
0017f6 ffff
0017f7 ffff                      .db  0xFF, 0xFF, 0xFF, 0xFF, 0xFF, 0xFF, 0xFF, 0xFF, 0xFF, 0xFF, 0xFF, 0xFF, 0xFF, 0xFF, 0xFF, 0xFF
0017f8 ffff
0017f9 ffff
0017fa ffff
0017fb ffff
0017fc ffff
0017fd ffff
0017fe ffff
0017ff ffff                      .db  0xFF, 0xFF, 0xFF, 0xFF, 0xFF, 0xFF, 0xFF, 0xFF, 0xFF, 0xFF, 0xFF, 0xFF, 0xFF, 0xFF, 0xFF, 0xFF


RESOURCE USE INFORMATION
------------------------

Notice:
The register and instruction counts are symbol table hit counts,
and hence implicitly used resources are not counted, eg, the
'lpm' instruction without operands implicitly uses r0 and z,
none of which are counted.

x,y,z are separate entities in the symbol table and are
counted separately from r26..r31 here.

.dseg memory usage only counts static data declared with .byte

"ATmega328P" register use summary:
x  : 121 y  :  60 z  : 178 r0 :   4 r1 :   4 r2 :   3 r3 :   8 r4 :   9 
r5 :  21 r6 :   9 r7 :  28 r8 : 161 r9 : 161 r10:   3 r11:   4 r12:   5 
r13:  14 r14:  20 r15:  20 r16: 547 r17:  34 r18:  36 r19:  36 r20:   7 
r21:   4 r22:   9 r23:  76 r24:   5 r25:   9 r26:   5 r27:   1 r28:  62 
r29:  45 r30: 158 r31: 112 
Registers used: 35 out of 35 (100.0%)

"ATmega328P" instruction use summary:
.lds  :   0 .sts  :   0 adc   :   1 add   :   9 adiw  :   9 and   :   1 
andi  :  57 asr   :   0 bclr  :   0 bld   :   0 brbc  :   0 brbs  :   0 
brcc  :   0 brcs  :   0 break :   0 breq  :  22 brge  :   0 brhc  :   0 
brhs  :   0 brid  :   0 brie  :   0 brlo  :  14 brlt  :   0 brmi  :   1 
brne  :  60 brpl  :   1 brsh  :   2 brtc  :   0 brts  :   0 brvc  :   0 
brvs  :   0 bset  :   0 bst   :   0 call  :   8 cbi   :   1 cbr   :   0 
clc   :   0 clh   :   0 cli   :   1 cln   :   0 clr   :   1 cls   :   0 
clt   :   0 clv   :   0 clz   :   0 com   :   0 cp    :   3 cpc   :   0 
cpi   :  87 cpse  :   0 dec   :  16 eor   :   5 fmul  :   0 fmuls :   0 
fmulsu:   0 icall :   0 ijmp  :   1 in    :  12 inc   :  16 jmp   :  27 
ld    : 160 ldd   :   0 ldi   : 155 lds   :   6 lpm   : 320 lsl   :  10 
lsr   :  11 mov   :  98 movw  :   2 mul   :   2 muls  :   0 mulsu :   0 
neg   :   0 nop   :  37 or    :   4 ori   :  62 out   : 497 pop   :   8 
push  :   8 rcall :  68 ret   :  47 reti  :   2 rjmp  :  85 rol   :   0 
ror   :   0 sbc   :   0 sbci  :   0 sbi   :   1 sbic  :   0 sbis  :   1 
sbiw  :  12 sbr   :   0 sbrc  :  29 sbrs  :  17 sec   :   0 seh   :   0 
sei   :   1 sen   :   0 ser   :   0 ses   :   0 set   :   0 sev   :   0 
sez   :   0 sleep :   0 spm   :   0 st    :  31 std   :   0 sts   :  14 
sub   :   0 subi  :   0 swap  :   0 tst   :   0 wdr   :   0 
Instructions used: 50 out of 113 (44.2%)

"ATmega328P" memory use summary [bytes]:
Segment   Begin    End      Code   Data   Used    Size   Use%
---------------------------------------------------------------
[.cseg] 0x000000 0x006000   3876  14336  18212   32768  55.6%
[.dseg] 0x000100 0x000100      0      0      0    2048   0.0%
[.eseg] 0x000000 0x000000      0      0      0    1024   0.0%

Assembly complete, 0 errors, 0 warnings
