
USBtoSerial.elf:     file format elf32-avr

Sections:
Idx Name          Size      VMA       LMA       File off  Algn
  0 .data         0000002c  00800100  0000115a  000011ee  2**0
                  CONTENTS, ALLOC, LOAD, DATA
  1 .text         0000115a  00000000  00000000  00000094  2**1
                  CONTENTS, ALLOC, LOAD, READONLY, CODE
  2 .bss          00000124  0080012c  0080012c  0000121a  2**0
                  ALLOC
  3 .debug_aranges 000004a0  00000000  00000000  0000121a  2**0
                  CONTENTS, READONLY, DEBUGGING
  4 .debug_pubnames 00000cc0  00000000  00000000  000016ba  2**0
                  CONTENTS, READONLY, DEBUGGING
  5 .debug_info   0000831b  00000000  00000000  0000237a  2**0
                  CONTENTS, READONLY, DEBUGGING
  6 .debug_abbrev 00001fd7  00000000  00000000  0000a695  2**0
                  CONTENTS, READONLY, DEBUGGING
  7 .debug_line   00012164  00000000  00000000  0000c66c  2**0
                  CONTENTS, READONLY, DEBUGGING
  8 .debug_frame  00000700  00000000  00000000  0001e7d0  2**2
                  CONTENTS, READONLY, DEBUGGING
  9 .debug_str    00003714  00000000  00000000  0001eed0  2**0
                  CONTENTS, READONLY, DEBUGGING
 10 .debug_loc    000036ad  00000000  00000000  000225e4  2**0
                  CONTENTS, READONLY, DEBUGGING
 11 .debug_macinfo 0015f0c4  00000000  00000000  00025c91  2**0
                  CONTENTS, READONLY, DEBUGGING
 12 .debug_ranges 00000590  00000000  00000000  00184d55  2**0
                  CONTENTS, READONLY, DEBUGGING

Disassembly of section .text:

00000000 <__vectors>:
	return true;
#endif
}

void Endpoint_ClearEndpoints(void)
{
       0:	a4 c0       	rjmp	.+328    	; 0x14a <__ctors_end>
	#if defined(USB_CAN_BE_BOTH)
	USB_CurrentMode = USB_MODE_None;
	#endif

	USB_IsInitialized = false;
}
       2:	00 00       	nop
#if defined(TEMPLATE_FUNC_NAME)

// cppcheck-suppress unusedFunction
uint8_t TEMPLATE_FUNC_NAME (const void* const Buffer,
                            uint16_t Length)
{
       4:	bd c0       	rjmp	.+378    	; 0x180 <__bad_interrupt>
	}
	else
	{
		return 0;
	}
}
       6:	00 00       	nop
       8:	bb c0       	rjmp	.+374    	; 0x180 <__bad_interrupt>
       a:	00 00       	nop
       c:	b9 c0       	rjmp	.+370    	; 0x180 <__bad_interrupt>
       e:	00 00       	nop
      10:	b7 c0       	rjmp	.+366    	; 0x180 <__bad_interrupt>
      12:	00 00       	nop
      14:	b5 c0       	rjmp	.+362    	; 0x180 <__bad_interrupt>
      16:	00 00       	nop
      18:	b3 c0       	rjmp	.+358    	; 0x180 <__bad_interrupt>
      1a:	00 00       	nop
      1c:	b1 c0       	rjmp	.+354    	; 0x180 <__bad_interrupt>
      1e:	00 00       	nop
      20:	af c0       	rjmp	.+350    	; 0x180 <__bad_interrupt>
      22:	00 00       	nop
      24:	ad c0       	rjmp	.+346    	; 0x180 <__bad_interrupt>
      26:	00 00       	nop
      28:	f4 c3       	rjmp	.+2024   	; 0x812 <__vector_10>
      2a:	00 00       	nop
      2c:	b7 c3       	rjmp	.+1902   	; 0x79c <__vector_11>
      2e:	00 00       	nop
      30:	a7 c0       	rjmp	.+334    	; 0x180 <__bad_interrupt>
      32:	00 00       	nop
      34:	a5 c0       	rjmp	.+330    	; 0x180 <__bad_interrupt>
      36:	00 00       	nop
      38:	a3 c0       	rjmp	.+326    	; 0x180 <__bad_interrupt>
      3a:	00 00       	nop
      3c:	a1 c0       	rjmp	.+322    	; 0x180 <__bad_interrupt>
      3e:	00 00       	nop
      40:	9f c0       	rjmp	.+318    	; 0x180 <__bad_interrupt>
      42:	00 00       	nop
      44:	9d c0       	rjmp	.+314    	; 0x180 <__bad_interrupt>
      46:	00 00       	nop
      48:	9b c0       	rjmp	.+310    	; 0x180 <__bad_interrupt>
      4a:	00 00       	nop
      4c:	99 c0       	rjmp	.+306    	; 0x180 <__bad_interrupt>
      4e:	00 00       	nop
      50:	97 c0       	rjmp	.+302    	; 0x180 <__bad_interrupt>
      52:	00 00       	nop
      54:	95 c0       	rjmp	.+298    	; 0x180 <__bad_interrupt>
      56:	00 00       	nop
      58:	93 c0       	rjmp	.+294    	; 0x180 <__bad_interrupt>
      5a:	00 00       	nop
      5c:	91 c0       	rjmp	.+290    	; 0x180 <__bad_interrupt>
      5e:	00 00       	nop
      60:	8f c0       	rjmp	.+286    	; 0x180 <__bad_interrupt>
      62:	00 00       	nop
      64:	cc c0       	rjmp	.+408    	; 0x1fe <__vector_25>
      66:	00 00       	nop
      68:	8b c0       	rjmp	.+278    	; 0x180 <__bad_interrupt>
      6a:	00 00       	nop
      6c:	89 c0       	rjmp	.+274    	; 0x180 <__bad_interrupt>
      6e:	00 00       	nop
      70:	87 c0       	rjmp	.+270    	; 0x180 <__bad_interrupt>
      72:	00 00       	nop
      74:	85 c0       	rjmp	.+266    	; 0x180 <__bad_interrupt>
      76:	00 00       	nop
      78:	83 c0       	rjmp	.+262    	; 0x180 <__bad_interrupt>
      7a:	00 00       	nop
      7c:	81 c0       	rjmp	.+258    	; 0x180 <__bad_interrupt>
      7e:	00 00       	nop
      80:	7f c0       	rjmp	.+254    	; 0x180 <__bad_interrupt>
      82:	00 00       	nop
      84:	7d c0       	rjmp	.+250    	; 0x180 <__bad_interrupt>
      86:	00 00       	nop
      88:	7b c0       	rjmp	.+246    	; 0x180 <__bad_interrupt>
      8a:	00 00       	nop
      8c:	79 c0       	rjmp	.+242    	; 0x180 <__bad_interrupt>
      8e:	00 00       	nop
      90:	77 c0       	rjmp	.+238    	; 0x180 <__bad_interrupt>
      92:	00 00       	nop
      94:	75 c0       	rjmp	.+234    	; 0x180 <__bad_interrupt>
      96:	00 00       	nop
      98:	73 c0       	rjmp	.+230    	; 0x180 <__bad_interrupt>
      9a:	00 00       	nop
      9c:	71 c0       	rjmp	.+226    	; 0x180 <__bad_interrupt>
      9e:	00 00       	nop
      a0:	6f c0       	rjmp	.+222    	; 0x180 <__bad_interrupt>
      a2:	00 00       	nop
      a4:	6d c0       	rjmp	.+218    	; 0x180 <__bad_interrupt>
      a6:	00 00       	nop
      a8:	6b c0       	rjmp	.+214    	; 0x180 <__bad_interrupt>
      aa:	00 00       	nop

000000ac <DeviceDescriptor>:
      ac:	12 01 10 01 02 00 00 08 eb 03 4b 20 00 00 01 02     ..........K ....
      bc:	dc 01                                               ..

000000be <ConfigurationDescriptor>:
      be:	09 02 3e 00 02 01 00 c0 fa 09 04 00 00 01 02 02     ..>.............
      ce:	01 00 05 24 00 10 01 04 24 02 06 05 24 06 00 01     ...$....$...$...
      de:	07 05 82 03 08 00 ff 09 04 01 00 02 0a 00 00 00     ................
      ee:	07 05 04 02 10 00 05 07 05 83 02 10 00 05           ..............

000000fc <LanguageString>:
      fc:	04 03 09 04                                         ....

00000100 <ManufacturerString>:
     100:	18 03 44 00 65 00 61 00 6e 00 20 00 43 00 61 00     ..D.e.a.n. .C.a.
     110:	6d 00 65 00 72 00 61 00 00 00                       m.e.r.a...

0000011a <ProductString>:
     11a:	30 03 4c 00 55 00 46 00 41 00 20 00 55 00 53 00     0.L.U.F.A. .U.S.
     12a:	42 00 2d 00 52 00 53 00 32 00 33 00 32 00 20 00     B.-.R.S.2.3.2. .
     13a:	41 00 64 00 61 00 70 00 74 00 65 00 72 00 00 00     A.d.a.p.t.e.r...

0000014a <__ctors_end>:
     14a:	11 24       	eor	r1, r1
     14c:	1f be       	out	0x3f, r1	; 63
     14e:	cf ef       	ldi	r28, 0xFF	; 255
     150:	da e0       	ldi	r29, 0x0A	; 10
     152:	de bf       	out	0x3e, r29	; 62
     154:	cd bf       	out	0x3d, r28	; 61

00000156 <__do_copy_data>:
     156:	11 e0       	ldi	r17, 0x01	; 1
     158:	a0 e0       	ldi	r26, 0x00	; 0
     15a:	b1 e0       	ldi	r27, 0x01	; 1
     15c:	ea e5       	ldi	r30, 0x5A	; 90
     15e:	f1 e1       	ldi	r31, 0x11	; 17
     160:	02 c0       	rjmp	.+4      	; 0x166 <.do_copy_data_start>

00000162 <.do_copy_data_loop>:
     162:	05 90       	lpm	r0, Z+
     164:	0d 92       	st	X+, r0

00000166 <.do_copy_data_start>:
     166:	ac 32       	cpi	r26, 0x2C	; 44
     168:	b1 07       	cpc	r27, r17
     16a:	d9 f7       	brne	.-10     	; 0x162 <.do_copy_data_loop>

0000016c <__do_clear_bss>:
     16c:	12 e0       	ldi	r17, 0x02	; 2
     16e:	ac e2       	ldi	r26, 0x2C	; 44
     170:	b1 e0       	ldi	r27, 0x01	; 1
     172:	01 c0       	rjmp	.+2      	; 0x176 <.do_clear_bss_start>

00000174 <.do_clear_bss_loop>:
     174:	1d 92       	st	X+, r1

00000176 <.do_clear_bss_start>:
     176:	a0 35       	cpi	r26, 0x50	; 80
     178:	b1 07       	cpc	r27, r17
     17a:	e1 f7       	brne	.-8      	; 0x174 <.do_clear_bss_loop>
     17c:	37 d1       	rcall	.+622    	; 0x3ec <main>
     17e:	eb c7       	rjmp	.+4054   	; 0x1156 <_exit>

00000180 <__bad_interrupt>:
     180:	3f cf       	rjmp	.-386    	; 0x0 <__vectors>

00000182 <RingBuffer_Insert>:
		 *  \param[in,out] Buffer  Pointer to a ring buffer structure to insert into.
		 *  \param[in]     Data    Data element to insert into the buffer.
		 */
		static inline void RingBuffer_Insert(RingBuffer_t* Buffer, const uint8_t Data) ATTR_NON_NULL_PTR_ARG(1);
		static inline void RingBuffer_Insert(RingBuffer_t* Buffer, const uint8_t Data)
		{
     182:	cf 93       	push	r28
     184:	df 93       	push	r29
			GCC_FORCE_POINTER_ACCESS(Buffer);
     186:	ec 01       	movw	r28, r24

			*Buffer->In = Data;
     188:	e8 81       	ld	r30, Y
     18a:	f9 81       	ldd	r31, Y+1	; 0x01
     18c:	60 83       	st	Z, r22

			if (++Buffer->In == Buffer->End)
     18e:	88 81       	ld	r24, Y
     190:	99 81       	ldd	r25, Y+1	; 0x01
     192:	01 96       	adiw	r24, 0x01	; 1
     194:	99 83       	std	Y+1, r25	; 0x01
     196:	88 83       	st	Y, r24
     198:	2e 81       	ldd	r18, Y+6	; 0x06
     19a:	3f 81       	ldd	r19, Y+7	; 0x07
     19c:	82 17       	cp	r24, r18
     19e:	93 07       	cpc	r25, r19
     1a0:	21 f4       	brne	.+8      	; 0x1aa <RingBuffer_Insert+0x28>
			  Buffer->In = Buffer->Start;
     1a2:	8c 81       	ldd	r24, Y+4	; 0x04
     1a4:	9d 81       	ldd	r25, Y+5	; 0x05
     1a6:	99 83       	std	Y+1, r25	; 0x01
     1a8:	88 83       	st	Y, r24
			static inline uint_reg_t GetGlobalInterruptMask(void)
			{
				GCC_MEMORY_BARRIER();

				#if (ARCH == ARCH_AVR8)
				return SREG;
     1aa:	2f b7       	in	r18, 0x3f	; 63
			static inline void GlobalInterruptDisable(void)
			{
				GCC_MEMORY_BARRIER();

				#if (ARCH == ARCH_AVR8)
				cli();
     1ac:	f8 94       	cli

			uint_reg_t CurrentGlobalInt = GetGlobalInterruptMask();
			GlobalInterruptDisable();

			Buffer->Count++;
     1ae:	8a 85       	ldd	r24, Y+10	; 0x0a
     1b0:	9b 85       	ldd	r25, Y+11	; 0x0b
     1b2:	01 96       	adiw	r24, 0x01	; 1
     1b4:	9b 87       	std	Y+11, r25	; 0x0b
     1b6:	8a 87       	std	Y+10, r24	; 0x0a
			static inline void SetGlobalInterruptMask(const uint_reg_t GlobalIntState)
			{
				GCC_MEMORY_BARRIER();

				#if (ARCH == ARCH_AVR8)
				SREG = GlobalIntState;
     1b8:	2f bf       	out	0x3f, r18	; 63

			SetGlobalInterruptMask(CurrentGlobalInt);
		}
     1ba:	df 91       	pop	r29
     1bc:	cf 91       	pop	r28
     1be:	08 95       	ret

000001c0 <RingBuffer_Remove>:
		 *
		 *  \return Next data element stored in the buffer.
		 */
		static inline uint8_t RingBuffer_Remove(RingBuffer_t* Buffer) ATTR_NON_NULL_PTR_ARG(1);
		static inline uint8_t RingBuffer_Remove(RingBuffer_t* Buffer)
		{
     1c0:	cf 93       	push	r28
     1c2:	df 93       	push	r29
			GCC_FORCE_POINTER_ACCESS(Buffer);
     1c4:	ec 01       	movw	r28, r24

			uint8_t Data = *Buffer->Out;
     1c6:	ea 81       	ldd	r30, Y+2	; 0x02
     1c8:	fb 81       	ldd	r31, Y+3	; 0x03
     1ca:	31 91       	ld	r19, Z+

			if (++Buffer->Out == Buffer->End)
     1cc:	fb 83       	std	Y+3, r31	; 0x03
     1ce:	ea 83       	std	Y+2, r30	; 0x02
     1d0:	8e 81       	ldd	r24, Y+6	; 0x06
     1d2:	9f 81       	ldd	r25, Y+7	; 0x07
     1d4:	e8 17       	cp	r30, r24
     1d6:	f9 07       	cpc	r31, r25
     1d8:	21 f4       	brne	.+8      	; 0x1e2 <RingBuffer_Remove+0x22>
			  Buffer->Out = Buffer->Start;
     1da:	8c 81       	ldd	r24, Y+4	; 0x04
     1dc:	9d 81       	ldd	r25, Y+5	; 0x05
     1de:	9b 83       	std	Y+3, r25	; 0x03
     1e0:	8a 83       	std	Y+2, r24	; 0x02
			static inline uint_reg_t GetGlobalInterruptMask(void)
			{
				GCC_MEMORY_BARRIER();

				#if (ARCH == ARCH_AVR8)
				return SREG;
     1e2:	2f b7       	in	r18, 0x3f	; 63
			static inline void GlobalInterruptDisable(void)
			{
				GCC_MEMORY_BARRIER();

				#if (ARCH == ARCH_AVR8)
				cli();
     1e4:	f8 94       	cli

			uint_reg_t CurrentGlobalInt = GetGlobalInterruptMask();
			GlobalInterruptDisable();

			Buffer->Count--;
     1e6:	8a 85       	ldd	r24, Y+10	; 0x0a
     1e8:	9b 85       	ldd	r25, Y+11	; 0x0b
     1ea:	01 97       	sbiw	r24, 0x01	; 1
     1ec:	9b 87       	std	Y+11, r25	; 0x0b
     1ee:	8a 87       	std	Y+10, r24	; 0x0a
			static inline void SetGlobalInterruptMask(const uint_reg_t GlobalIntState)
			{
				GCC_MEMORY_BARRIER();

				#if (ARCH == ARCH_AVR8)
				SREG = GlobalIntState;
     1f0:	2f bf       	out	0x3f, r18	; 63

			SetGlobalInterruptMask(CurrentGlobalInt);

			return Data;
		}
     1f2:	83 2f       	mov	r24, r19
     1f4:	df 91       	pop	r29
     1f6:	cf 91       	pop	r28
     1f8:	08 95       	ret

000001fa <EVENT_USB_Device_Connect>:

/** Event handler for the library USB Connection event. */
void EVENT_USB_Device_Connect(void)
{
//	LEDs_SetAllLEDs(1);
}
     1fa:	08 95       	ret

000001fc <EVENT_USB_Device_Disconnect>:

/** Event handler for the library USB Disconnection event. */
void EVENT_USB_Device_Disconnect(void)
{
//	LEDs_SetAllLEDs(2);
}
     1fc:	08 95       	ret

000001fe <__vector_25>:

/** ISR to manage the reception of data from the serial port, placing received bytes into a circular buffer
 *  for later transmission to the host.
 */
ISR(USART1_RX_vect, ISR_BLOCK)
{
     1fe:	1f 92       	push	r1
     200:	0f 92       	push	r0
     202:	0f b6       	in	r0, 0x3f	; 63
     204:	0f 92       	push	r0
     206:	11 24       	eor	r1, r1
     208:	2f 93       	push	r18
     20a:	3f 93       	push	r19
     20c:	4f 93       	push	r20
     20e:	5f 93       	push	r21
     210:	6f 93       	push	r22
     212:	7f 93       	push	r23
     214:	8f 93       	push	r24
     216:	9f 93       	push	r25
     218:	af 93       	push	r26
     21a:	bf 93       	push	r27
     21c:	ef 93       	push	r30
     21e:	ff 93       	push	r31
	uint8_t ReceivedByte = UDR1;
     220:	60 91 ce 00 	lds	r22, 0x00CE

	if (USB_DeviceState == DEVICE_STATE_Configured)
     224:	8e b3       	in	r24, 0x1e	; 30
     226:	84 30       	cpi	r24, 0x04	; 4
     228:	19 f4       	brne	.+6      	; 0x230 <__vector_25+0x32>
	  RingBuffer_Insert(&USARTtoUSB_Buffer, ReceivedByte);
     22a:	88 eb       	ldi	r24, 0xB8	; 184
     22c:	91 e0       	ldi	r25, 0x01	; 1
     22e:	a9 df       	rcall	.-174    	; 0x182 <RingBuffer_Insert>
}
     230:	ff 91       	pop	r31
     232:	ef 91       	pop	r30
     234:	bf 91       	pop	r27
     236:	af 91       	pop	r26
     238:	9f 91       	pop	r25
     23a:	8f 91       	pop	r24
     23c:	7f 91       	pop	r23
     23e:	6f 91       	pop	r22
     240:	5f 91       	pop	r21
     242:	4f 91       	pop	r20
     244:	3f 91       	pop	r19
     246:	2f 91       	pop	r18
     248:	0f 90       	pop	r0
     24a:	0f be       	out	0x3f, r0	; 63
     24c:	0f 90       	pop	r0
     24e:	1f 90       	pop	r1
     250:	18 95       	reti

00000252 <EVENT_CDC_Device_LineEncodingChanged>:
/** Event handler for the CDC Class driver Line Encoding Changed event.
 *
 *  \param[in] CDCInterfaceInfo  Pointer to the CDC class interface configuration structure being referenced
 */
void EVENT_CDC_Device_LineEncodingChanged(USB_ClassInfo_CDC_Device_t* const CDCInterfaceInfo)
{
     252:	1f 93       	push	r17
     254:	fc 01       	movw	r30, r24
	uint8_t ConfigMask = 0;

	switch (CDCInterfaceInfo->State.LineEncoding.ParityType)
     256:	81 8d       	ldd	r24, Z+25	; 0x19
     258:	81 30       	cpi	r24, 0x01	; 1
     25a:	19 f0       	breq	.+6      	; 0x262 <EVENT_CDC_Device_LineEncodingChanged+0x10>
     25c:	82 30       	cpi	r24, 0x02	; 2
     25e:	19 f4       	brne	.+6      	; 0x266 <EVENT_CDC_Device_LineEncodingChanged+0x14>
     260:	04 c0       	rjmp	.+8      	; 0x26a <EVENT_CDC_Device_LineEncodingChanged+0x18>
     262:	10 e3       	ldi	r17, 0x30	; 48
     264:	03 c0       	rjmp	.+6      	; 0x26c <EVENT_CDC_Device_LineEncodingChanged+0x1a>
     266:	10 e0       	ldi	r17, 0x00	; 0
     268:	01 c0       	rjmp	.+2      	; 0x26c <EVENT_CDC_Device_LineEncodingChanged+0x1a>
     26a:	10 e2       	ldi	r17, 0x20	; 32
		case CDC_PARITY_Even:
			ConfigMask = (1 << UPM11);
			break;
	}

	if (CDCInterfaceInfo->State.LineEncoding.CharFormat == CDC_LINEENCODING_TwoStopBits)
     26c:	80 8d       	ldd	r24, Z+24	; 0x18
     26e:	82 30       	cpi	r24, 0x02	; 2
     270:	09 f4       	brne	.+2      	; 0x274 <EVENT_CDC_Device_LineEncodingChanged+0x22>
	  ConfigMask |= (1 << USBS1);
     272:	18 60       	ori	r17, 0x08	; 8

	switch (CDCInterfaceInfo->State.LineEncoding.DataBits)
     274:	82 8d       	ldd	r24, Z+26	; 0x1a
     276:	87 30       	cpi	r24, 0x07	; 7
     278:	31 f0       	breq	.+12     	; 0x286 <EVENT_CDC_Device_LineEncodingChanged+0x34>
     27a:	88 30       	cpi	r24, 0x08	; 8
     27c:	31 f0       	breq	.+12     	; 0x28a <EVENT_CDC_Device_LineEncodingChanged+0x38>
     27e:	86 30       	cpi	r24, 0x06	; 6
     280:	29 f4       	brne	.+10     	; 0x28c <EVENT_CDC_Device_LineEncodingChanged+0x3a>
	{
		case 6:
			ConfigMask |= (1 << UCSZ10);
     282:	12 60       	ori	r17, 0x02	; 2
     284:	03 c0       	rjmp	.+6      	; 0x28c <EVENT_CDC_Device_LineEncodingChanged+0x3a>
			break;
		case 7:
			ConfigMask |= (1 << UCSZ11);
     286:	14 60       	ori	r17, 0x04	; 4
     288:	01 c0       	rjmp	.+2      	; 0x28c <EVENT_CDC_Device_LineEncodingChanged+0x3a>
			break;
		case 8:
			ConfigMask |= ((1 << UCSZ11) | (1 << UCSZ10));
     28a:	16 60       	ori	r17, 0x06	; 6
			break;
	}

	/* Must turn off USART before reconfiguring it, otherwise incorrect operation may occur */
	UCSR1B = 0;
     28c:	10 92 c9 00 	sts	0x00C9, r1
	UCSR1A = 0;
     290:	10 92 c8 00 	sts	0x00C8, r1
	UCSR1C = 0;
     294:	10 92 ca 00 	sts	0x00CA, r1

	/* Set the new baud rate before configuring the USART */
	UBRR1  = SERIAL_2X_UBBRVAL(CDCInterfaceInfo->State.LineEncoding.BaudRateBPS);
     298:	24 89       	ldd	r18, Z+20	; 0x14
     29a:	35 89       	ldd	r19, Z+21	; 0x15
     29c:	46 89       	ldd	r20, Z+22	; 0x16
     29e:	57 89       	ldd	r21, Z+23	; 0x17
     2a0:	ca 01       	movw	r24, r20
     2a2:	b9 01       	movw	r22, r18
     2a4:	96 95       	lsr	r25
     2a6:	87 95       	ror	r24
     2a8:	77 95       	ror	r23
     2aa:	67 95       	ror	r22
     2ac:	60 5c       	subi	r22, 0xC0	; 192
     2ae:	7d 4b       	sbci	r23, 0xBD	; 189
     2b0:	80 4f       	sbci	r24, 0xF0	; 240
     2b2:	9f 4f       	sbci	r25, 0xFF	; 255
     2b4:	2e d7       	rcall	.+3676   	; 0x1112 <__udivmodsi4>
     2b6:	21 50       	subi	r18, 0x01	; 1
     2b8:	30 40       	sbci	r19, 0x00	; 0
     2ba:	30 93 cd 00 	sts	0x00CD, r19
     2be:	20 93 cc 00 	sts	0x00CC, r18

	/* Reconfigure the USART in double speed mode for a wider baud rate range at the expense of accuracy */
	UCSR1C = ConfigMask;
     2c2:	10 93 ca 00 	sts	0x00CA, r17
	UCSR1A = (1 << U2X1);
     2c6:	82 e0       	ldi	r24, 0x02	; 2
     2c8:	80 93 c8 00 	sts	0x00C8, r24
	UCSR1B = ((1 << RXCIE1) | (1 << TXEN1) | (1 << RXEN1));
     2cc:	88 e9       	ldi	r24, 0x98	; 152
     2ce:	80 93 c9 00 	sts	0x00C9, r24
}
     2d2:	1f 91       	pop	r17
     2d4:	08 95       	ret

000002d6 <setBaudRate9600>:

void setBaudRate9600(void)
{
	/* Must turn off USART before reconfiguring it, otherwise incorrect operation may occur */
	UCSR1B = 0;
     2d6:	29 ec       	ldi	r18, 0xC9	; 201
     2d8:	30 e0       	ldi	r19, 0x00	; 0
     2da:	f9 01       	movw	r30, r18
     2dc:	10 82       	st	Z, r1
	UCSR1A = 0;
     2de:	a8 ec       	ldi	r26, 0xC8	; 200
     2e0:	b0 e0       	ldi	r27, 0x00	; 0
     2e2:	1c 92       	st	X, r1
	UCSR1C = 0;
     2e4:	ea ec       	ldi	r30, 0xCA	; 202
     2e6:	f0 e0       	ldi	r31, 0x00	; 0
     2e8:	10 82       	st	Z, r1

	/* Set the new baud rate before configuring the USART */
	UBRR1  = 103;
     2ea:	87 e6       	ldi	r24, 0x67	; 103
     2ec:	90 e0       	ldi	r25, 0x00	; 0
     2ee:	90 93 cd 00 	sts	0x00CD, r25
     2f2:	80 93 cc 00 	sts	0x00CC, r24
	// UCSR1C[7:6] = 00 - Async USART
	// UCSR1C[5:4] = 00 - No Parity
	// UCSR1C[3]   = 0  - 1 Stop Bit
	// UCSR1C[2:1] = 11 - 8 Data Bits
	// UCSR1C[0]   = 0  - Clock Polarity (8 for Async)
	UCSR1C = 0x6;
     2f6:	86 e0       	ldi	r24, 0x06	; 6
     2f8:	80 83       	st	Z, r24
	UCSR1A = (1 << U2X1);
     2fa:	82 e0       	ldi	r24, 0x02	; 2
     2fc:	8c 93       	st	X, r24
	UCSR1B = 0x08;
     2fe:	88 e0       	ldi	r24, 0x08	; 8
     300:	f9 01       	movw	r30, r18
     302:	80 83       	st	Z, r24
}
     304:	08 95       	ret

00000306 <EVENT_USB_Device_ControlRequest>:
}

/** Event handler for the library USB Control Request reception event. */
void EVENT_USB_Device_ControlRequest(void)
{
	CDC_Device_ProcessControlRequest(&VirtualSerial_CDC_Interface);
     306:	80 e1       	ldi	r24, 0x10	; 16
     308:	91 e0       	ldi	r25, 0x01	; 1
}
     30a:	57 c6       	rjmp	.+3246   	; 0xfba <CDC_Device_ProcessControlRequest>

0000030c <EVENT_USB_Device_ConfigurationChanged>:
/** Event handler for the library USB Configuration Changed event. */
void EVENT_USB_Device_ConfigurationChanged(void)
{
	bool ConfigSuccess = true;

	ConfigSuccess &= CDC_Device_ConfigureEndpoints(&VirtualSerial_CDC_Interface);
     30c:	80 e1       	ldi	r24, 0x10	; 16
     30e:	91 e0       	ldi	r25, 0x01	; 1

//	LEDs_SetAllLEDs(ConfigSuccess ? 2 : 3);
}
     310:	2d c6       	rjmp	.+3162   	; 0xf6c <CDC_Device_ConfigureEndpoints>

00000312 <SetupHardware>:
	}
}

/** Configures the board hardware and chip peripherals for the demo's functionality. */
void SetupHardware(void)
{
     312:	df 93       	push	r29
     314:	cf 93       	push	r28
     316:	cd b7       	in	r28, 0x3d	; 61
     318:	de b7       	in	r29, 0x3e	; 62
     31a:	60 97       	sbiw	r28, 0x10	; 16
     31c:	0f b6       	in	r0, 0x3f	; 63
     31e:	f8 94       	cli
     320:	de bf       	out	0x3e, r29	; 62
     322:	0f be       	out	0x3f, r0	; 63
     324:	cd bf       	out	0x3d, r28	; 61
	char kickLoggerString[] = "$PMTK185,0*22\r\n";
     326:	de 01       	movw	r26, r28
     328:	11 96       	adiw	r26, 0x01	; 1
     32a:	e0 e0       	ldi	r30, 0x00	; 0
     32c:	f1 e0       	ldi	r31, 0x01	; 1
     32e:	80 e1       	ldi	r24, 0x10	; 16
     330:	01 90       	ld	r0, Z+
     332:	0d 92       	st	X+, r0
     334:	81 50       	subi	r24, 0x01	; 1
     336:	e1 f7       	brne	.-8      	; 0x330 <SetupHardware+0x1e>
	int16_t outBuffPtr = 0;
	
	/* Disable watchdog if enabled by bootloader/fuses */
	MCUSR &= ~(1 << WDRF);
     338:	84 b7       	in	r24, 0x34	; 52
     33a:	87 7f       	andi	r24, 0xF7	; 247
     33c:	84 bf       	out	0x34, r24	; 52
	wdt_disable();
     33e:	88 e1       	ldi	r24, 0x18	; 24
     340:	0f b6       	in	r0, 0x3f	; 63
     342:	f8 94       	cli
     344:	80 93 60 00 	sts	0x0060, r24
     348:	10 92 60 00 	sts	0x0060, r1
     34c:	0f be       	out	0x3f, r0	; 63

	/* Disable clock division */
	clock_prescale_set(clock_div_1);
     34e:	80 e0       	ldi	r24, 0x00	; 0
     350:	90 e0       	ldi	r25, 0x00	; 0
     352:	20 e8       	ldi	r18, 0x80	; 128
     354:	0f b6       	in	r0, 0x3f	; 63
     356:	f8 94       	cli
     358:	20 93 61 00 	sts	0x0061, r18
     35c:	80 93 61 00 	sts	0x0061, r24
     360:	0f be       	out	0x3f, r0	; 63

		/* Inline Functions: */
		#if !defined(__DOXYGEN__)
			static inline void LEDs_Init(void)
			{
				DDRD  |=  LEDS_ALL_LEDS;
     362:	8a b1       	in	r24, 0x0a	; 10
     364:	80 6f       	ori	r24, 0xF0	; 240
     366:	8a b9       	out	0x0a, r24	; 10
				PORTD &= ~LEDS_ALL_LEDS;
     368:	8b b1       	in	r24, 0x0b	; 11
     36a:	8f 70       	andi	r24, 0x0F	; 15
     36c:	8b b9       	out	0x0b, r24	; 11
				PORTD &= ~LEDMask;
			}

			static inline void LEDs_SetAllLEDs(const uint8_t LEDMask)
			{
				PORTD = ((PORTD & ~LEDS_ALL_LEDS) | LEDMask);
     36e:	8b b1       	in	r24, 0x0b	; 11
     370:	8f 70       	andi	r24, 0x0F	; 15
     372:	81 60       	ori	r24, 0x01	; 1
     374:	8b b9       	out	0x0b, r24	; 11
	/* Hardware Initialization */
	LEDs_Init();

	LEDs_SetAllLEDs(1);

	DDRF &= 0xf7;   // PF0 is 3DFIX input
     376:	83 98       	cbi	0x10, 3	; 16
	DDRF &= 0xdf;   // PF5 is 1PPS input
     378:	85 98       	cbi	0x10, 5	; 16
  DDRD &= 0xdf;   // PD5 is BRCR input
     37a:	55 98       	cbi	0x0a, 5	; 10
     37c:	88 e8       	ldi	r24, 0x88	; 136
     37e:	93 e1       	ldi	r25, 0x13	; 19
    milliseconds can be achieved.
 */
void
_delay_loop_2(uint16_t __count)
{
	__asm__ volatile (
     380:	28 ec       	ldi	r18, 0xC8	; 200
     382:	30 e0       	ldi	r19, 0x00	; 0
     384:	f9 01       	movw	r30, r18
     386:	31 97       	sbiw	r30, 0x01	; 1
     388:	f1 f7       	brne	.-4      	; 0x386 <SetupHardware+0x74>
		__ticks = (uint16_t) (__ms * 10.0);
		while(__ticks)
		{
			// wait 1/10 ms
			_delay_loop_2(((F_CPU) / 4e3) / 10);
			__ticks --;
     38a:	01 97       	sbiw	r24, 0x01	; 1
		__ticks = 1;
	else if (__tmp > 65535)
	{
		//	__ticks = requested delay in 1/10 ms
		__ticks = (uint16_t) (__ms * 10.0);
		while(__ticks)
     38c:	d9 f7       	brne	.-10     	; 0x384 <SetupHardware+0x72>
  
	_delay_ms(500);

	// Hard set the baud rate to 9600 since that's the rate that the USART runs at
	setBaudRate9600();
     38e:	a3 df       	rcall	.-186    	; 0x2d6 <setBaudRate9600>
     390:	88 ee       	ldi	r24, 0xE8	; 232
     392:	93 e0       	ldi	r25, 0x03	; 3
     394:	28 ec       	ldi	r18, 0xC8	; 200
     396:	30 e0       	ldi	r19, 0x00	; 0
     398:	f9 01       	movw	r30, r18
     39a:	31 97       	sbiw	r30, 0x01	; 1
     39c:	f1 f7       	brne	.-4      	; 0x39a <SetupHardware+0x88>
		{
			// wait 1/10 ms
			_delay_loop_2(((F_CPU) / 4e3) / 10);
			__ticks --;
     39e:	01 97       	sbiw	r24, 0x01	; 1
		__ticks = 1;
	else if (__tmp > 65535)
	{
		//	__ticks = requested delay in 1/10 ms
		__ticks = (uint16_t) (__ms * 10.0);
		while(__ticks)
     3a0:	d9 f7       	brne	.-10     	; 0x398 <SetupHardware+0x86>
     3a2:	fe 01       	movw	r30, r28
     3a4:	06 c0       	rjmp	.+12     	; 0x3b2 <SetupHardware+0xa0>
	// PMTK_LOCUS_STARTLOG
	// $PMTK185,0*22 is the command
	
	while (kickLoggerString[outBuffPtr] != 0)
	{
		while (!( UCSR1A & (1<<UDRE1)) );		// hang around until transmitter is empty
     3a6:	80 91 c8 00 	lds	r24, 0x00C8
     3aa:	85 ff       	sbrs	r24, 5
     3ac:	fc cf       	rjmp	.-8      	; 0x3a6 <SetupHardware+0x94>
		UDR1 = kickLoggerString[outBuffPtr];
     3ae:	90 93 ce 00 	sts	0x00CE, r25
     3b2:	31 96       	adiw	r30, 0x01	; 1

	// Kick the GPS LOCUS to start logging data
	// PMTK_LOCUS_STARTLOG
	// $PMTK185,0*22 is the command
	
	while (kickLoggerString[outBuffPtr] != 0)
     3b4:	90 81       	ld	r25, Z
     3b6:	99 23       	and	r25, r25
     3b8:	b1 f7       	brne	.-20     	; 0x3a6 <SetupHardware+0x94>
	{
		while (!( UCSR1A & (1<<UDRE1)) );		// hang around until transmitter is empty
		UDR1 = kickLoggerString[outBuffPtr];
		outBuffPtr++;
	}
	while ((UCSR1A & TXC1) == 0);		// hang around until the entire packet is transmitted out
     3ba:	80 91 c8 00 	lds	r24, 0x00C8
     3be:	86 70       	andi	r24, 0x06	; 6
     3c0:	e1 f3       	breq	.-8      	; 0x3ba <SetupHardware+0xa8>
     3c2:	88 e8       	ldi	r24, 0x88	; 136
     3c4:	93 e1       	ldi	r25, 0x13	; 19
     3c6:	28 ec       	ldi	r18, 0xC8	; 200
     3c8:	30 e0       	ldi	r19, 0x00	; 0
     3ca:	f9 01       	movw	r30, r18
     3cc:	31 97       	sbiw	r30, 0x01	; 1
     3ce:	f1 f7       	brne	.-4      	; 0x3cc <SetupHardware+0xba>
		{
			// wait 1/10 ms
			_delay_loop_2(((F_CPU) / 4e3) / 10);
			__ticks --;
     3d0:	01 97       	sbiw	r24, 0x01	; 1
		__ticks = 1;
	else if (__tmp > 65535)
	{
		//	__ticks = requested delay in 1/10 ms
		__ticks = (uint16_t) (__ms * 10.0);
		while(__ticks)
     3d2:	d9 f7       	brne	.-10     	; 0x3ca <SetupHardware+0xb8>

	_delay_ms(500);

	USB_Init();
     3d4:	cb d1       	rcall	.+918    	; 0x76c <USB_Init>

	/* Start the flush timer so that overflows occur rapidly to push received bytes to the USB interface */
	TCCR0B = (1 << CS02);
     3d6:	84 e0       	ldi	r24, 0x04	; 4
     3d8:	85 bd       	out	0x25, r24	; 37
}
     3da:	60 96       	adiw	r28, 0x10	; 16
     3dc:	0f b6       	in	r0, 0x3f	; 63
     3de:	f8 94       	cli
     3e0:	de bf       	out	0x3e, r29	; 62
     3e2:	0f be       	out	0x3f, r0	; 63
     3e4:	cd bf       	out	0x3d, r28	; 61
     3e6:	cf 91       	pop	r28
     3e8:	df 91       	pop	r29
     3ea:	08 95       	ret

000003ec <main>:
 *   Main program entry point. This routine contains the overall program flow, including initial
 *  setup of all components and the main program loop.
 */

int main(void)
{
     3ec:	cf 93       	push	r28
     3ee:	df 93       	push	r29
	SetupHardware();
     3f0:	90 df       	rcall	.-224    	; 0x312 <SetupHardware>
		 */
		static inline void RingBuffer_InitBuffer(RingBuffer_t* Buffer, uint8_t* const DataPtr, const uint16_t Size)
		                                         ATTR_NON_NULL_PTR_ARG(1) ATTR_NON_NULL_PTR_ARG(2);
		static inline void RingBuffer_InitBuffer(RingBuffer_t* Buffer, uint8_t* const DataPtr, const uint16_t Size)
		{
			GCC_FORCE_POINTER_ACCESS(Buffer);
     3f2:	ec e2       	ldi	r30, 0x2C	; 44
     3f4:	f1 e0       	ldi	r31, 0x01	; 1
			static inline uint_reg_t GetGlobalInterruptMask(void)
			{
				GCC_MEMORY_BARRIER();

				#if (ARCH == ARCH_AVR8)
				return SREG;
     3f6:	2f b7       	in	r18, 0x3f	; 63
			static inline void GlobalInterruptDisable(void)
			{
				GCC_MEMORY_BARRIER();

				#if (ARCH == ARCH_AVR8)
				cli();
     3f8:	f8 94       	cli

			uint_reg_t CurrentGlobalInt = GetGlobalInterruptMask();
			GlobalInterruptDisable();

			Buffer->In     = DataPtr;
     3fa:	88 e3       	ldi	r24, 0x38	; 56
     3fc:	91 e0       	ldi	r25, 0x01	; 1
     3fe:	91 83       	std	Z+1, r25	; 0x01
     400:	80 83       	st	Z, r24
			Buffer->Out    = DataPtr;
     402:	93 83       	std	Z+3, r25	; 0x03
     404:	82 83       	std	Z+2, r24	; 0x02
			Buffer->Start  = &DataPtr[0];
     406:	95 83       	std	Z+5, r25	; 0x05
     408:	84 83       	std	Z+4, r24	; 0x04
			Buffer->End    = &DataPtr[Size];
     40a:	88 eb       	ldi	r24, 0xB8	; 184
     40c:	91 e0       	ldi	r25, 0x01	; 1
     40e:	97 83       	std	Z+7, r25	; 0x07
     410:	86 83       	std	Z+6, r24	; 0x06
			Buffer->Size   = Size;
     412:	80 e8       	ldi	r24, 0x80	; 128
     414:	90 e0       	ldi	r25, 0x00	; 0
     416:	91 87       	std	Z+9, r25	; 0x09
     418:	80 87       	std	Z+8, r24	; 0x08
			Buffer->Count  = 0;
     41a:	13 86       	std	Z+11, r1	; 0x0b
     41c:	12 86       	std	Z+10, r1	; 0x0a
			static inline void SetGlobalInterruptMask(const uint_reg_t GlobalIntState)
			{
				GCC_MEMORY_BARRIER();

				#if (ARCH == ARCH_AVR8)
				SREG = GlobalIntState;
     41e:	2f bf       	out	0x3f, r18	; 63
		 */
		static inline void RingBuffer_InitBuffer(RingBuffer_t* Buffer, uint8_t* const DataPtr, const uint16_t Size)
		                                         ATTR_NON_NULL_PTR_ARG(1) ATTR_NON_NULL_PTR_ARG(2);
		static inline void RingBuffer_InitBuffer(RingBuffer_t* Buffer, uint8_t* const DataPtr, const uint16_t Size)
		{
			GCC_FORCE_POINTER_ACCESS(Buffer);
     420:	e8 eb       	ldi	r30, 0xB8	; 184
     422:	f1 e0       	ldi	r31, 0x01	; 1
			static inline uint_reg_t GetGlobalInterruptMask(void)
			{
				GCC_MEMORY_BARRIER();

				#if (ARCH == ARCH_AVR8)
				return SREG;
     424:	2f b7       	in	r18, 0x3f	; 63
			static inline void GlobalInterruptDisable(void)
			{
				GCC_MEMORY_BARRIER();

				#if (ARCH == ARCH_AVR8)
				cli();
     426:	f8 94       	cli

			uint_reg_t CurrentGlobalInt = GetGlobalInterruptMask();
			GlobalInterruptDisable();

			Buffer->In     = DataPtr;
     428:	84 ec       	ldi	r24, 0xC4	; 196
     42a:	91 e0       	ldi	r25, 0x01	; 1
     42c:	91 83       	std	Z+1, r25	; 0x01
     42e:	80 83       	st	Z, r24
			Buffer->Out    = DataPtr;
     430:	93 83       	std	Z+3, r25	; 0x03
     432:	82 83       	std	Z+2, r24	; 0x02
			Buffer->Start  = &DataPtr[0];
     434:	95 83       	std	Z+5, r25	; 0x05
     436:	84 83       	std	Z+4, r24	; 0x04
			Buffer->End    = &DataPtr[Size];
     438:	84 e4       	ldi	r24, 0x44	; 68
     43a:	92 e0       	ldi	r25, 0x02	; 2
     43c:	97 83       	std	Z+7, r25	; 0x07
     43e:	86 83       	std	Z+6, r24	; 0x06
			Buffer->Size   = Size;
     440:	80 e8       	ldi	r24, 0x80	; 128
     442:	90 e0       	ldi	r25, 0x00	; 0
     444:	91 87       	std	Z+9, r25	; 0x09
     446:	80 87       	std	Z+8, r24	; 0x08
			Buffer->Count  = 0;
     448:	13 86       	std	Z+11, r1	; 0x0b
     44a:	12 86       	std	Z+10, r1	; 0x0a
			static inline void SetGlobalInterruptMask(const uint_reg_t GlobalIntState)
			{
				GCC_MEMORY_BARRIER();

				#if (ARCH == ARCH_AVR8)
				SREG = GlobalIntState;
     44c:	2f bf       	out	0x3f, r18	; 63
     44e:	8b b1       	in	r24, 0x0b	; 11
     450:	8f 70       	andi	r24, 0x0F	; 15
     452:	8b b9       	out	0x0b, r24	; 11
	RingBuffer_InitBuffer(&USBtoUSART_Buffer, USBtoUSART_Buffer_Data, sizeof(USBtoUSART_Buffer_Data));
	RingBuffer_InitBuffer(&USARTtoUSB_Buffer, USARTtoUSB_Buffer_Data, sizeof(USARTtoUSB_Buffer_Data));

	LEDs_SetAllLEDs(0);

	sei();
     454:	78 94       	sei

	for (;;)
	{
		if ((PINF & 0x01) == 0x01)
     456:	78 9b       	sbis	0x0f, 0	; 15
     458:	04 c0       	rjmp	.+8      	; 0x462 <main+0x76>
     45a:	8b b1       	in	r24, 0x0b	; 11
     45c:	8f 70       	andi	r24, 0x0F	; 15
     45e:	82 60       	ori	r24, 0x02	; 2
     460:	02 c0       	rjmp	.+4      	; 0x466 <main+0x7a>
			static inline uint_reg_t GetGlobalInterruptMask(void)
			{
				GCC_MEMORY_BARRIER();

				#if (ARCH == ARCH_AVR8)
				return SREG;
     462:	8b b1       	in	r24, 0x0b	; 11
     464:	8f 70       	andi	r24, 0x0F	; 15
     466:	8b b9       	out	0x0b, r24	; 11
     468:	8f b7       	in	r24, 0x3f	; 63
			static inline void GlobalInterruptDisable(void)
			{
				GCC_MEMORY_BARRIER();

				#if (ARCH == ARCH_AVR8)
				cli();
     46a:	f8 94       	cli
			uint16_t Count;

			uint_reg_t CurrentGlobalInt = GetGlobalInterruptMask();
			GlobalInterruptDisable();

			Count = Buffer->Count;
     46c:	20 91 36 01 	lds	r18, 0x0136
     470:	30 91 37 01 	lds	r19, 0x0137
			static inline void SetGlobalInterruptMask(const uint_reg_t GlobalIntState)
			{
				GCC_MEMORY_BARRIER();

				#if (ARCH == ARCH_AVR8)
				SREG = GlobalIntState;
     474:	8f bf       	out	0x3f, r24	; 63
			LEDs_SetAllLEDs(2);
		else
			LEDs_SetAllLEDs(0);
		/* Only try to read in bytes from the CDC interface if the (outbound) transmit buffer is not full */
		if (!(RingBuffer_IsFull(&USBtoUSART_Buffer)))
     476:	80 91 34 01 	lds	r24, 0x0134
     47a:	90 91 35 01 	lds	r25, 0x0135
     47e:	28 17       	cp	r18, r24
     480:	39 07       	cpc	r19, r25
     482:	49 f0       	breq	.+18     	; 0x496 <main+0xaa>
		{
			int16_t ReceivedByte = CDC_Device_ReceiveByte(&VirtualSerial_CDC_Interface);
     484:	80 e1       	ldi	r24, 0x10	; 16
     486:	91 e0       	ldi	r25, 0x01	; 1
     488:	ce d4       	rcall	.+2460   	; 0xe26 <CDC_Device_ReceiveByte>
     48a:	bc 01       	movw	r22, r24

			/* Read bytes from the USB OUT endpoint into the USART transmit buffer */
			if (!(ReceivedByte < 0))
     48c:	97 fd       	sbrc	r25, 7
     48e:	03 c0       	rjmp	.+6      	; 0x496 <main+0xaa>
			  RingBuffer_Insert(&USBtoUSART_Buffer, ReceivedByte);
     490:	8c e2       	ldi	r24, 0x2C	; 44
     492:	91 e0       	ldi	r25, 0x01	; 1
     494:	76 de       	rcall	.-788    	; 0x182 <RingBuffer_Insert>
			static inline uint_reg_t GetGlobalInterruptMask(void)
			{
				GCC_MEMORY_BARRIER();

				#if (ARCH == ARCH_AVR8)
				return SREG;
     496:	8f b7       	in	r24, 0x3f	; 63
			static inline void GlobalInterruptDisable(void)
			{
				GCC_MEMORY_BARRIER();

				#if (ARCH == ARCH_AVR8)
				cli();
     498:	f8 94       	cli
     49a:	c0 91 c2 01 	lds	r28, 0x01C2
     49e:	d0 91 c3 01 	lds	r29, 0x01C3
			static inline void SetGlobalInterruptMask(const uint_reg_t GlobalIntState)
			{
				GCC_MEMORY_BARRIER();

				#if (ARCH == ARCH_AVR8)
				SREG = GlobalIntState;
     4a2:	8f bf       	out	0x3f, r24	; 63
		}

		/* Check if the UART receive buffer flush timer has expired or the buffer is nearly full */
		uint16_t BufferCount = RingBuffer_GetCount(&USARTtoUSB_Buffer);
		if ((TIFR0 & (1 << TOV0)) || (BufferCount > (uint8_t)(sizeof(USARTtoUSB_Buffer_Data) * .75)))
     4a4:	a8 99       	sbic	0x15, 0	; 21
     4a6:	03 c0       	rjmp	.+6      	; 0x4ae <main+0xc2>
     4a8:	c1 36       	cpi	r28, 0x61	; 97
     4aa:	d1 05       	cpc	r29, r1
     4ac:	90 f0       	brcs	.+36     	; 0x4d2 <main+0xe6>
		{
			/* Clear flush timer expiry flag */
			TIFR0 |= (1 << TOV0);
     4ae:	a8 9a       	sbi	0x15, 0	; 21
     4b0:	0e c0       	rjmp	.+28     	; 0x4ce <main+0xe2>

			/* Read bytes from the USART receive buffer into the USB IN endpoint */
			while (BufferCount--)
			{
				/* Try to send the next byte of data to the host, abort if there is an error without dequeuing */
				if (CDC_Device_SendByte(&VirtualSerial_CDC_Interface,
     4b2:	e0 91 ba 01 	lds	r30, 0x01BA
     4b6:	f0 91 bb 01 	lds	r31, 0x01BB
     4ba:	80 e1       	ldi	r24, 0x10	; 16
     4bc:	91 e0       	ldi	r25, 0x01	; 1
     4be:	60 81       	ld	r22, Z
     4c0:	30 d5       	rcall	.+2656   	; 0xf22 <CDC_Device_SendByte>
     4c2:	21 97       	sbiw	r28, 0x01	; 1
     4c4:	88 23       	and	r24, r24
     4c6:	29 f4       	brne	.+10     	; 0x4d2 <main+0xe6>
				{
					break;
				}

				/* Dequeue the already sent byte from the buffer now we have confirmed that no transmission error occurred */
				RingBuffer_Remove(&USARTtoUSB_Buffer);
     4c8:	88 eb       	ldi	r24, 0xB8	; 184
     4ca:	91 e0       	ldi	r25, 0x01	; 1
     4cc:	79 de       	rcall	.-782    	; 0x1c0 <RingBuffer_Remove>
		{
			/* Clear flush timer expiry flag */
			TIFR0 |= (1 << TOV0);

			/* Read bytes from the USART receive buffer into the USB IN endpoint */
			while (BufferCount--)
     4ce:	20 97       	sbiw	r28, 0x00	; 0
     4d0:	81 f7       	brne	.-32     	; 0x4b2 <main+0xc6>
			static inline uint_reg_t GetGlobalInterruptMask(void)
			{
				GCC_MEMORY_BARRIER();

				#if (ARCH == ARCH_AVR8)
				return SREG;
     4d2:	2f b7       	in	r18, 0x3f	; 63
			static inline void GlobalInterruptDisable(void)
			{
				GCC_MEMORY_BARRIER();

				#if (ARCH == ARCH_AVR8)
				cli();
     4d4:	f8 94       	cli
     4d6:	80 91 36 01 	lds	r24, 0x0136
     4da:	90 91 37 01 	lds	r25, 0x0137
			static inline void SetGlobalInterruptMask(const uint_reg_t GlobalIntState)
			{
				GCC_MEMORY_BARRIER();

				#if (ARCH == ARCH_AVR8)
				SREG = GlobalIntState;
     4de:	2f bf       	out	0x3f, r18	; 63
				RingBuffer_Remove(&USARTtoUSB_Buffer);
			}
		}

		/* Load the next byte from the USART transmit buffer into the USART */
		if (!(RingBuffer_IsEmpty(&USBtoUSART_Buffer)))
     4e0:	89 2b       	or	r24, r25
     4e2:	51 f0       	breq	.+20     	; 0x4f8 <main+0x10c>
		  Serial_SendByte(RingBuffer_Remove(&USBtoUSART_Buffer));
     4e4:	8c e2       	ldi	r24, 0x2C	; 44
     4e6:	91 e0       	ldi	r25, 0x01	; 1
     4e8:	6b de       	rcall	.-810    	; 0x1c0 <RingBuffer_Remove>
     4ea:	98 2f       	mov	r25, r24
			 *  \param[in] DataByte  Byte to transmit through the USART.
			 */
			static inline void Serial_SendByte(const char DataByte) ATTR_ALWAYS_INLINE;
			static inline void Serial_SendByte(const char DataByte)
			{
				while (!(UCSR1A & (1 << UDRE1)));
     4ec:	80 91 c8 00 	lds	r24, 0x00C8
     4f0:	85 ff       	sbrs	r24, 5
     4f2:	fc cf       	rjmp	.-8      	; 0x4ec <main+0x100>
				UDR1 = DataByte;
     4f4:	90 93 ce 00 	sts	0x00CE, r25

		CDC_Device_USBTask(&VirtualSerial_CDC_Interface);
     4f8:	80 e1       	ldi	r24, 0x10	; 16
     4fa:	91 e0       	ldi	r25, 0x01	; 1
     4fc:	03 d5       	rcall	.+2566   	; 0xf04 <CDC_Device_USBTask>
		USB_USBTask();
     4fe:	7f d4       	rcall	.+2302   	; 0xdfe <USB_USBTask>
     500:	aa cf       	rjmp	.-172    	; 0x456 <main+0x6a>

00000502 <CALLBACK_USB_GetDescriptor>:
 *  USB host.
 */
uint16_t CALLBACK_USB_GetDescriptor(const uint16_t wValue,
                                    const uint8_t wIndex,
                                    const void** const DescriptorAddress)
{
     502:	da 01       	movw	r26, r20
	const uint8_t  DescriptorNumber = (wValue & 0xFF);

	const void* Address = NULL;
	uint16_t    Size    = NO_DESCRIPTOR;

	switch (DescriptorType)
     504:	92 30       	cpi	r25, 0x02	; 2
     506:	49 f0       	breq	.+18     	; 0x51a <CALLBACK_USB_GetDescriptor+0x18>
     508:	93 30       	cpi	r25, 0x03	; 3
     50a:	61 f0       	breq	.+24     	; 0x524 <CALLBACK_USB_GetDescriptor+0x22>
     50c:	91 30       	cpi	r25, 0x01	; 1
     50e:	f9 f4       	brne	.+62     	; 0x54e <CALLBACK_USB_GetDescriptor+0x4c>
     510:	ec ea       	ldi	r30, 0xAC	; 172
     512:	f0 e0       	ldi	r31, 0x00	; 0
     514:	22 e1       	ldi	r18, 0x12	; 18
     516:	30 e0       	ldi	r19, 0x00	; 0
     518:	1e c0       	rjmp	.+60     	; 0x556 <CALLBACK_USB_GetDescriptor+0x54>
     51a:	ee eb       	ldi	r30, 0xBE	; 190
     51c:	f0 e0       	ldi	r31, 0x00	; 0
     51e:	2e e3       	ldi	r18, 0x3E	; 62
     520:	30 e0       	ldi	r19, 0x00	; 0
     522:	19 c0       	rjmp	.+50     	; 0x556 <CALLBACK_USB_GetDescriptor+0x54>
		case DTYPE_Configuration:
			Address = &ConfigurationDescriptor;
			Size    = sizeof(USB_Descriptor_Configuration_t);
			break;
		case DTYPE_String:
			switch (DescriptorNumber)
     524:	81 30       	cpi	r24, 0x01	; 1
     526:	49 f0       	breq	.+18     	; 0x53a <CALLBACK_USB_GetDescriptor+0x38>
     528:	81 30       	cpi	r24, 0x01	; 1
     52a:	18 f0       	brcs	.+6      	; 0x532 <CALLBACK_USB_GetDescriptor+0x30>
     52c:	82 30       	cpi	r24, 0x02	; 2
     52e:	79 f4       	brne	.+30     	; 0x54e <CALLBACK_USB_GetDescriptor+0x4c>
     530:	08 c0       	rjmp	.+16     	; 0x542 <CALLBACK_USB_GetDescriptor+0x40>
			{
				case 0x00:
					Address = &LanguageString;
					Size    = pgm_read_byte(&LanguageString.Header.Size);
     532:	ec ef       	ldi	r30, 0xFC	; 252
     534:	f0 e0       	ldi	r31, 0x00	; 0
     536:	84 91       	lpm	r24, Z+
     538:	07 c0       	rjmp	.+14     	; 0x548 <CALLBACK_USB_GetDescriptor+0x46>
					break;
				case 0x01:
					Address = &ManufacturerString;
					Size    = pgm_read_byte(&ManufacturerString.Header.Size);
     53a:	e0 e0       	ldi	r30, 0x00	; 0
     53c:	f1 e0       	ldi	r31, 0x01	; 1
     53e:	84 91       	lpm	r24, Z+
     540:	03 c0       	rjmp	.+6      	; 0x548 <CALLBACK_USB_GetDescriptor+0x46>
					break;
				case 0x02:
					Address = &ProductString;
					Size    = pgm_read_byte(&ProductString.Header.Size);
     542:	ea e1       	ldi	r30, 0x1A	; 26
     544:	f1 e0       	ldi	r31, 0x01	; 1
     546:	84 91       	lpm	r24, Z+
     548:	28 2f       	mov	r18, r24
     54a:	30 e0       	ldi	r19, 0x00	; 0
     54c:	04 c0       	rjmp	.+8      	; 0x556 <CALLBACK_USB_GetDescriptor+0x54>
     54e:	e0 e0       	ldi	r30, 0x00	; 0
     550:	f0 e0       	ldi	r31, 0x00	; 0
     552:	20 e0       	ldi	r18, 0x00	; 0
     554:	30 e0       	ldi	r19, 0x00	; 0
			}

			break;
	}

	*DescriptorAddress = Address;
     556:	ed 93       	st	X+, r30
     558:	fc 93       	st	X, r31
	return Size;
}
     55a:	c9 01       	movw	r24, r18
     55c:	08 95       	ret

0000055e <Endpoint_ConfigureEndpoint_Prv>:
}

bool Endpoint_ConfigureEndpoint_Prv(const uint8_t Number,
                                    const uint8_t UECFG0XData,
                                    const uint8_t UECFG1XData)
{
     55e:	38 2f       	mov	r19, r24
     560:	28 2f       	mov	r18, r24
     562:	2e c0       	rjmp	.+92     	; 0x5c0 <Endpoint_ConfigureEndpoint_Prv+0x62>
			 */
			static inline void Endpoint_SelectEndpoint(const uint8_t Address) ATTR_ALWAYS_INLINE;
			static inline void Endpoint_SelectEndpoint(const uint8_t Address)
			{
				#if !defined(CONTROL_ONLY_DEVICE)
					UENUM = (Address & ENDPOINT_EPNUM_MASK);
     564:	82 2f       	mov	r24, r18
     566:	8f 70       	andi	r24, 0x0F	; 15
     568:	80 93 e9 00 	sts	0x00E9, r24
		uint8_t UECFG1XTemp;
		uint8_t UEIENXTemp;

		Endpoint_SelectEndpoint(EPNum);

		if (EPNum == Number)
     56c:	23 17       	cp	r18, r19
     56e:	21 f4       	brne	.+8      	; 0x578 <Endpoint_ConfigureEndpoint_Prv+0x1a>
     570:	76 2f       	mov	r23, r22
     572:	94 2f       	mov	r25, r20
     574:	50 e0       	ldi	r21, 0x00	; 0
     576:	06 c0       	rjmp	.+12     	; 0x584 <Endpoint_ConfigureEndpoint_Prv+0x26>
			UECFG1XTemp = UECFG1XData;
			UEIENXTemp  = 0;
		}
		else
		{
			UECFG0XTemp = UECFG0X;
     578:	70 91 ec 00 	lds	r23, 0x00EC
			UECFG1XTemp = UECFG1X;
     57c:	90 91 ed 00 	lds	r25, 0x00ED
			UEIENXTemp  = UEIENX;
     580:	50 91 f0 00 	lds	r21, 0x00F0
		}

		if (!(UECFG1XTemp & (1 << ALLOC)))
     584:	91 ff       	sbrs	r25, 1
     586:	1b c0       	rjmp	.+54     	; 0x5be <Endpoint_ConfigureEndpoint_Prv+0x60>
			 *  to and from a host.
			 */
			static inline void Endpoint_DisableEndpoint(void) ATTR_ALWAYS_INLINE;
			static inline void Endpoint_DisableEndpoint(void)
			{
				UECONX &= ~(1 << EPEN);
     588:	80 91 eb 00 	lds	r24, 0x00EB
     58c:	8e 7f       	andi	r24, 0xFE	; 254
     58e:	80 93 eb 00 	sts	0x00EB, r24
		  continue;

		Endpoint_DisableEndpoint();
		UECFG1X &= ~(1 << ALLOC);
     592:	80 91 ed 00 	lds	r24, 0x00ED
     596:	8d 7f       	andi	r24, 0xFD	; 253
     598:	80 93 ed 00 	sts	0x00ED, r24
			 *  \note Endpoints must first be configured properly via \ref Endpoint_ConfigureEndpoint().
			 */
			static inline void Endpoint_EnableEndpoint(void) ATTR_ALWAYS_INLINE;
			static inline void Endpoint_EnableEndpoint(void)
			{
				UECONX |= (1 << EPEN);
     59c:	80 91 eb 00 	lds	r24, 0x00EB
     5a0:	81 60       	ori	r24, 0x01	; 1
     5a2:	80 93 eb 00 	sts	0x00EB, r24

		Endpoint_EnableEndpoint();
		UECFG0X = UECFG0XTemp;
     5a6:	70 93 ec 00 	sts	0x00EC, r23
		UECFG1X = UECFG1XTemp;
     5aa:	90 93 ed 00 	sts	0x00ED, r25
		UEIENX  = UEIENXTemp;
     5ae:	50 93 f0 00 	sts	0x00F0, r21
			 *  \return Boolean \c true if the currently selected endpoint has been configured, \c false otherwise.
			 */
			static inline bool Endpoint_IsConfigured(void) ATTR_WARN_UNUSED_RESULT ATTR_ALWAYS_INLINE;
			static inline bool Endpoint_IsConfigured(void)
			{
				return ((UESTA0X & (1 << CFGOK)) ? true : false);
     5b2:	80 91 ee 00 	lds	r24, 0x00EE

		if (!(Endpoint_IsConfigured()))
     5b6:	87 fd       	sbrc	r24, 7
     5b8:	02 c0       	rjmp	.+4      	; 0x5be <Endpoint_ConfigureEndpoint_Prv+0x60>
     5ba:	80 e0       	ldi	r24, 0x00	; 0
     5bc:	08 95       	ret
	UECFG0X = UECFG0XData;
	UECFG1X = UECFG1XData;

	return Endpoint_IsConfigured();
#else
	for (uint8_t EPNum = Number; EPNum < ENDPOINT_TOTAL_ENDPOINTS; EPNum++)
     5be:	2f 5f       	subi	r18, 0xFF	; 255
     5c0:	27 30       	cpi	r18, 0x07	; 7
     5c2:	80 f2       	brcs	.-96     	; 0x564 <Endpoint_ConfigureEndpoint_Prv+0x6>
			 */
			static inline void Endpoint_SelectEndpoint(const uint8_t Address) ATTR_ALWAYS_INLINE;
			static inline void Endpoint_SelectEndpoint(const uint8_t Address)
			{
				#if !defined(CONTROL_ONLY_DEVICE)
					UENUM = (Address & ENDPOINT_EPNUM_MASK);
     5c4:	3f 70       	andi	r19, 0x0F	; 15
     5c6:	30 93 e9 00 	sts	0x00E9, r19
     5ca:	81 e0       	ldi	r24, 0x01	; 1
	}

	Endpoint_SelectEndpoint(Number);
	return true;
#endif
}
     5cc:	08 95       	ret

000005ce <Endpoint_ConfigureEndpointTable>:
uint8_t USB_Device_ControlEndpointSize = ENDPOINT_CONTROLEP_DEFAULT_SIZE;
#endif

bool Endpoint_ConfigureEndpointTable(const USB_Endpoint_Table_t* const Table,
                                     const uint8_t Entries)
{
     5ce:	0f 93       	push	r16
     5d0:	1f 93       	push	r17
     5d2:	cf 93       	push	r28
     5d4:	df 93       	push	r29
     5d6:	06 2f       	mov	r16, r22
     5d8:	ec 01       	movw	r28, r24
     5da:	10 e0       	ldi	r17, 0x00	; 0
     5dc:	2a c0       	rjmp	.+84     	; 0x632 <Endpoint_ConfigureEndpointTable+0x64>
	for (uint8_t i = 0; i < Entries; i++)
	{
		if (!(Table[i].Address))
     5de:	98 81       	ld	r25, Y
     5e0:	99 23       	and	r25, r25
     5e2:	29 f1       	breq	.+74     	; 0x62e <Endpoint_ConfigureEndpointTable+0x60>
		  continue;
	
		if (!(Endpoint_ConfigureEndpoint(Table[i].Address, Table[i].Type, Table[i].Size, Table[i].Banks)))
     5e4:	6b 81       	ldd	r22, Y+3	; 0x03
     5e6:	e9 81       	ldd	r30, Y+1	; 0x01
     5e8:	fa 81       	ldd	r31, Y+2	; 0x02
     5ea:	2c 81       	ldd	r18, Y+4	; 0x04
			static inline bool Endpoint_ConfigureEndpoint(const uint8_t Address,
			                                              const uint8_t Type,
			                                              const uint16_t Size,
			                                              const uint8_t Banks)
			{
				uint8_t Number = (Address & ENDPOINT_EPNUM_MASK);
     5ec:	89 2f       	mov	r24, r25
     5ee:	8f 70       	andi	r24, 0x0F	; 15
			
				if (Number >= ENDPOINT_TOTAL_ENDPOINTS)
     5f0:	87 30       	cpi	r24, 0x07	; 7
     5f2:	18 f5       	brcc	.+70     	; 0x63a <Endpoint_ConfigureEndpointTable+0x6c>
				  return false;
			
				return Endpoint_ConfigureEndpoint_Prv(Number,
     5f4:	22 30       	cpi	r18, 0x02	; 2
     5f6:	10 f4       	brcc	.+4      	; 0x5fc <Endpoint_ConfigureEndpointTable+0x2e>
     5f8:	52 e0       	ldi	r21, 0x02	; 2
     5fa:	01 c0       	rjmp	.+2      	; 0x5fe <Endpoint_ConfigureEndpointTable+0x30>
     5fc:	56 e0       	ldi	r21, 0x06	; 6
     5fe:	40 e0       	ldi	r20, 0x00	; 0
     600:	28 e0       	ldi	r18, 0x08	; 8
     602:	30 e0       	ldi	r19, 0x00	; 0
     604:	03 c0       	rjmp	.+6      	; 0x60c <Endpoint_ConfigureEndpointTable+0x3e>
				uint8_t  MaskVal    = 0;
				uint16_t CheckBytes = 8;

				while (CheckBytes < Bytes)
				{
					MaskVal++;
     606:	4f 5f       	subi	r20, 0xFF	; 255
					CheckBytes <<= 1;
     608:	22 0f       	add	r18, r18
     60a:	33 1f       	adc	r19, r19
			static inline uint8_t Endpoint_BytesToEPSizeMask(const uint16_t Bytes)
			{
				uint8_t  MaskVal    = 0;
				uint16_t CheckBytes = 8;

				while (CheckBytes < Bytes)
     60c:	2e 17       	cp	r18, r30
     60e:	3f 07       	cpc	r19, r31
     610:	d0 f3       	brcs	.-12     	; 0x606 <Endpoint_ConfigureEndpointTable+0x38>
				uint8_t Number = (Address & ENDPOINT_EPNUM_MASK);
			
				if (Number >= ENDPOINT_TOTAL_ENDPOINTS)
				  return false;
			
				return Endpoint_ConfigureEndpoint_Prv(Number,
     612:	62 95       	swap	r22
     614:	66 0f       	add	r22, r22
     616:	66 0f       	add	r22, r22
     618:	60 7c       	andi	r22, 0xC0	; 192
     61a:	99 1f       	adc	r25, r25
     61c:	99 27       	eor	r25, r25
     61e:	99 1f       	adc	r25, r25
     620:	69 2b       	or	r22, r25
     622:	42 95       	swap	r20
     624:	40 7f       	andi	r20, 0xF0	; 240
     626:	45 2b       	or	r20, r21
     628:	9a df       	rcall	.-204    	; 0x55e <Endpoint_ConfigureEndpoint_Prv>
     62a:	88 23       	and	r24, r24
     62c:	31 f0       	breq	.+12     	; 0x63a <Endpoint_ConfigureEndpointTable+0x6c>
#endif

bool Endpoint_ConfigureEndpointTable(const USB_Endpoint_Table_t* const Table,
                                     const uint8_t Entries)
{
	for (uint8_t i = 0; i < Entries; i++)
     62e:	1f 5f       	subi	r17, 0xFF	; 255
     630:	25 96       	adiw	r28, 0x05	; 5
     632:	10 17       	cp	r17, r16
     634:	a0 f2       	brcs	.-88     	; 0x5de <Endpoint_ConfigureEndpointTable+0x10>
     636:	81 e0       	ldi	r24, 0x01	; 1
     638:	01 c0       	rjmp	.+2      	; 0x63c <Endpoint_ConfigureEndpointTable+0x6e>
     63a:	80 e0       	ldi	r24, 0x00	; 0
		if (!(Endpoint_ConfigureEndpoint(Table[i].Address, Table[i].Type, Table[i].Size, Table[i].Banks)))
		  return false;
	}
	
	return true;
}
     63c:	df 91       	pop	r29
     63e:	cf 91       	pop	r28
     640:	1f 91       	pop	r17
     642:	0f 91       	pop	r16
     644:	08 95       	ret

00000646 <Endpoint_ClearStatusStage>:
	}
}

void Endpoint_ClearStatusStage(void)
{
	if (USB_ControlRequest.bmRequestType & REQDIR_DEVICETOHOST)
     646:	80 91 48 02 	lds	r24, 0x0248
     64a:	88 23       	and	r24, r24
     64c:	8c f4       	brge	.+34     	; 0x670 <Endpoint_ClearStatusStage+0x2a>
     64e:	03 c0       	rjmp	.+6      	; 0x656 <Endpoint_ClearStatusStage+0x10>
	{
		while (!(Endpoint_IsOUTReceived()))
		{
			if (USB_DeviceState == DEVICE_STATE_Unattached)
     650:	8e b3       	in	r24, 0x1e	; 30
     652:	88 23       	and	r24, r24
     654:	b1 f0       	breq	.+44     	; 0x682 <Endpoint_ClearStatusStage+0x3c>
			 *  \return Boolean \c true if current endpoint is has received an OUT packet, \c false otherwise.
			 */
			static inline bool Endpoint_IsOUTReceived(void) ATTR_WARN_UNUSED_RESULT ATTR_ALWAYS_INLINE;
			static inline bool Endpoint_IsOUTReceived(void)
			{
				return ((UEINTX & (1 << RXOUTI)) ? true : false);
     656:	80 91 e8 00 	lds	r24, 0x00E8

void Endpoint_ClearStatusStage(void)
{
	if (USB_ControlRequest.bmRequestType & REQDIR_DEVICETOHOST)
	{
		while (!(Endpoint_IsOUTReceived()))
     65a:	82 ff       	sbrs	r24, 2
     65c:	f9 cf       	rjmp	.-14     	; 0x650 <Endpoint_ClearStatusStage+0xa>
			 */
			static inline void Endpoint_ClearOUT(void) ATTR_ALWAYS_INLINE;
			static inline void Endpoint_ClearOUT(void)
			{
				#if !defined(CONTROL_ONLY_DEVICE)
					UEINTX &= ~((1 << RXOUTI) | (1 << FIFOCON));
     65e:	80 91 e8 00 	lds	r24, 0x00E8
     662:	8b 77       	andi	r24, 0x7B	; 123
     664:	80 93 e8 00 	sts	0x00E8, r24
     668:	08 95       	ret
	}
	else
	{
		while (!(Endpoint_IsINReady()))
		{
			if (USB_DeviceState == DEVICE_STATE_Unattached)
     66a:	8e b3       	in	r24, 0x1e	; 30
     66c:	88 23       	and	r24, r24
     66e:	49 f0       	breq	.+18     	; 0x682 <Endpoint_ClearStatusStage+0x3c>
			 *  \return Boolean \c true if the current endpoint is ready for an IN packet, \c false otherwise.
			 */
			static inline bool Endpoint_IsINReady(void) ATTR_WARN_UNUSED_RESULT ATTR_ALWAYS_INLINE;
			static inline bool Endpoint_IsINReady(void)
			{
				return ((UEINTX & (1 << TXINI)) ? true : false);
     670:	80 91 e8 00 	lds	r24, 0x00E8

		Endpoint_ClearOUT();
	}
	else
	{
		while (!(Endpoint_IsINReady()))
     674:	80 ff       	sbrs	r24, 0
     676:	f9 cf       	rjmp	.-14     	; 0x66a <Endpoint_ClearStatusStage+0x24>
			 */
			static inline void Endpoint_ClearIN(void) ATTR_ALWAYS_INLINE;
			static inline void Endpoint_ClearIN(void)
			{
				#if !defined(CONTROL_ONLY_DEVICE)
					UEINTX &= ~((1 << TXINI) | (1 << FIFOCON));
     678:	80 91 e8 00 	lds	r24, 0x00E8
     67c:	8e 77       	andi	r24, 0x7E	; 126
     67e:	80 93 e8 00 	sts	0x00E8, r24
     682:	08 95       	ret

00000684 <Endpoint_WaitUntilReady>:
			 *  \return Current USB frame number from the USB controller.
			 */
			static inline uint16_t USB_Device_GetFrameNumber(void) ATTR_ALWAYS_INLINE ATTR_WARN_UNUSED_RESULT;
			static inline uint16_t USB_Device_GetFrameNumber(void)
			{
				return UDFNUM;
     684:	40 91 e4 00 	lds	r20, 0x00E4
     688:	50 91 e5 00 	lds	r21, 0x00E5
     68c:	24 e6       	ldi	r18, 0x64	; 100
			 *  \return The currently selected endpoint's direction, as a \c ENDPOINT_DIR_* mask.
			 */
			static inline uint8_t Endpoint_GetEndpointDirection(void) ATTR_WARN_UNUSED_RESULT ATTR_ALWAYS_INLINE;
			static inline uint8_t Endpoint_GetEndpointDirection(void)
			{
				return (UECFG0X & (1 << EPDIR)) ? ENDPOINT_DIR_IN : ENDPOINT_DIR_OUT;
     68e:	80 91 ec 00 	lds	r24, 0x00EC
     692:	80 ff       	sbrs	r24, 0
     694:	23 c0       	rjmp	.+70     	; 0x6dc <Endpoint_WaitUntilReady+0x58>
			 *  \return Boolean \c true if the current endpoint is ready for an IN packet, \c false otherwise.
			 */
			static inline bool Endpoint_IsINReady(void) ATTR_WARN_UNUSED_RESULT ATTR_ALWAYS_INLINE;
			static inline bool Endpoint_IsINReady(void)
			{
				return ((UEINTX & (1 << TXINI)) ? true : false);
     696:	80 91 e8 00 	lds	r24, 0x00E8

	for (;;)
	{
		if (Endpoint_GetEndpointDirection() == ENDPOINT_DIR_IN)
		{
			if (Endpoint_IsINReady())
     69a:	80 fd       	sbrc	r24, 0
     69c:	1d c0       	rjmp	.+58     	; 0x6d8 <Endpoint_WaitUntilReady+0x54>
		{
			if (Endpoint_IsOUTReceived())
			  return ENDPOINT_READYWAIT_NoError;
		}

		uint8_t USB_DeviceState_LCL = USB_DeviceState;
     69e:	8e b3       	in	r24, 0x1e	; 30

		if (USB_DeviceState_LCL == DEVICE_STATE_Unattached)
     6a0:	88 23       	and	r24, r24
     6a2:	11 f4       	brne	.+4      	; 0x6a8 <Endpoint_WaitUntilReady+0x24>
     6a4:	82 e0       	ldi	r24, 0x02	; 2
     6a6:	08 95       	ret
		  return ENDPOINT_READYWAIT_DeviceDisconnected;
		else if (USB_DeviceState_LCL == DEVICE_STATE_Suspended)
     6a8:	85 30       	cpi	r24, 0x05	; 5
     6aa:	11 f4       	brne	.+4      	; 0x6b0 <Endpoint_WaitUntilReady+0x2c>
     6ac:	83 e0       	ldi	r24, 0x03	; 3
     6ae:	08 95       	ret
			 *  \return Boolean \c true if the currently selected endpoint is stalled, \c false otherwise.
			 */
			static inline bool Endpoint_IsStalled(void) ATTR_WARN_UNUSED_RESULT ATTR_ALWAYS_INLINE;
			static inline bool Endpoint_IsStalled(void)
			{
				return ((UECONX & (1 << STALLRQ)) ? true : false);
     6b0:	80 91 eb 00 	lds	r24, 0x00EB
		  return ENDPOINT_READYWAIT_BusSuspended;
		else if (Endpoint_IsStalled())
     6b4:	85 ff       	sbrs	r24, 5
     6b6:	02 c0       	rjmp	.+4      	; 0x6bc <Endpoint_WaitUntilReady+0x38>
     6b8:	81 e0       	ldi	r24, 0x01	; 1
     6ba:	08 95       	ret
     6bc:	80 91 e4 00 	lds	r24, 0x00E4
     6c0:	90 91 e5 00 	lds	r25, 0x00E5
		  return ENDPOINT_READYWAIT_EndpointStalled;

		uint16_t CurrentFrameNumber = USB_Device_GetFrameNumber();

		if (CurrentFrameNumber != PreviousFrameNumber)
     6c4:	84 17       	cp	r24, r20
     6c6:	95 07       	cpc	r25, r21
     6c8:	11 f3       	breq	.-60     	; 0x68e <Endpoint_WaitUntilReady+0xa>
		{
			PreviousFrameNumber = CurrentFrameNumber;

			if (!(TimeoutMSRem--))
     6ca:	22 23       	and	r18, r18
     6cc:	11 f4       	brne	.+4      	; 0x6d2 <Endpoint_WaitUntilReady+0x4e>
     6ce:	84 e0       	ldi	r24, 0x04	; 4
     6d0:	08 95       	ret
     6d2:	21 50       	subi	r18, 0x01	; 1
     6d4:	ac 01       	movw	r20, r24
     6d6:	db cf       	rjmp	.-74     	; 0x68e <Endpoint_WaitUntilReady+0xa>
     6d8:	80 e0       	ldi	r24, 0x00	; 0
			  return ENDPOINT_READYWAIT_Timeout;
		}
	}
}
     6da:	08 95       	ret
			 *  \return Boolean \c true if current endpoint is has received an OUT packet, \c false otherwise.
			 */
			static inline bool Endpoint_IsOUTReceived(void) ATTR_WARN_UNUSED_RESULT ATTR_ALWAYS_INLINE;
			static inline bool Endpoint_IsOUTReceived(void)
			{
				return ((UEINTX & (1 << RXOUTI)) ? true : false);
     6dc:	80 91 e8 00 	lds	r24, 0x00E8
			if (Endpoint_IsINReady())
			  return ENDPOINT_READYWAIT_NoError;
		}
		else
		{
			if (Endpoint_IsOUTReceived())
     6e0:	82 ff       	sbrs	r24, 2
     6e2:	dd cf       	rjmp	.-70     	; 0x69e <Endpoint_WaitUntilReady+0x1a>
     6e4:	f9 cf       	rjmp	.-14     	; 0x6d8 <Endpoint_WaitUntilReady+0x54>

000006e6 <USB_ResetInterface>:

void USB_ResetInterface(void)
{
     6e6:	ef 92       	push	r14
     6e8:	ff 92       	push	r15
     6ea:	0f 93       	push	r16
     6ec:	1f 93       	push	r17
	#if defined(USB_CAN_BE_BOTH)
	bool UIDModeSelectEnabled = ((UHWCON & (1 << UIDE)) != 0);
	#endif

	USB_INT_DisableAllInterrupts();
     6ee:	49 d0       	rcall	.+146    	; 0x782 <USB_INT_DisableAllInterrupts>
	USB_INT_ClearAllInterrupts();
     6f0:	50 d0       	rcall	.+160    	; 0x792 <USB_INT_ClearAllInterrupts>
			}

			static inline void USB_Controller_Reset(void) ATTR_ALWAYS_INLINE;
			static inline void USB_Controller_Reset(void)
			{
				USBCON &= ~(1 << USBE);
     6f2:	08 ed       	ldi	r16, 0xD8	; 216
     6f4:	10 e0       	ldi	r17, 0x00	; 0
     6f6:	f8 01       	movw	r30, r16
     6f8:	80 81       	ld	r24, Z
     6fa:	8f 77       	andi	r24, 0x7F	; 127
     6fc:	80 83       	st	Z, r24
				USBCON |=  (1 << USBE);
     6fe:	80 81       	ld	r24, Z
     700:	80 68       	ori	r24, 0x80	; 128
     702:	80 83       	st	Z, r24
			}

			static inline void USB_CLK_Unfreeze(void) ATTR_ALWAYS_INLINE;
			static inline void USB_CLK_Unfreeze(void)
			{
				USBCON &= ~(1 << FRZCLK);
     704:	80 81       	ld	r24, Z
     706:	8f 7d       	andi	r24, 0xDF	; 223
     708:	80 83       	st	Z, r24
			}

			static inline void USB_PLL_Off(void) ATTR_ALWAYS_INLINE;
			static inline void USB_PLL_Off(void)
			{
				PLLCSR = 0;
     70a:	19 bc       	out	0x29, r1	; 41
}

#if defined(USB_CAN_BE_DEVICE)
static void USB_Init_Device(void)
{
	USB_DeviceState                 = DEVICE_STATE_Unattached;
     70c:	1e ba       	out	0x1e, r1	; 30
	USB_Device_ConfigurationNumber  = 0;
     70e:	10 92 44 02 	sts	0x0244, r1

	#if !defined(NO_DEVICE_REMOTE_WAKEUP)
	USB_Device_RemoteWakeupEnabled  = false;
     712:	10 92 46 02 	sts	0x0246, r1
	#endif

	#if !defined(NO_DEVICE_SELF_POWER)
	USB_Device_CurrentlySelfPowered = false;
     716:	10 92 45 02 	sts	0x0245, r1
			}

			static inline void USB_Device_SetFullSpeed(void) ATTR_ALWAYS_INLINE;
			static inline void USB_Device_SetFullSpeed(void)
			{
				UDCON &= ~(1 << LSM);
     71a:	80 ee       	ldi	r24, 0xE0	; 224
     71c:	e8 2e       	mov	r14, r24
     71e:	f1 2c       	mov	r15, r1
     720:	f7 01       	movw	r30, r14
     722:	80 81       	ld	r24, Z
     724:	8b 7f       	andi	r24, 0xFB	; 251
     726:	80 83       	st	Z, r24
			{
				switch (Interrupt)
				{
					#if (defined(USB_SERIES_4_AVR) || defined(USB_SERIES_6_AVR) || defined(USB_SERIES_7_AVR))
					case USB_INT_VBUSTI:
						USBCON |= (1 << VBUSTE);
     728:	f8 01       	movw	r30, r16
     72a:	80 81       	ld	r24, Z
     72c:	81 60       	ori	r24, 0x01	; 1
     72e:	80 83       	st	Z, r24
				uint8_t Number = (Address & ENDPOINT_EPNUM_MASK);
			
				if (Number >= ENDPOINT_TOTAL_ENDPOINTS)
				  return false;
			
				return Endpoint_ConfigureEndpoint_Prv(Number,
     730:	80 e0       	ldi	r24, 0x00	; 0
     732:	60 e0       	ldi	r22, 0x00	; 0
     734:	42 e0       	ldi	r20, 0x02	; 2
     736:	13 df       	rcall	.-474    	; 0x55e <Endpoint_ConfigureEndpoint_Prv>
					#if defined(USB_CAN_BE_DEVICE)
					case USB_INT_WAKEUPI:
						UDINT  &= ~(1 << WAKEUPI);
						break;
					case USB_INT_SUSPI:
						UDINT  &= ~(1 << SUSPI);
     738:	e1 ee       	ldi	r30, 0xE1	; 225
     73a:	f0 e0       	ldi	r31, 0x00	; 0
     73c:	80 81       	ld	r24, Z
     73e:	8e 7f       	andi	r24, 0xFE	; 254
     740:	80 83       	st	Z, r24
					#if defined(USB_CAN_BE_DEVICE)
					case USB_INT_WAKEUPI:
						UDIEN  |= (1 << WAKEUPE);
						break;
					case USB_INT_SUSPI:
						UDIEN  |= (1 << SUSPE);
     742:	e2 ee       	ldi	r30, 0xE2	; 226
     744:	f0 e0       	ldi	r31, 0x00	; 0
     746:	80 81       	ld	r24, Z
     748:	81 60       	ori	r24, 0x01	; 1
     74a:	80 83       	st	Z, r24
						break;
					case USB_INT_EORSTI:
						UDIEN  |= (1 << EORSTE);
     74c:	80 81       	ld	r24, Z
     74e:	88 60       	ori	r24, 0x08	; 8
     750:	80 83       	st	Z, r24
			 *  register and despite the datasheet making no mention of its requirement in host mode.
			 */
			static inline void USB_Attach(void) ATTR_ALWAYS_INLINE;
			static inline void USB_Attach(void)
			{
				UDCON  &= ~(1 << DETACH);
     752:	f7 01       	movw	r30, r14
     754:	80 81       	ld	r24, Z
     756:	8e 7f       	andi	r24, 0xFE	; 254
     758:	80 83       	st	Z, r24

			#if defined(USB_SERIES_4_AVR) || defined(USB_SERIES_6_AVR) || defined(USB_SERIES_7_AVR)
			static inline void USB_OTGPAD_On(void) ATTR_ALWAYS_INLINE;
			static inline void USB_OTGPAD_On(void)
			{
				USBCON |=  (1 << OTGPADE);
     75a:	f8 01       	movw	r30, r16
     75c:	80 81       	ld	r24, Z
     75e:	80 61       	ori	r24, 0x10	; 16
     760:	80 83       	st	Z, r24
	}

	#if (defined(USB_SERIES_4_AVR) || defined(USB_SERIES_6_AVR) || defined(USB_SERIES_7_AVR))
	USB_OTGPAD_On();
	#endif
}
     762:	1f 91       	pop	r17
     764:	0f 91       	pop	r16
     766:	ff 90       	pop	r15
     768:	ef 90       	pop	r14
     76a:	08 95       	ret

0000076c <USB_Init>:

			static inline void USB_REG_On(void) ATTR_ALWAYS_INLINE;
			static inline void USB_REG_On(void)
			{
			#if defined(USB_SERIES_4_AVR) || defined(USB_SERIES_6_AVR) || defined(USB_SERIES_7_AVR)
				UHWCON |=  (1 << UVREGE);
     76c:	e7 ed       	ldi	r30, 0xD7	; 215
     76e:	f0 e0       	ldi	r31, 0x00	; 0
     770:	80 81       	ld	r24, Z
     772:	81 60       	ori	r24, 0x01	; 1
     774:	80 83       	st	Z, r24
	  USB_REG_Off();

	if (!(USB_Options & USB_OPT_MANUAL_PLL))
	{
		#if defined(USB_SERIES_4_AVR)
		PLLFRQ = (1 << PDIV2);
     776:	84 e0       	ldi	r24, 0x04	; 4
     778:	82 bf       	out	0x32, r24	; 50
		UHWCON &= ~(1 << UIDE);
		USB_CurrentMode = Mode;
	}
	#endif

	USB_IsInitialized = true;
     77a:	81 e0       	ldi	r24, 0x01	; 1
     77c:	80 93 47 02 	sts	0x0247, r24

	USB_ResetInterface();
}
     780:	b2 cf       	rjmp	.-156    	; 0x6e6 <USB_ResetInterface>

00000782 <USB_INT_DisableAllInterrupts>:
void USB_INT_DisableAllInterrupts(void)
{
	#if defined(USB_SERIES_6_AVR) || defined(USB_SERIES_7_AVR)
	USBCON &= ~((1 << VBUSTE) | (1 << IDTE));
	#elif defined(USB_SERIES_4_AVR)
	USBCON &= ~(1 << VBUSTE);
     782:	e8 ed       	ldi	r30, 0xD8	; 216
     784:	f0 e0       	ldi	r31, 0x00	; 0
     786:	80 81       	ld	r24, Z
     788:	8e 7f       	andi	r24, 0xFE	; 254
     78a:	80 83       	st	Z, r24
	#if defined(USB_CAN_BE_HOST)
	UHIEN   = 0;
	#endif

	#if defined(USB_CAN_BE_DEVICE)
	UDIEN   = 0;
     78c:	10 92 e2 00 	sts	0x00E2, r1
	#endif
}
     790:	08 95       	ret

00000792 <USB_INT_ClearAllInterrupts>:

void USB_INT_ClearAllInterrupts(void)
{
	#if defined(USB_SERIES_4_AVR) || defined(USB_SERIES_6_AVR) || defined(USB_SERIES_7_AVR)
	USBINT = 0;
     792:	10 92 da 00 	sts	0x00DA, r1
	#if defined(USB_CAN_BE_HOST)
	UHINT  = 0;
	#endif

	#if defined(USB_CAN_BE_DEVICE)
	UDINT  = 0;
     796:	10 92 e1 00 	sts	0x00E1, r1
	#endif
}
     79a:	08 95       	ret

0000079c <__vector_11>:
	#endif
}

#if defined(INTERRUPT_CONTROL_ENDPOINT) && defined(USB_CAN_BE_DEVICE)
ISR(USB_COM_vect, ISR_BLOCK)
{
     79c:	1f 92       	push	r1
     79e:	0f 92       	push	r0
     7a0:	0f b6       	in	r0, 0x3f	; 63
     7a2:	0f 92       	push	r0
     7a4:	11 24       	eor	r1, r1
     7a6:	1f 93       	push	r17
     7a8:	2f 93       	push	r18
     7aa:	3f 93       	push	r19
     7ac:	4f 93       	push	r20
     7ae:	5f 93       	push	r21
     7b0:	6f 93       	push	r22
     7b2:	7f 93       	push	r23
     7b4:	8f 93       	push	r24
     7b6:	9f 93       	push	r25
     7b8:	af 93       	push	r26
     7ba:	bf 93       	push	r27
     7bc:	ef 93       	push	r30
     7be:	ff 93       	push	r31
			 */
			static inline uint8_t Endpoint_GetCurrentEndpoint(void) ATTR_WARN_UNUSED_RESULT ATTR_ALWAYS_INLINE;
			static inline uint8_t Endpoint_GetCurrentEndpoint(void)
			{
				#if !defined(CONTROL_ONLY_DEVICE)
					return ((UENUM & ENDPOINT_EPNUM_MASK) | Endpoint_GetEndpointDirection());
     7c0:	10 91 e9 00 	lds	r17, 0x00E9
			 *  \return The currently selected endpoint's direction, as a \c ENDPOINT_DIR_* mask.
			 */
			static inline uint8_t Endpoint_GetEndpointDirection(void) ATTR_WARN_UNUSED_RESULT ATTR_ALWAYS_INLINE;
			static inline uint8_t Endpoint_GetEndpointDirection(void)
			{
				return (UECFG0X & (1 << EPDIR)) ? ENDPOINT_DIR_IN : ENDPOINT_DIR_OUT;
     7c4:	80 91 ec 00 	lds	r24, 0x00EC
			 */
			static inline void Endpoint_SelectEndpoint(const uint8_t Address) ATTR_ALWAYS_INLINE;
			static inline void Endpoint_SelectEndpoint(const uint8_t Address)
			{
				#if !defined(CONTROL_ONLY_DEVICE)
					UENUM = (Address & ENDPOINT_EPNUM_MASK);
     7c8:	10 92 e9 00 	sts	0x00E9, r1
						break;
					case USB_INT_SOFI:
						UDIEN  &= ~(1 << SOFE);
						break;
					case USB_INT_RXSTPI:
						UEIENX &= ~(1 << RXSTPE);
     7cc:	80 91 f0 00 	lds	r24, 0x00F0
     7d0:	87 7f       	andi	r24, 0xF7	; 247
     7d2:	80 93 f0 00 	sts	0x00F0, r24
			static inline void GlobalInterruptEnable(void)
			{
				GCC_MEMORY_BARRIER();

				#if (ARCH == ARCH_AVR8)
				sei();
     7d6:	78 94       	sei
	Endpoint_SelectEndpoint(ENDPOINT_CONTROLEP);
	USB_INT_Disable(USB_INT_RXSTPI);

	GlobalInterruptEnable();

	USB_Device_ProcessControlRequest();
     7d8:	a8 d1       	rcall	.+848    	; 0xb2a <USB_Device_ProcessControlRequest>
     7da:	10 92 e9 00 	sts	0x00E9, r1
						break;
					case USB_INT_SOFI:
						UDIEN  |= (1 << SOFE);
						break;
					case USB_INT_RXSTPI:
						UEIENX |= (1 << RXSTPE);
     7de:	80 91 f0 00 	lds	r24, 0x00F0
     7e2:	88 60       	ori	r24, 0x08	; 8
     7e4:	80 93 f0 00 	sts	0x00F0, r24
     7e8:	1f 70       	andi	r17, 0x0F	; 15
     7ea:	10 93 e9 00 	sts	0x00E9, r17

	Endpoint_SelectEndpoint(ENDPOINT_CONTROLEP);
	USB_INT_Enable(USB_INT_RXSTPI);
	Endpoint_SelectEndpoint(PrevSelectedEndpoint);
}
     7ee:	ff 91       	pop	r31
     7f0:	ef 91       	pop	r30
     7f2:	bf 91       	pop	r27
     7f4:	af 91       	pop	r26
     7f6:	9f 91       	pop	r25
     7f8:	8f 91       	pop	r24
     7fa:	7f 91       	pop	r23
     7fc:	6f 91       	pop	r22
     7fe:	5f 91       	pop	r21
     800:	4f 91       	pop	r20
     802:	3f 91       	pop	r19
     804:	2f 91       	pop	r18
     806:	1f 91       	pop	r17
     808:	0f 90       	pop	r0
     80a:	0f be       	out	0x3f, r0	; 63
     80c:	0f 90       	pop	r0
     80e:	1f 90       	pop	r1
     810:	18 95       	reti

00000812 <__vector_10>:
	UDINT  = 0;
	#endif
}

ISR(USB_GEN_vect, ISR_BLOCK)
{
     812:	1f 92       	push	r1
     814:	0f 92       	push	r0
     816:	0f b6       	in	r0, 0x3f	; 63
     818:	0f 92       	push	r0
     81a:	11 24       	eor	r1, r1
     81c:	2f 93       	push	r18
     81e:	3f 93       	push	r19
     820:	4f 93       	push	r20
     822:	5f 93       	push	r21
     824:	6f 93       	push	r22
     826:	7f 93       	push	r23
     828:	8f 93       	push	r24
     82a:	9f 93       	push	r25
     82c:	af 93       	push	r26
     82e:	bf 93       	push	r27
     830:	ef 93       	push	r30
     832:	ff 93       	push	r31
					case USB_INT_SUSPI:
						return (UDINT  & (1 << SUSPI));
					case USB_INT_EORSTI:
						return (UDINT  & (1 << EORSTI));
					case USB_INT_SOFI:
						return (UDINT  & (1 << SOFI));
     834:	80 91 e1 00 	lds	r24, 0x00E1
	#if defined(USB_CAN_BE_DEVICE)
	#if !defined(NO_SOF_EVENTS)
	if (USB_INT_HasOccurred(USB_INT_SOFI) && USB_INT_IsEnabled(USB_INT_SOFI))
     838:	82 ff       	sbrs	r24, 2
     83a:	0a c0       	rjmp	.+20     	; 0x850 <__vector_10+0x3e>
					case USB_INT_SUSPI:
						return (UDIEN  & (1 << SUSPE));
					case USB_INT_EORSTI:
						return (UDIEN  & (1 << EORSTE));
					case USB_INT_SOFI:
						return (UDIEN  & (1 << SOFE));
     83c:	80 91 e2 00 	lds	r24, 0x00E2
     840:	82 ff       	sbrs	r24, 2
     842:	06 c0       	rjmp	.+12     	; 0x850 <__vector_10+0x3e>
						break;
					case USB_INT_EORSTI:
						UDINT  &= ~(1 << EORSTI);
						break;
					case USB_INT_SOFI:
						UDINT  &= ~(1 << SOFI);
     844:	80 91 e1 00 	lds	r24, 0x00E1
     848:	8b 7f       	andi	r24, 0xFB	; 251
     84a:	80 93 e1 00 	sts	0x00E1, r24
	{
		USB_INT_Clear(USB_INT_SOFI);

		EVENT_USB_Device_StartOfFrame();
     84e:	d6 d2       	rcall	.+1452   	; 0xdfc <USB_Event_Stub>
			{
				switch (Interrupt)
				{
					#if (defined(USB_SERIES_4_AVR) || defined(USB_SERIES_6_AVR) || defined(USB_SERIES_7_AVR))
					case USB_INT_VBUSTI:
						return (USBINT & (1 << VBUSTI));
     850:	80 91 da 00 	lds	r24, 0x00DA
	}
	#endif

	#if defined(USB_SERIES_4_AVR) || defined(USB_SERIES_6_AVR) || defined(USB_SERIES_7_AVR)
	if (USB_INT_HasOccurred(USB_INT_VBUSTI) && USB_INT_IsEnabled(USB_INT_VBUSTI))
     854:	80 ff       	sbrs	r24, 0
     856:	1a c0       	rjmp	.+52     	; 0x88c <__vector_10+0x7a>
			{
				switch (Interrupt)
				{
					#if (defined(USB_SERIES_4_AVR) || defined(USB_SERIES_6_AVR) || defined(USB_SERIES_7_AVR))
					case USB_INT_VBUSTI:
						return (USBCON & (1 << VBUSTE));
     858:	80 91 d8 00 	lds	r24, 0x00D8
     85c:	80 ff       	sbrs	r24, 0
     85e:	16 c0       	rjmp	.+44     	; 0x88c <__vector_10+0x7a>
			{
				switch (Interrupt)
				{
					#if (defined(USB_SERIES_4_AVR) || defined(USB_SERIES_6_AVR) || defined(USB_SERIES_7_AVR))
					case USB_INT_VBUSTI:
						USBINT &= ~(1 << VBUSTI);
     860:	80 91 da 00 	lds	r24, 0x00DA
     864:	8e 7f       	andi	r24, 0xFE	; 254
     866:	80 93 da 00 	sts	0x00DA, r24
				 *  \return Boolean \c true if the VBUS line is currently detecting power from a host, \c false otherwise.
				 */
				static inline bool USB_VBUS_GetStatus(void) ATTR_WARN_UNUSED_RESULT ATTR_ALWAYS_INLINE;
				static inline bool USB_VBUS_GetStatus(void)
				{
					return ((USBSTA & (1 << VBUS)) ? true : false);
     86a:	80 91 d9 00 	lds	r24, 0x00D9
	{
		USB_INT_Clear(USB_INT_VBUSTI);

		if (USB_VBUS_GetStatus())
     86e:	80 ff       	sbrs	r24, 0
     870:	0a c0       	rjmp	.+20     	; 0x886 <__vector_10+0x74>

		/* Inline Functions: */
			static inline void USB_PLL_On(void) ATTR_ALWAYS_INLINE;
			static inline void USB_PLL_On(void)
			{
				PLLCSR = USB_PLL_PSC;
     872:	19 bc       	out	0x29, r1	; 41
				PLLCSR = (USB_PLL_PSC | (1 << PLLE));
     874:	82 e0       	ldi	r24, 0x02	; 2
     876:	89 bd       	out	0x29, r24	; 41
		{
			if (!(USB_Options & USB_OPT_MANUAL_PLL))
			{
				USB_PLL_On();
				while (!(USB_PLL_IsReady()));
     878:	09 b4       	in	r0, 0x29	; 41
     87a:	00 fe       	sbrs	r0, 0
     87c:	fd cf       	rjmp	.-6      	; 0x878 <__vector_10+0x66>
			}

			USB_DeviceState = DEVICE_STATE_Powered;
     87e:	81 e0       	ldi	r24, 0x01	; 1
     880:	8e bb       	out	0x1e, r24	; 30
			EVENT_USB_Device_Connect();
     882:	bb dc       	rcall	.-1674   	; 0x1fa <EVENT_USB_Device_Connect>
     884:	03 c0       	rjmp	.+6      	; 0x88c <__vector_10+0x7a>
			}

			static inline void USB_PLL_Off(void) ATTR_ALWAYS_INLINE;
			static inline void USB_PLL_Off(void)
			{
				PLLCSR = 0;
     886:	19 bc       	out	0x29, r1	; 41
		else
		{
			if (!(USB_Options & USB_OPT_MANUAL_PLL))
			  USB_PLL_Off();

			USB_DeviceState = DEVICE_STATE_Unattached;
     888:	1e ba       	out	0x1e, r1	; 30
			EVENT_USB_Device_Disconnect();
     88a:	b8 dc       	rcall	.-1680   	; 0x1fc <EVENT_USB_Device_Disconnect>
					#endif
					#if defined(USB_CAN_BE_DEVICE)
					case USB_INT_WAKEUPI:
						return (UDINT  & (1 << WAKEUPI));
					case USB_INT_SUSPI:
						return (UDINT  & (1 << SUSPI));
     88c:	80 91 e1 00 	lds	r24, 0x00E1
		}
	}
	#endif

	if (USB_INT_HasOccurred(USB_INT_SUSPI) && USB_INT_IsEnabled(USB_INT_SUSPI))
     890:	80 ff       	sbrs	r24, 0
     892:	17 c0       	rjmp	.+46     	; 0x8c2 <__vector_10+0xb0>
					#endif
					#if defined(USB_CAN_BE_DEVICE)
					case USB_INT_WAKEUPI:
						return (UDIEN  & (1 << WAKEUPE));
					case USB_INT_SUSPI:
						return (UDIEN  & (1 << SUSPE));
     894:	80 91 e2 00 	lds	r24, 0x00E2
     898:	80 ff       	sbrs	r24, 0
     89a:	13 c0       	rjmp	.+38     	; 0x8c2 <__vector_10+0xb0>
					#if defined(USB_CAN_BE_DEVICE)
					case USB_INT_WAKEUPI:
						UDIEN  &= ~(1 << WAKEUPE);
						break;
					case USB_INT_SUSPI:
						UDIEN  &= ~(1 << SUSPE);
     89c:	80 91 e2 00 	lds	r24, 0x00E2
     8a0:	8e 7f       	andi	r24, 0xFE	; 254
     8a2:	80 93 e2 00 	sts	0x00E2, r24
						USBCON |= (1 << IDTE);
						break;
					#endif
					#if defined(USB_CAN_BE_DEVICE)
					case USB_INT_WAKEUPI:
						UDIEN  |= (1 << WAKEUPE);
     8a6:	80 91 e2 00 	lds	r24, 0x00E2
     8aa:	80 61       	ori	r24, 0x10	; 16
     8ac:	80 93 e2 00 	sts	0x00E2, r24
			#endif

			static inline void USB_CLK_Freeze(void) ATTR_ALWAYS_INLINE;
			static inline void USB_CLK_Freeze(void)
			{
				USBCON |=  (1 << FRZCLK);
     8b0:	80 91 d8 00 	lds	r24, 0x00D8
     8b4:	80 62       	ori	r24, 0x20	; 32
     8b6:	80 93 d8 00 	sts	0x00D8, r24
			}

			static inline void USB_PLL_Off(void) ATTR_ALWAYS_INLINE;
			static inline void USB_PLL_Off(void)
			{
				PLLCSR = 0;
     8ba:	19 bc       	out	0x29, r1	; 41

		#if defined(USB_SERIES_2_AVR) && !defined(NO_LIMITED_CONTROLLER_CONNECT)
		USB_DeviceState = DEVICE_STATE_Unattached;
		EVENT_USB_Device_Disconnect();
		#else
		USB_DeviceState = DEVICE_STATE_Suspended;
     8bc:	85 e0       	ldi	r24, 0x05	; 5
     8be:	8e bb       	out	0x1e, r24	; 30
		EVENT_USB_Device_Suspend();
     8c0:	9d d2       	rcall	.+1338   	; 0xdfc <USB_Event_Stub>
					case USB_INT_IDTI:
						return (USBINT & (1 << IDTI));
					#endif
					#if defined(USB_CAN_BE_DEVICE)
					case USB_INT_WAKEUPI:
						return (UDINT  & (1 << WAKEUPI));
     8c2:	80 91 e1 00 	lds	r24, 0x00E1
		#endif
	}

	if (USB_INT_HasOccurred(USB_INT_WAKEUPI) && USB_INT_IsEnabled(USB_INT_WAKEUPI))
     8c6:	84 ff       	sbrs	r24, 4
     8c8:	2b c0       	rjmp	.+86     	; 0x920 <__vector_10+0x10e>
					case USB_INT_IDTI:
						return (USBCON & (1 << IDTE));
					#endif
					#if defined(USB_CAN_BE_DEVICE)
					case USB_INT_WAKEUPI:
						return (UDIEN  & (1 << WAKEUPE));
     8ca:	80 91 e2 00 	lds	r24, 0x00E2
     8ce:	84 ff       	sbrs	r24, 4
     8d0:	27 c0       	rjmp	.+78     	; 0x920 <__vector_10+0x10e>

		/* Inline Functions: */
			static inline void USB_PLL_On(void) ATTR_ALWAYS_INLINE;
			static inline void USB_PLL_On(void)
			{
				PLLCSR = USB_PLL_PSC;
     8d2:	19 bc       	out	0x29, r1	; 41
				PLLCSR = (USB_PLL_PSC | (1 << PLLE));
     8d4:	82 e0       	ldi	r24, 0x02	; 2
     8d6:	89 bd       	out	0x29, r24	; 41
	{
		if (!(USB_Options & USB_OPT_MANUAL_PLL))
		{
			USB_PLL_On();
			while (!(USB_PLL_IsReady()));
     8d8:	09 b4       	in	r0, 0x29	; 41
     8da:	00 fe       	sbrs	r0, 0
     8dc:	fd cf       	rjmp	.-6      	; 0x8d8 <__vector_10+0xc6>
			}

			static inline void USB_CLK_Unfreeze(void) ATTR_ALWAYS_INLINE;
			static inline void USB_CLK_Unfreeze(void)
			{
				USBCON &= ~(1 << FRZCLK);
     8de:	80 91 d8 00 	lds	r24, 0x00D8
     8e2:	8f 7d       	andi	r24, 0xDF	; 223
     8e4:	80 93 d8 00 	sts	0x00D8, r24
						USBINT &= ~(1 << IDTI);
						break;
					#endif
					#if defined(USB_CAN_BE_DEVICE)
					case USB_INT_WAKEUPI:
						UDINT  &= ~(1 << WAKEUPI);
     8e8:	80 91 e1 00 	lds	r24, 0x00E1
     8ec:	8f 7e       	andi	r24, 0xEF	; 239
     8ee:	80 93 e1 00 	sts	0x00E1, r24
						USBCON &= ~(1 << IDTE);
						break;
					#endif
					#if defined(USB_CAN_BE_DEVICE)
					case USB_INT_WAKEUPI:
						UDIEN  &= ~(1 << WAKEUPE);
     8f2:	80 91 e2 00 	lds	r24, 0x00E2
     8f6:	8f 7e       	andi	r24, 0xEF	; 239
     8f8:	80 93 e2 00 	sts	0x00E2, r24
					#if defined(USB_CAN_BE_DEVICE)
					case USB_INT_WAKEUPI:
						UDIEN  |= (1 << WAKEUPE);
						break;
					case USB_INT_SUSPI:
						UDIEN  |= (1 << SUSPE);
     8fc:	80 91 e2 00 	lds	r24, 0x00E2
     900:	81 60       	ori	r24, 0x01	; 1
     902:	80 93 e2 00 	sts	0x00E2, r24
		USB_INT_Clear(USB_INT_WAKEUPI);

		USB_INT_Disable(USB_INT_WAKEUPI);
		USB_INT_Enable(USB_INT_SUSPI);

		if (USB_Device_ConfigurationNumber)
     906:	80 91 44 02 	lds	r24, 0x0244
     90a:	88 23       	and	r24, r24
     90c:	31 f4       	brne	.+12     	; 0x91a <__vector_10+0x108>
			}

			static inline bool USB_Device_IsAddressSet(void) ATTR_ALWAYS_INLINE ATTR_WARN_UNUSED_RESULT;
			static inline bool USB_Device_IsAddressSet(void)
			{
				return (UDADDR & (1 << ADDEN));
     90e:	80 91 e3 00 	lds	r24, 0x00E3
		  USB_DeviceState = DEVICE_STATE_Configured;
		else
		  USB_DeviceState = (USB_Device_IsAddressSet()) ? DEVICE_STATE_Configured : DEVICE_STATE_Powered;
     912:	87 fd       	sbrc	r24, 7
     914:	02 c0       	rjmp	.+4      	; 0x91a <__vector_10+0x108>
     916:	81 e0       	ldi	r24, 0x01	; 1
     918:	01 c0       	rjmp	.+2      	; 0x91c <__vector_10+0x10a>
     91a:	84 e0       	ldi	r24, 0x04	; 4
     91c:	8e bb       	out	0x1e, r24	; 30

		#if defined(USB_SERIES_2_AVR) && !defined(NO_LIMITED_CONTROLLER_CONNECT)
		EVENT_USB_Device_Connect();
		#else
		EVENT_USB_Device_WakeUp();
     91e:	6e d2       	rcall	.+1244   	; 0xdfc <USB_Event_Stub>
					case USB_INT_WAKEUPI:
						return (UDINT  & (1 << WAKEUPI));
					case USB_INT_SUSPI:
						return (UDINT  & (1 << SUSPI));
					case USB_INT_EORSTI:
						return (UDINT  & (1 << EORSTI));
     920:	80 91 e1 00 	lds	r24, 0x00E1
		#endif
	}

	if (USB_INT_HasOccurred(USB_INT_EORSTI) && USB_INT_IsEnabled(USB_INT_EORSTI))
     924:	83 ff       	sbrs	r24, 3
     926:	26 c0       	rjmp	.+76     	; 0x974 <__vector_10+0x162>
					case USB_INT_WAKEUPI:
						return (UDIEN  & (1 << WAKEUPE));
					case USB_INT_SUSPI:
						return (UDIEN  & (1 << SUSPE));
					case USB_INT_EORSTI:
						return (UDIEN  & (1 << EORSTE));
     928:	80 91 e2 00 	lds	r24, 0x00E2
     92c:	83 ff       	sbrs	r24, 3
     92e:	22 c0       	rjmp	.+68     	; 0x974 <__vector_10+0x162>
						break;
					case USB_INT_SUSPI:
						UDINT  &= ~(1 << SUSPI);
						break;
					case USB_INT_EORSTI:
						UDINT  &= ~(1 << EORSTI);
     930:	80 91 e1 00 	lds	r24, 0x00E1
     934:	87 7f       	andi	r24, 0xF7	; 247
     936:	80 93 e1 00 	sts	0x00E1, r24
	{
		USB_INT_Clear(USB_INT_EORSTI);

		USB_DeviceState                = DEVICE_STATE_Default;
     93a:	82 e0       	ldi	r24, 0x02	; 2
     93c:	8e bb       	out	0x1e, r24	; 30
		USB_Device_ConfigurationNumber = 0;
     93e:	10 92 44 02 	sts	0x0244, r1
					#if defined(USB_CAN_BE_DEVICE)
					case USB_INT_WAKEUPI:
						UDINT  &= ~(1 << WAKEUPI);
						break;
					case USB_INT_SUSPI:
						UDINT  &= ~(1 << SUSPI);
     942:	80 91 e1 00 	lds	r24, 0x00E1
     946:	8e 7f       	andi	r24, 0xFE	; 254
     948:	80 93 e1 00 	sts	0x00E1, r24
					#if defined(USB_CAN_BE_DEVICE)
					case USB_INT_WAKEUPI:
						UDIEN  &= ~(1 << WAKEUPE);
						break;
					case USB_INT_SUSPI:
						UDIEN  &= ~(1 << SUSPE);
     94c:	80 91 e2 00 	lds	r24, 0x00E2
     950:	8e 7f       	andi	r24, 0xFE	; 254
     952:	80 93 e2 00 	sts	0x00E2, r24
						USBCON |= (1 << IDTE);
						break;
					#endif
					#if defined(USB_CAN_BE_DEVICE)
					case USB_INT_WAKEUPI:
						UDIEN  |= (1 << WAKEUPE);
     956:	80 91 e2 00 	lds	r24, 0x00E2
     95a:	80 61       	ori	r24, 0x10	; 16
     95c:	80 93 e2 00 	sts	0x00E2, r24
				uint8_t Number = (Address & ENDPOINT_EPNUM_MASK);
			
				if (Number >= ENDPOINT_TOTAL_ENDPOINTS)
				  return false;
			
				return Endpoint_ConfigureEndpoint_Prv(Number,
     960:	80 e0       	ldi	r24, 0x00	; 0
     962:	60 e0       	ldi	r22, 0x00	; 0
     964:	42 e0       	ldi	r20, 0x02	; 2
     966:	fb dd       	rcall	.-1034   	; 0x55e <Endpoint_ConfigureEndpoint_Prv>
						break;
					case USB_INT_SOFI:
						UDIEN  |= (1 << SOFE);
						break;
					case USB_INT_RXSTPI:
						UEIENX |= (1 << RXSTPE);
     968:	80 91 f0 00 	lds	r24, 0x00F0
     96c:	88 60       	ori	r24, 0x08	; 8
     96e:	80 93 f0 00 	sts	0x00F0, r24

		#if defined(INTERRUPT_CONTROL_ENDPOINT)
		USB_INT_Enable(USB_INT_RXSTPI);
		#endif

		EVENT_USB_Device_Reset();
     972:	44 d2       	rcall	.+1160   	; 0xdfc <USB_Event_Stub>
		USB_ResetInterface();

		EVENT_USB_UIDChange();
	}
	#endif
}
     974:	ff 91       	pop	r31
     976:	ef 91       	pop	r30
     978:	bf 91       	pop	r27
     97a:	af 91       	pop	r26
     97c:	9f 91       	pop	r25
     97e:	8f 91       	pop	r24
     980:	7f 91       	pop	r23
     982:	6f 91       	pop	r22
     984:	5f 91       	pop	r21
     986:	4f 91       	pop	r20
     988:	3f 91       	pop	r19
     98a:	2f 91       	pop	r18
     98c:	0f 90       	pop	r0
     98e:	0f be       	out	0x3f, r0	; 63
     990:	0f 90       	pop	r0
     992:	1f 90       	pop	r1
     994:	18 95       	reti

00000996 <Endpoint_Write_Control_Stream_LE>:
     996:	9c 01       	movw	r18, r24
	uint8_t* DataStream     = ((uint8_t*)Buffer + TEMPLATE_BUFFER_OFFSET(Length));
	bool     LastPacketFull = false;

	if (Length > USB_ControlRequest.wLength)
     998:	40 91 4e 02 	lds	r20, 0x024E
     99c:	50 91 4f 02 	lds	r21, 0x024F
     9a0:	46 17       	cp	r20, r22
     9a2:	57 07       	cpc	r21, r23
     9a4:	18 f4       	brcc	.+6      	; 0x9ac <Endpoint_Write_Control_Stream_LE+0x16>

// cppcheck-suppress unusedFunction
uint8_t TEMPLATE_FUNC_NAME (const void* const Buffer,
                            uint16_t Length)
{
	uint8_t* DataStream     = ((uint8_t*)Buffer + TEMPLATE_BUFFER_OFFSET(Length));
     9a6:	f9 01       	movw	r30, r18
     9a8:	90 e0       	ldi	r25, 0x00	; 0
     9aa:	44 c0       	rjmp	.+136    	; 0xa34 <Endpoint_Write_Control_Stream_LE+0x9e>
	bool     LastPacketFull = false;

	if (Length > USB_ControlRequest.wLength)
	  Length = USB_ControlRequest.wLength;
	else if (!(Length))
     9ac:	61 15       	cp	r22, r1
     9ae:	71 05       	cpc	r23, r1
     9b0:	11 f0       	breq	.+4      	; 0x9b6 <Endpoint_Write_Control_Stream_LE+0x20>
     9b2:	ab 01       	movw	r20, r22
     9b4:	f8 cf       	rjmp	.-16     	; 0x9a6 <Endpoint_Write_Control_Stream_LE+0x10>
			 */
			static inline void Endpoint_ClearIN(void) ATTR_ALWAYS_INLINE;
			static inline void Endpoint_ClearIN(void)
			{
				#if !defined(CONTROL_ONLY_DEVICE)
					UEINTX &= ~((1 << TXINI) | (1 << FIFOCON));
     9b6:	80 91 e8 00 	lds	r24, 0x00E8
     9ba:	8e 77       	andi	r24, 0x7E	; 126
     9bc:	80 93 e8 00 	sts	0x00E8, r24
     9c0:	40 e0       	ldi	r20, 0x00	; 0
     9c2:	50 e0       	ldi	r21, 0x00	; 0
     9c4:	f0 cf       	rjmp	.-32     	; 0x9a6 <Endpoint_Write_Control_Stream_LE+0x10>
	  Endpoint_ClearIN();

	while (Length || LastPacketFull)
	{
		uint8_t USB_DeviceState_LCL = USB_DeviceState;
     9c6:	8e b3       	in	r24, 0x1e	; 30

		if (USB_DeviceState_LCL == DEVICE_STATE_Unattached)
     9c8:	88 23       	and	r24, r24
     9ca:	09 f4       	brne	.+2      	; 0x9ce <Endpoint_Write_Control_Stream_LE+0x38>
     9cc:	44 c0       	rjmp	.+136    	; 0xa56 <Endpoint_Write_Control_Stream_LE+0xc0>
		  return ENDPOINT_RWCSTREAM_DeviceDisconnected;
		else if (USB_DeviceState_LCL == DEVICE_STATE_Suspended)
     9ce:	85 30       	cpi	r24, 0x05	; 5
     9d0:	09 f4       	brne	.+2      	; 0x9d4 <Endpoint_Write_Control_Stream_LE+0x3e>
     9d2:	43 c0       	rjmp	.+134    	; 0xa5a <Endpoint_Write_Control_Stream_LE+0xc4>
			 *  \return Boolean \c true if the selected endpoint has received a SETUP packet, \c false otherwise.
			 */
			static inline bool Endpoint_IsSETUPReceived(void) ATTR_WARN_UNUSED_RESULT ATTR_ALWAYS_INLINE;
			static inline bool Endpoint_IsSETUPReceived(void)
			{
				return ((UEINTX & (1 << RXSTPI)) ? true : false);
     9d4:	80 91 e8 00 	lds	r24, 0x00E8
		  return ENDPOINT_RWCSTREAM_BusSuspended;
		else if (Endpoint_IsSETUPReceived())
     9d8:	83 ff       	sbrs	r24, 3
     9da:	02 c0       	rjmp	.+4      	; 0x9e0 <Endpoint_Write_Control_Stream_LE+0x4a>
     9dc:	81 e0       	ldi	r24, 0x01	; 1
     9de:	08 95       	ret
			 *  \return Boolean \c true if current endpoint is has received an OUT packet, \c false otherwise.
			 */
			static inline bool Endpoint_IsOUTReceived(void) ATTR_WARN_UNUSED_RESULT ATTR_ALWAYS_INLINE;
			static inline bool Endpoint_IsOUTReceived(void)
			{
				return ((UEINTX & (1 << RXOUTI)) ? true : false);
     9e0:	80 91 e8 00 	lds	r24, 0x00E8
		  return ENDPOINT_RWCSTREAM_HostAborted;
		else if (Endpoint_IsOUTReceived())
     9e4:	82 fd       	sbrc	r24, 2
     9e6:	31 c0       	rjmp	.+98     	; 0xa4a <Endpoint_Write_Control_Stream_LE+0xb4>
			 *  \return Boolean \c true if the current endpoint is ready for an IN packet, \c false otherwise.
			 */
			static inline bool Endpoint_IsINReady(void) ATTR_WARN_UNUSED_RESULT ATTR_ALWAYS_INLINE;
			static inline bool Endpoint_IsINReady(void)
			{
				return ((UEINTX & (1 << TXINI)) ? true : false);
     9e8:	80 91 e8 00 	lds	r24, 0x00E8
		  break;

		if (Endpoint_IsINReady())
     9ec:	80 ff       	sbrs	r24, 0
     9ee:	22 c0       	rjmp	.+68     	; 0xa34 <Endpoint_Write_Control_Stream_LE+0x9e>
			static inline uint16_t Endpoint_BytesInEndpoint(void)
			{
				#if (defined(USB_SERIES_6_AVR) || defined(USB_SERIES_7_AVR)) && !defined(__AVR_ATmega32U6__)
					return UEBCX;
				#elif defined(USB_SERIES_4_AVR) || defined(__AVR_ATmega32U6__)
					return (((uint16_t)UEBCHX << 8) | UEBCLX);
     9f0:	80 91 f3 00 	lds	r24, 0x00F3
     9f4:	90 91 f2 00 	lds	r25, 0x00F2
     9f8:	78 2f       	mov	r23, r24
     9fa:	60 e0       	ldi	r22, 0x00	; 0
     9fc:	29 2f       	mov	r18, r25
     9fe:	30 e0       	ldi	r19, 0x00	; 0
     a00:	26 2b       	or	r18, r22
     a02:	37 2b       	or	r19, r23
     a04:	07 c0       	rjmp	.+14     	; 0xa14 <Endpoint_Write_Control_Stream_LE+0x7e>
		{
			uint16_t BytesInEndpoint = Endpoint_BytesInEndpoint();

			while (Length && (BytesInEndpoint < USB_Device_ControlEndpointSize))
			{
				TEMPLATE_TRANSFER_BYTE(DataStream);
     a06:	81 91       	ld	r24, Z+
			 *  \param[in] Data  Data to write into the the currently selected endpoint's FIFO buffer.
			 */
			static inline void Endpoint_Write_8(const uint8_t Data) ATTR_ALWAYS_INLINE;
			static inline void Endpoint_Write_8(const uint8_t Data)
			{
				UEDATX = Data;
     a08:	80 93 f1 00 	sts	0x00F1, r24
				TEMPLATE_BUFFER_MOVE(DataStream, 1);
				Length--;
     a0c:	41 50       	subi	r20, 0x01	; 1
     a0e:	50 40       	sbci	r21, 0x00	; 0
				BytesInEndpoint++;
     a10:	2f 5f       	subi	r18, 0xFF	; 255
     a12:	3f 4f       	sbci	r19, 0xFF	; 255

		if (Endpoint_IsINReady())
		{
			uint16_t BytesInEndpoint = Endpoint_BytesInEndpoint();

			while (Length && (BytesInEndpoint < USB_Device_ControlEndpointSize))
     a14:	41 15       	cp	r20, r1
     a16:	51 05       	cpc	r21, r1
     a18:	19 f0       	breq	.+6      	; 0xa20 <Endpoint_Write_Control_Stream_LE+0x8a>
     a1a:	28 30       	cpi	r18, 0x08	; 8
     a1c:	31 05       	cpc	r19, r1
     a1e:	98 f3       	brcs	.-26     	; 0xa06 <Endpoint_Write_Control_Stream_LE+0x70>
				TEMPLATE_BUFFER_MOVE(DataStream, 1);
				Length--;
				BytesInEndpoint++;
			}

			LastPacketFull = (BytesInEndpoint == USB_Device_ControlEndpointSize);
     a20:	90 e0       	ldi	r25, 0x00	; 0
     a22:	28 30       	cpi	r18, 0x08	; 8
     a24:	31 05       	cpc	r19, r1
     a26:	09 f4       	brne	.+2      	; 0xa2a <Endpoint_Write_Control_Stream_LE+0x94>
     a28:	91 e0       	ldi	r25, 0x01	; 1
			 */
			static inline void Endpoint_ClearIN(void) ATTR_ALWAYS_INLINE;
			static inline void Endpoint_ClearIN(void)
			{
				#if !defined(CONTROL_ONLY_DEVICE)
					UEINTX &= ~((1 << TXINI) | (1 << FIFOCON));
     a2a:	80 91 e8 00 	lds	r24, 0x00E8
     a2e:	8e 77       	andi	r24, 0x7E	; 126
     a30:	80 93 e8 00 	sts	0x00E8, r24
	if (Length > USB_ControlRequest.wLength)
	  Length = USB_ControlRequest.wLength;
	else if (!(Length))
	  Endpoint_ClearIN();

	while (Length || LastPacketFull)
     a34:	41 15       	cp	r20, r1
     a36:	51 05       	cpc	r21, r1
     a38:	31 f6       	brne	.-116    	; 0x9c6 <Endpoint_Write_Control_Stream_LE+0x30>
     a3a:	99 23       	and	r25, r25
     a3c:	21 f6       	brne	.-120    	; 0x9c6 <Endpoint_Write_Control_Stream_LE+0x30>
     a3e:	05 c0       	rjmp	.+10     	; 0xa4a <Endpoint_Write_Control_Stream_LE+0xb4>
		}
	}

	while (!(Endpoint_IsOUTReceived()))
	{
		uint8_t USB_DeviceState_LCL = USB_DeviceState;
     a40:	8e b3       	in	r24, 0x1e	; 30

		if (USB_DeviceState_LCL == DEVICE_STATE_Unattached)
     a42:	88 23       	and	r24, r24
     a44:	41 f0       	breq	.+16     	; 0xa56 <Endpoint_Write_Control_Stream_LE+0xc0>
		  return ENDPOINT_RWCSTREAM_DeviceDisconnected;
		else if (USB_DeviceState_LCL == DEVICE_STATE_Suspended)
     a46:	85 30       	cpi	r24, 0x05	; 5
     a48:	41 f0       	breq	.+16     	; 0xa5a <Endpoint_Write_Control_Stream_LE+0xc4>
			 *  \return Boolean \c true if current endpoint is has received an OUT packet, \c false otherwise.
			 */
			static inline bool Endpoint_IsOUTReceived(void) ATTR_WARN_UNUSED_RESULT ATTR_ALWAYS_INLINE;
			static inline bool Endpoint_IsOUTReceived(void)
			{
				return ((UEINTX & (1 << RXOUTI)) ? true : false);
     a4a:	80 91 e8 00 	lds	r24, 0x00E8
			LastPacketFull = (BytesInEndpoint == USB_Device_ControlEndpointSize);
			Endpoint_ClearIN();
		}
	}

	while (!(Endpoint_IsOUTReceived()))
     a4e:	82 ff       	sbrs	r24, 2
     a50:	f7 cf       	rjmp	.-18     	; 0xa40 <Endpoint_Write_Control_Stream_LE+0xaa>
     a52:	80 e0       	ldi	r24, 0x00	; 0
     a54:	08 95       	ret
     a56:	82 e0       	ldi	r24, 0x02	; 2
     a58:	08 95       	ret
     a5a:	83 e0       	ldi	r24, 0x03	; 3
		else if (USB_DeviceState_LCL == DEVICE_STATE_Suspended)
		  return ENDPOINT_RWCSTREAM_BusSuspended;
	}

	return ENDPOINT_RWCSTREAM_NoError;
}
     a5c:	08 95       	ret

00000a5e <Endpoint_Write_Control_PStream_LE>:
#if defined(TEMPLATE_FUNC_NAME)

// cppcheck-suppress unusedFunction
uint8_t TEMPLATE_FUNC_NAME (const void* const Buffer,
                            uint16_t Length)
{
     a5e:	9c 01       	movw	r18, r24
	uint8_t* DataStream     = ((uint8_t*)Buffer + TEMPLATE_BUFFER_OFFSET(Length));
	bool     LastPacketFull = false;

	if (Length > USB_ControlRequest.wLength)
     a60:	40 91 4e 02 	lds	r20, 0x024E
     a64:	50 91 4f 02 	lds	r21, 0x024F
     a68:	46 17       	cp	r20, r22
     a6a:	57 07       	cpc	r21, r23
     a6c:	18 f4       	brcc	.+6      	; 0xa74 <Endpoint_Write_Control_PStream_LE+0x16>

// cppcheck-suppress unusedFunction
uint8_t TEMPLATE_FUNC_NAME (const void* const Buffer,
                            uint16_t Length)
{
	uint8_t* DataStream     = ((uint8_t*)Buffer + TEMPLATE_BUFFER_OFFSET(Length));
     a6e:	f9 01       	movw	r30, r18
     a70:	90 e0       	ldi	r25, 0x00	; 0
     a72:	45 c0       	rjmp	.+138    	; 0xafe <Endpoint_Write_Control_PStream_LE+0xa0>
	bool     LastPacketFull = false;

	if (Length > USB_ControlRequest.wLength)
	  Length = USB_ControlRequest.wLength;
	else if (!(Length))
     a74:	61 15       	cp	r22, r1
     a76:	71 05       	cpc	r23, r1
     a78:	11 f0       	breq	.+4      	; 0xa7e <Endpoint_Write_Control_PStream_LE+0x20>
     a7a:	ab 01       	movw	r20, r22
     a7c:	f8 cf       	rjmp	.-16     	; 0xa6e <Endpoint_Write_Control_PStream_LE+0x10>
			 */
			static inline void Endpoint_ClearIN(void) ATTR_ALWAYS_INLINE;
			static inline void Endpoint_ClearIN(void)
			{
				#if !defined(CONTROL_ONLY_DEVICE)
					UEINTX &= ~((1 << TXINI) | (1 << FIFOCON));
     a7e:	80 91 e8 00 	lds	r24, 0x00E8
     a82:	8e 77       	andi	r24, 0x7E	; 126
     a84:	80 93 e8 00 	sts	0x00E8, r24
     a88:	40 e0       	ldi	r20, 0x00	; 0
     a8a:	50 e0       	ldi	r21, 0x00	; 0
     a8c:	f0 cf       	rjmp	.-32     	; 0xa6e <Endpoint_Write_Control_PStream_LE+0x10>
	  Endpoint_ClearIN();

	while (Length || LastPacketFull)
	{
		uint8_t USB_DeviceState_LCL = USB_DeviceState;
     a8e:	8e b3       	in	r24, 0x1e	; 30

		if (USB_DeviceState_LCL == DEVICE_STATE_Unattached)
     a90:	88 23       	and	r24, r24
     a92:	09 f4       	brne	.+2      	; 0xa96 <Endpoint_Write_Control_PStream_LE+0x38>
     a94:	46 c0       	rjmp	.+140    	; 0xb22 <__stack+0x23>
		  return ENDPOINT_RWCSTREAM_DeviceDisconnected;
		else if (USB_DeviceState_LCL == DEVICE_STATE_Suspended)
     a96:	85 30       	cpi	r24, 0x05	; 5
     a98:	09 f4       	brne	.+2      	; 0xa9c <Endpoint_Write_Control_PStream_LE+0x3e>
     a9a:	45 c0       	rjmp	.+138    	; 0xb26 <__stack+0x27>
			 *  \return Boolean \c true if the selected endpoint has received a SETUP packet, \c false otherwise.
			 */
			static inline bool Endpoint_IsSETUPReceived(void) ATTR_WARN_UNUSED_RESULT ATTR_ALWAYS_INLINE;
			static inline bool Endpoint_IsSETUPReceived(void)
			{
				return ((UEINTX & (1 << RXSTPI)) ? true : false);
     a9c:	80 91 e8 00 	lds	r24, 0x00E8
		  return ENDPOINT_RWCSTREAM_BusSuspended;
		else if (Endpoint_IsSETUPReceived())
     aa0:	83 ff       	sbrs	r24, 3
     aa2:	02 c0       	rjmp	.+4      	; 0xaa8 <Endpoint_Write_Control_PStream_LE+0x4a>
     aa4:	81 e0       	ldi	r24, 0x01	; 1
     aa6:	08 95       	ret
			 *  \return Boolean \c true if current endpoint is has received an OUT packet, \c false otherwise.
			 */
			static inline bool Endpoint_IsOUTReceived(void) ATTR_WARN_UNUSED_RESULT ATTR_ALWAYS_INLINE;
			static inline bool Endpoint_IsOUTReceived(void)
			{
				return ((UEINTX & (1 << RXOUTI)) ? true : false);
     aa8:	80 91 e8 00 	lds	r24, 0x00E8
		  return ENDPOINT_RWCSTREAM_HostAborted;
		else if (Endpoint_IsOUTReceived())
     aac:	82 fd       	sbrc	r24, 2
     aae:	33 c0       	rjmp	.+102    	; 0xb16 <__stack+0x17>
			 *  \return Boolean \c true if the current endpoint is ready for an IN packet, \c false otherwise.
			 */
			static inline bool Endpoint_IsINReady(void) ATTR_WARN_UNUSED_RESULT ATTR_ALWAYS_INLINE;
			static inline bool Endpoint_IsINReady(void)
			{
				return ((UEINTX & (1 << TXINI)) ? true : false);
     ab0:	80 91 e8 00 	lds	r24, 0x00E8
		  break;

		if (Endpoint_IsINReady())
     ab4:	80 ff       	sbrs	r24, 0
     ab6:	23 c0       	rjmp	.+70     	; 0xafe <Endpoint_Write_Control_PStream_LE+0xa0>
			static inline uint16_t Endpoint_BytesInEndpoint(void)
			{
				#if (defined(USB_SERIES_6_AVR) || defined(USB_SERIES_7_AVR)) && !defined(__AVR_ATmega32U6__)
					return UEBCX;
				#elif defined(USB_SERIES_4_AVR) || defined(__AVR_ATmega32U6__)
					return (((uint16_t)UEBCHX << 8) | UEBCLX);
     ab8:	80 91 f3 00 	lds	r24, 0x00F3
     abc:	90 91 f2 00 	lds	r25, 0x00F2
     ac0:	78 2f       	mov	r23, r24
     ac2:	60 e0       	ldi	r22, 0x00	; 0
     ac4:	29 2f       	mov	r18, r25
     ac6:	30 e0       	ldi	r19, 0x00	; 0
     ac8:	26 2b       	or	r18, r22
     aca:	37 2b       	or	r19, r23
     acc:	08 c0       	rjmp	.+16     	; 0xade <Endpoint_Write_Control_PStream_LE+0x80>
		{
			uint16_t BytesInEndpoint = Endpoint_BytesInEndpoint();

			while (Length && (BytesInEndpoint < USB_Device_ControlEndpointSize))
			{
				TEMPLATE_TRANSFER_BYTE(DataStream);
     ace:	84 91       	lpm	r24, Z+
			 *  \param[in] Data  Data to write into the the currently selected endpoint's FIFO buffer.
			 */
			static inline void Endpoint_Write_8(const uint8_t Data) ATTR_ALWAYS_INLINE;
			static inline void Endpoint_Write_8(const uint8_t Data)
			{
				UEDATX = Data;
     ad0:	80 93 f1 00 	sts	0x00F1, r24
				TEMPLATE_BUFFER_MOVE(DataStream, 1);
     ad4:	31 96       	adiw	r30, 0x01	; 1
				Length--;
     ad6:	41 50       	subi	r20, 0x01	; 1
     ad8:	50 40       	sbci	r21, 0x00	; 0
				BytesInEndpoint++;
     ada:	2f 5f       	subi	r18, 0xFF	; 255
     adc:	3f 4f       	sbci	r19, 0xFF	; 255

		if (Endpoint_IsINReady())
		{
			uint16_t BytesInEndpoint = Endpoint_BytesInEndpoint();

			while (Length && (BytesInEndpoint < USB_Device_ControlEndpointSize))
     ade:	41 15       	cp	r20, r1
     ae0:	51 05       	cpc	r21, r1
     ae2:	19 f0       	breq	.+6      	; 0xaea <Endpoint_Write_Control_PStream_LE+0x8c>
     ae4:	28 30       	cpi	r18, 0x08	; 8
     ae6:	31 05       	cpc	r19, r1
     ae8:	90 f3       	brcs	.-28     	; 0xace <Endpoint_Write_Control_PStream_LE+0x70>
				TEMPLATE_BUFFER_MOVE(DataStream, 1);
				Length--;
				BytesInEndpoint++;
			}

			LastPacketFull = (BytesInEndpoint == USB_Device_ControlEndpointSize);
     aea:	90 e0       	ldi	r25, 0x00	; 0
     aec:	28 30       	cpi	r18, 0x08	; 8
     aee:	31 05       	cpc	r19, r1
     af0:	09 f4       	brne	.+2      	; 0xaf4 <Endpoint_Write_Control_PStream_LE+0x96>
     af2:	91 e0       	ldi	r25, 0x01	; 1
			 */
			static inline void Endpoint_ClearIN(void) ATTR_ALWAYS_INLINE;
			static inline void Endpoint_ClearIN(void)
			{
				#if !defined(CONTROL_ONLY_DEVICE)
					UEINTX &= ~((1 << TXINI) | (1 << FIFOCON));
     af4:	80 91 e8 00 	lds	r24, 0x00E8
     af8:	8e 77       	andi	r24, 0x7E	; 126
     afa:	80 93 e8 00 	sts	0x00E8, r24
	if (Length > USB_ControlRequest.wLength)
	  Length = USB_ControlRequest.wLength;
	else if (!(Length))
	  Endpoint_ClearIN();

	while (Length || LastPacketFull)
     afe:	41 15       	cp	r20, r1
     b00:	51 05       	cpc	r21, r1
     b02:	29 f6       	brne	.-118    	; 0xa8e <Endpoint_Write_Control_PStream_LE+0x30>
     b04:	99 23       	and	r25, r25
     b06:	09 f0       	breq	.+2      	; 0xb0a <__stack+0xb>
     b08:	c2 cf       	rjmp	.-124    	; 0xa8e <Endpoint_Write_Control_PStream_LE+0x30>
     b0a:	05 c0       	rjmp	.+10     	; 0xb16 <__stack+0x17>
		}
	}

	while (!(Endpoint_IsOUTReceived()))
	{
		uint8_t USB_DeviceState_LCL = USB_DeviceState;
     b0c:	8e b3       	in	r24, 0x1e	; 30

		if (USB_DeviceState_LCL == DEVICE_STATE_Unattached)
     b0e:	88 23       	and	r24, r24
     b10:	41 f0       	breq	.+16     	; 0xb22 <__stack+0x23>
		  return ENDPOINT_RWCSTREAM_DeviceDisconnected;
		else if (USB_DeviceState_LCL == DEVICE_STATE_Suspended)
     b12:	85 30       	cpi	r24, 0x05	; 5
     b14:	41 f0       	breq	.+16     	; 0xb26 <__stack+0x27>
			 *  \return Boolean \c true if current endpoint is has received an OUT packet, \c false otherwise.
			 */
			static inline bool Endpoint_IsOUTReceived(void) ATTR_WARN_UNUSED_RESULT ATTR_ALWAYS_INLINE;
			static inline bool Endpoint_IsOUTReceived(void)
			{
				return ((UEINTX & (1 << RXOUTI)) ? true : false);
     b16:	80 91 e8 00 	lds	r24, 0x00E8
			LastPacketFull = (BytesInEndpoint == USB_Device_ControlEndpointSize);
			Endpoint_ClearIN();
		}
	}

	while (!(Endpoint_IsOUTReceived()))
     b1a:	82 ff       	sbrs	r24, 2
     b1c:	f7 cf       	rjmp	.-18     	; 0xb0c <__stack+0xd>
     b1e:	80 e0       	ldi	r24, 0x00	; 0
     b20:	08 95       	ret
     b22:	82 e0       	ldi	r24, 0x02	; 2
     b24:	08 95       	ret
     b26:	83 e0       	ldi	r24, 0x03	; 3
		else if (USB_DeviceState_LCL == DEVICE_STATE_Suspended)
		  return ENDPOINT_RWCSTREAM_BusSuspended;
	}

	return ENDPOINT_RWCSTREAM_NoError;
}
     b28:	08 95       	ret

00000b2a <USB_Device_ProcessControlRequest>:
#if !defined(NO_DEVICE_REMOTE_WAKEUP)
bool    USB_Device_RemoteWakeupEnabled;
#endif

void USB_Device_ProcessControlRequest(void)
{
     b2a:	0f 93       	push	r16
     b2c:	1f 93       	push	r17
     b2e:	df 93       	push	r29
     b30:	cf 93       	push	r28
     b32:	cd b7       	in	r28, 0x3d	; 61
     b34:	de b7       	in	r29, 0x3e	; 62
     b36:	ac 97       	sbiw	r28, 0x2c	; 44
     b38:	0f b6       	in	r0, 0x3f	; 63
     b3a:	f8 94       	cli
     b3c:	de bf       	out	0x3e, r29	; 62
     b3e:	0f be       	out	0x3f, r0	; 63
     b40:	cd bf       	out	0x3d, r28	; 61
     b42:	e8 e4       	ldi	r30, 0x48	; 72
     b44:	f2 e0       	ldi	r31, 0x02	; 2
			 *  \return Next byte in the currently selected endpoint's FIFO buffer.
			 */
			static inline uint8_t Endpoint_Read_8(void) ATTR_WARN_UNUSED_RESULT ATTR_ALWAYS_INLINE;
			static inline uint8_t Endpoint_Read_8(void)
			{
				return UEDATX;
     b46:	80 91 f1 00 	lds	r24, 0x00F1
	USB_ControlRequest.wLength       = Endpoint_Read_16_LE();
	#else
	uint8_t* RequestHeader = (uint8_t*)&USB_ControlRequest;

	for (uint8_t RequestHeaderByte = 0; RequestHeaderByte < sizeof(USB_Request_Header_t); RequestHeaderByte++)
	  *(RequestHeader++) = Endpoint_Read_8();
     b4a:	81 93       	st	Z+, r24
	USB_ControlRequest.wIndex        = Endpoint_Read_16_LE();
	USB_ControlRequest.wLength       = Endpoint_Read_16_LE();
	#else
	uint8_t* RequestHeader = (uint8_t*)&USB_ControlRequest;

	for (uint8_t RequestHeaderByte = 0; RequestHeaderByte < sizeof(USB_Request_Header_t); RequestHeaderByte++)
     b4c:	22 e0       	ldi	r18, 0x02	; 2
     b4e:	e0 35       	cpi	r30, 0x50	; 80
     b50:	f2 07       	cpc	r31, r18
     b52:	c9 f7       	brne	.-14     	; 0xb46 <USB_Device_ProcessControlRequest+0x1c>
	  *(RequestHeader++) = Endpoint_Read_8();
	#endif

	EVENT_USB_Device_ControlRequest();
     b54:	d8 db       	rcall	.-2128   	; 0x306 <EVENT_USB_Device_ControlRequest>
			 *  \return Boolean \c true if the selected endpoint has received a SETUP packet, \c false otherwise.
			 */
			static inline bool Endpoint_IsSETUPReceived(void) ATTR_WARN_UNUSED_RESULT ATTR_ALWAYS_INLINE;
			static inline bool Endpoint_IsSETUPReceived(void)
			{
				return ((UEINTX & (1 << RXSTPI)) ? true : false);
     b56:	80 91 e8 00 	lds	r24, 0x00E8

	if (Endpoint_IsSETUPReceived())
     b5a:	83 ff       	sbrs	r24, 3
     b5c:	36 c1       	rjmp	.+620    	; 0xdca <USB_Device_ProcessControlRequest+0x2a0>
	{
		uint8_t bmRequestType = USB_ControlRequest.bmRequestType;
     b5e:	80 91 48 02 	lds	r24, 0x0248

		switch (USB_ControlRequest.bRequest)
     b62:	30 91 49 02 	lds	r19, 0x0249
     b66:	35 30       	cpi	r19, 0x05	; 5
     b68:	09 f4       	brne	.+2      	; 0xb6c <USB_Device_ProcessControlRequest+0x42>
     b6a:	87 c0       	rjmp	.+270    	; 0xc7a <USB_Device_ProcessControlRequest+0x150>
     b6c:	36 30       	cpi	r19, 0x06	; 6
     b6e:	40 f4       	brcc	.+16     	; 0xb80 <USB_Device_ProcessControlRequest+0x56>
     b70:	31 30       	cpi	r19, 0x01	; 1
     b72:	c9 f1       	breq	.+114    	; 0xbe6 <USB_Device_ProcessControlRequest+0xbc>
     b74:	31 30       	cpi	r19, 0x01	; 1
     b76:	70 f0       	brcs	.+28     	; 0xb94 <USB_Device_ProcessControlRequest+0x6a>
     b78:	33 30       	cpi	r19, 0x03	; 3
     b7a:	09 f0       	breq	.+2      	; 0xb7e <USB_Device_ProcessControlRequest+0x54>
     b7c:	26 c1       	rjmp	.+588    	; 0xdca <USB_Device_ProcessControlRequest+0x2a0>
     b7e:	33 c0       	rjmp	.+102    	; 0xbe6 <USB_Device_ProcessControlRequest+0xbc>
     b80:	38 30       	cpi	r19, 0x08	; 8
     b82:	09 f4       	brne	.+2      	; 0xb86 <USB_Device_ProcessControlRequest+0x5c>
     b84:	f5 c0       	rjmp	.+490    	; 0xd70 <USB_Device_ProcessControlRequest+0x246>
     b86:	39 30       	cpi	r19, 0x09	; 9
     b88:	09 f4       	brne	.+2      	; 0xb8c <USB_Device_ProcessControlRequest+0x62>
     b8a:	04 c1       	rjmp	.+520    	; 0xd94 <USB_Device_ProcessControlRequest+0x26a>
     b8c:	36 30       	cpi	r19, 0x06	; 6
     b8e:	09 f0       	breq	.+2      	; 0xb92 <USB_Device_ProcessControlRequest+0x68>
     b90:	1c c1       	rjmp	.+568    	; 0xdca <USB_Device_ProcessControlRequest+0x2a0>
     b92:	96 c0       	rjmp	.+300    	; 0xcc0 <USB_Device_ProcessControlRequest+0x196>
		{
			case REQ_GetStatus:
				if ((bmRequestType == (REQDIR_DEVICETOHOST | REQTYPE_STANDARD | REQREC_DEVICE)) ||
     b94:	80 38       	cpi	r24, 0x80	; 128
     b96:	21 f0       	breq	.+8      	; 0xba0 <USB_Device_ProcessControlRequest+0x76>
     b98:	82 38       	cpi	r24, 0x82	; 130
     b9a:	09 f0       	breq	.+2      	; 0xb9e <USB_Device_ProcessControlRequest+0x74>
     b9c:	16 c1       	rjmp	.+556    	; 0xdca <USB_Device_ProcessControlRequest+0x2a0>
     b9e:	08 c0       	rjmp	.+16     	; 0xbb0 <USB_Device_ProcessControlRequest+0x86>
     ba0:	90 91 45 02 	lds	r25, 0x0245
			if (USB_Device_CurrentlySelfPowered)
			  CurrentStatus |= FEATURE_SELFPOWERED_ENABLED;
			#endif

			#if !defined(NO_DEVICE_REMOTE_WAKEUP)
			if (USB_Device_RemoteWakeupEnabled)
     ba4:	80 91 46 02 	lds	r24, 0x0246
     ba8:	88 23       	and	r24, r24
     baa:	99 f0       	breq	.+38     	; 0xbd2 <USB_Device_ProcessControlRequest+0xa8>
			  CurrentStatus |= FEATURE_REMOTE_WAKEUP_ENABLED;
     bac:	92 60       	ori	r25, 0x02	; 2
     bae:	11 c0       	rjmp	.+34     	; 0xbd2 <USB_Device_ProcessControlRequest+0xa8>
			 */
			static inline void Endpoint_SelectEndpoint(const uint8_t Address) ATTR_ALWAYS_INLINE;
			static inline void Endpoint_SelectEndpoint(const uint8_t Address)
			{
				#if !defined(CONTROL_ONLY_DEVICE)
					UENUM = (Address & ENDPOINT_EPNUM_MASK);
     bb0:	80 91 4c 02 	lds	r24, 0x024C
     bb4:	8f 70       	andi	r24, 0x0F	; 15
     bb6:	80 93 e9 00 	sts	0x00E9, r24
			 *  \return Boolean \c true if the currently selected endpoint is stalled, \c false otherwise.
			 */
			static inline bool Endpoint_IsStalled(void) ATTR_WARN_UNUSED_RESULT ATTR_ALWAYS_INLINE;
			static inline bool Endpoint_IsStalled(void)
			{
				return ((UECONX & (1 << STALLRQ)) ? true : false);
     bba:	80 91 eb 00 	lds	r24, 0x00EB
			break;
		case (REQDIR_DEVICETOHOST | REQTYPE_STANDARD | REQREC_ENDPOINT):
			#if !defined(CONTROL_ONLY_DEVICE)
			Endpoint_SelectEndpoint((uint8_t)USB_ControlRequest.wIndex & ENDPOINT_EPNUM_MASK);

			CurrentStatus = Endpoint_IsStalled();
     bbe:	90 e0       	ldi	r25, 0x00	; 0
     bc0:	25 e0       	ldi	r18, 0x05	; 5
     bc2:	96 95       	lsr	r25
     bc4:	87 95       	ror	r24
     bc6:	2a 95       	dec	r18
     bc8:	e1 f7       	brne	.-8      	; 0xbc2 <USB_Device_ProcessControlRequest+0x98>
     bca:	98 2f       	mov	r25, r24
     bcc:	91 70       	andi	r25, 0x01	; 1
			 */
			static inline void Endpoint_SelectEndpoint(const uint8_t Address) ATTR_ALWAYS_INLINE;
			static inline void Endpoint_SelectEndpoint(const uint8_t Address)
			{
				#if !defined(CONTROL_ONLY_DEVICE)
					UENUM = (Address & ENDPOINT_EPNUM_MASK);
     bce:	10 92 e9 00 	sts	0x00E9, r1
			 *  \note This is not applicable for non CONTROL type endpoints.
			 */
			static inline void Endpoint_ClearSETUP(void) ATTR_ALWAYS_INLINE;
			static inline void Endpoint_ClearSETUP(void)
			{
				UEINTX &= ~(1 << RXSTPI);
     bd2:	80 91 e8 00 	lds	r24, 0x00E8
     bd6:	87 7f       	andi	r24, 0xF7	; 247
     bd8:	80 93 e8 00 	sts	0x00E8, r24
			 *  \param[in] Data  Data to write to the currently selected endpoint's FIFO buffer.
			 */
			static inline void Endpoint_Write_16_LE(const uint16_t Data) ATTR_ALWAYS_INLINE;
			static inline void Endpoint_Write_16_LE(const uint16_t Data)
			{
				UEDATX = (Data & 0xFF);
     bdc:	90 93 f1 00 	sts	0x00F1, r25
				UEDATX = (Data >> 8);
     be0:	10 92 f1 00 	sts	0x00F1, r1
     be4:	d0 c0       	rjmp	.+416    	; 0xd86 <USB_Device_ProcessControlRequest+0x25c>
				}

				break;
			case REQ_ClearFeature:
			case REQ_SetFeature:
				if ((bmRequestType == (REQDIR_HOSTTODEVICE | REQTYPE_STANDARD | REQREC_DEVICE)) ||
     be6:	88 23       	and	r24, r24
     be8:	19 f0       	breq	.+6      	; 0xbf0 <USB_Device_ProcessControlRequest+0xc6>
     bea:	82 30       	cpi	r24, 0x02	; 2
     bec:	09 f0       	breq	.+2      	; 0xbf0 <USB_Device_ProcessControlRequest+0xc6>
     bee:	ed c0       	rjmp	.+474    	; 0xdca <USB_Device_ProcessControlRequest+0x2a0>
	Endpoint_ClearStatusStage();
}

static void USB_Device_ClearSetFeature(void)
{
	switch (USB_ControlRequest.bmRequestType & CONTROL_REQTYPE_RECIPIENT)
     bf0:	90 e0       	ldi	r25, 0x00	; 0
     bf2:	8f 71       	andi	r24, 0x1F	; 31
     bf4:	90 70       	andi	r25, 0x00	; 0
     bf6:	00 97       	sbiw	r24, 0x00	; 0
     bf8:	21 f0       	breq	.+8      	; 0xc02 <USB_Device_ProcessControlRequest+0xd8>
     bfa:	02 97       	sbiw	r24, 0x02	; 2
     bfc:	09 f0       	breq	.+2      	; 0xc00 <USB_Device_ProcessControlRequest+0xd6>
     bfe:	e5 c0       	rjmp	.+458    	; 0xdca <USB_Device_ProcessControlRequest+0x2a0>
     c00:	0c c0       	rjmp	.+24     	; 0xc1a <USB_Device_ProcessControlRequest+0xf0>
	{
		#if !defined(NO_DEVICE_REMOTE_WAKEUP)
		case REQREC_DEVICE:
			if ((uint8_t)USB_ControlRequest.wValue == FEATURE_SEL_DeviceRemoteWakeup)
     c02:	80 91 4a 02 	lds	r24, 0x024A
     c06:	81 30       	cpi	r24, 0x01	; 1
     c08:	09 f0       	breq	.+2      	; 0xc0c <USB_Device_ProcessControlRequest+0xe2>
     c0a:	df c0       	rjmp	.+446    	; 0xdca <USB_Device_ProcessControlRequest+0x2a0>
			  USB_Device_RemoteWakeupEnabled = (USB_ControlRequest.bRequest == REQ_SetFeature);
     c0c:	10 92 46 02 	sts	0x0246, r1
     c10:	33 30       	cpi	r19, 0x03	; 3
     c12:	69 f5       	brne	.+90     	; 0xc6e <USB_Device_ProcessControlRequest+0x144>
     c14:	80 93 46 02 	sts	0x0246, r24
     c18:	2a c0       	rjmp	.+84     	; 0xc6e <USB_Device_ProcessControlRequest+0x144>

			break;
		#endif
		#if !defined(CONTROL_ONLY_DEVICE)
		case REQREC_ENDPOINT:
			if ((uint8_t)USB_ControlRequest.wValue == FEATURE_SEL_EndpointHalt)
     c1a:	80 91 4a 02 	lds	r24, 0x024A
     c1e:	88 23       	and	r24, r24
     c20:	31 f5       	brne	.+76     	; 0xc6e <USB_Device_ProcessControlRequest+0x144>
			{
				uint8_t EndpointIndex = ((uint8_t)USB_ControlRequest.wIndex & ENDPOINT_EPNUM_MASK);
     c22:	20 91 4c 02 	lds	r18, 0x024C
     c26:	2f 70       	andi	r18, 0x0F	; 15

				if (EndpointIndex == ENDPOINT_CONTROLEP)
     c28:	09 f4       	brne	.+2      	; 0xc2c <USB_Device_ProcessControlRequest+0x102>
     c2a:	cf c0       	rjmp	.+414    	; 0xdca <USB_Device_ProcessControlRequest+0x2a0>
			 */
			static inline void Endpoint_SelectEndpoint(const uint8_t Address) ATTR_ALWAYS_INLINE;
			static inline void Endpoint_SelectEndpoint(const uint8_t Address)
			{
				#if !defined(CONTROL_ONLY_DEVICE)
					UENUM = (Address & ENDPOINT_EPNUM_MASK);
     c2c:	20 93 e9 00 	sts	0x00E9, r18
			 * \return Boolean \c true if the currently selected endpoint is enabled, \c false otherwise.
			 */
			static inline bool Endpoint_IsEnabled(void) ATTR_WARN_UNUSED_RESULT ATTR_ALWAYS_INLINE;
			static inline bool Endpoint_IsEnabled(void)
			{
				return ((UECONX & (1 << EPEN)) ? true : false);
     c30:	80 91 eb 00 	lds	r24, 0x00EB
				  return;

				Endpoint_SelectEndpoint(EndpointIndex);

				if (Endpoint_IsEnabled())
     c34:	80 ff       	sbrs	r24, 0
     c36:	1b c0       	rjmp	.+54     	; 0xc6e <USB_Device_ProcessControlRequest+0x144>
				{
					if (USB_ControlRequest.bRequest == REQ_SetFeature)
     c38:	33 30       	cpi	r19, 0x03	; 3
     c3a:	21 f4       	brne	.+8      	; 0xc44 <USB_Device_ProcessControlRequest+0x11a>
			 *  \ingroup Group_EndpointPacketManagement_AVR8
			 */
			static inline void Endpoint_StallTransaction(void) ATTR_ALWAYS_INLINE;
			static inline void Endpoint_StallTransaction(void)
			{
				UECONX |= (1 << STALLRQ);
     c3c:	80 91 eb 00 	lds	r24, 0x00EB
     c40:	80 62       	ori	r24, 0x20	; 32
     c42:	13 c0       	rjmp	.+38     	; 0xc6a <USB_Device_ProcessControlRequest+0x140>
			 *  \ingroup Group_EndpointPacketManagement_AVR8
			 */
			static inline void Endpoint_ClearStall(void) ATTR_ALWAYS_INLINE;
			static inline void Endpoint_ClearStall(void)
			{
				UECONX |= (1 << STALLRQC);
     c44:	80 91 eb 00 	lds	r24, 0x00EB
     c48:	80 61       	ori	r24, 0x10	; 16
     c4a:	80 93 eb 00 	sts	0x00EB, r24
			 *  \param[in] Address  Endpoint address whose FIFO buffers are to be reset.
			 */
			static inline void Endpoint_ResetEndpoint(const uint8_t Address) ATTR_ALWAYS_INLINE;
			static inline void Endpoint_ResetEndpoint(const uint8_t Address)
			{
				UERST = (1 << (Address & ENDPOINT_EPNUM_MASK));
     c4e:	81 e0       	ldi	r24, 0x01	; 1
     c50:	90 e0       	ldi	r25, 0x00	; 0
     c52:	02 c0       	rjmp	.+4      	; 0xc58 <USB_Device_ProcessControlRequest+0x12e>
     c54:	88 0f       	add	r24, r24
     c56:	99 1f       	adc	r25, r25
     c58:	2a 95       	dec	r18
     c5a:	e2 f7       	brpl	.-8      	; 0xc54 <USB_Device_ProcessControlRequest+0x12a>
     c5c:	80 93 ea 00 	sts	0x00EA, r24
				UERST = 0;
     c60:	10 92 ea 00 	sts	0x00EA, r1

			/** Resets the data toggle of the currently selected endpoint. */
			static inline void Endpoint_ResetDataToggle(void) ATTR_ALWAYS_INLINE;
			static inline void Endpoint_ResetDataToggle(void)
			{
				UECONX |= (1 << RSTDT);
     c64:	80 91 eb 00 	lds	r24, 0x00EB
     c68:	88 60       	ori	r24, 0x08	; 8
     c6a:	80 93 eb 00 	sts	0x00EB, r24
			 */
			static inline void Endpoint_SelectEndpoint(const uint8_t Address) ATTR_ALWAYS_INLINE;
			static inline void Endpoint_SelectEndpoint(const uint8_t Address)
			{
				#if !defined(CONTROL_ONLY_DEVICE)
					UENUM = (Address & ENDPOINT_EPNUM_MASK);
     c6e:	10 92 e9 00 	sts	0x00E9, r1
			 *  \note This is not applicable for non CONTROL type endpoints.
			 */
			static inline void Endpoint_ClearSETUP(void) ATTR_ALWAYS_INLINE;
			static inline void Endpoint_ClearSETUP(void)
			{
				UEINTX &= ~(1 << RXSTPI);
     c72:	80 91 e8 00 	lds	r24, 0x00E8
     c76:	87 7f       	andi	r24, 0xF7	; 247
     c78:	89 c0       	rjmp	.+274    	; 0xd8c <USB_Device_ProcessControlRequest+0x262>
					USB_Device_ClearSetFeature();
				}

				break;
			case REQ_SetAddress:
				if (bmRequestType == (REQDIR_HOSTTODEVICE | REQTYPE_STANDARD | REQREC_DEVICE))
     c7a:	88 23       	and	r24, r24
     c7c:	09 f0       	breq	.+2      	; 0xc80 <USB_Device_ProcessControlRequest+0x156>
     c7e:	a5 c0       	rjmp	.+330    	; 0xdca <USB_Device_ProcessControlRequest+0x2a0>
	}
}

static void USB_Device_SetAddress(void)
{
	uint8_t    DeviceAddress    = (USB_ControlRequest.wValue & 0x7F);
     c80:	10 91 4a 02 	lds	r17, 0x024A
     c84:	1f 77       	andi	r17, 0x7F	; 127
			static inline uint_reg_t GetGlobalInterruptMask(void)
			{
				GCC_MEMORY_BARRIER();

				#if (ARCH == ARCH_AVR8)
				return SREG;
     c86:	0f b7       	in	r16, 0x3f	; 63
			static inline void GlobalInterruptDisable(void)
			{
				GCC_MEMORY_BARRIER();

				#if (ARCH == ARCH_AVR8)
				cli();
     c88:	f8 94       	cli
     c8a:	80 91 e8 00 	lds	r24, 0x00E8
     c8e:	87 7f       	andi	r24, 0xF7	; 247
     c90:	80 93 e8 00 	sts	0x00E8, r24
	uint_reg_t CurrentGlobalInt = GetGlobalInterruptMask();
	GlobalInterruptDisable();

	Endpoint_ClearSETUP();

	Endpoint_ClearStatusStage();
     c94:	d8 dc       	rcall	.-1616   	; 0x646 <Endpoint_ClearStatusStage>
			 *  \return Boolean \c true if the current endpoint is ready for an IN packet, \c false otherwise.
			 */
			static inline bool Endpoint_IsINReady(void) ATTR_WARN_UNUSED_RESULT ATTR_ALWAYS_INLINE;
			static inline bool Endpoint_IsINReady(void)
			{
				return ((UEINTX & (1 << TXINI)) ? true : false);
     c96:	80 91 e8 00 	lds	r24, 0x00E8

	while (!(Endpoint_IsINReady()));
     c9a:	80 ff       	sbrs	r24, 0
     c9c:	fc cf       	rjmp	.-8      	; 0xc96 <USB_Device_ProcessControlRequest+0x16c>
			#endif

			static inline void USB_Device_SetDeviceAddress(const uint8_t Address) ATTR_ALWAYS_INLINE;
			static inline void USB_Device_SetDeviceAddress(const uint8_t Address)
			{
				uint8_t Temp = (UDADDR & (1 << ADDEN)) | (Address & 0x7F);
     c9e:	80 91 e3 00 	lds	r24, 0x00E3
     ca2:	80 78       	andi	r24, 0x80	; 128
     ca4:	81 2b       	or	r24, r17

				UDADDR = Temp;
     ca6:	80 93 e3 00 	sts	0x00E3, r24
				UDADDR = Temp | (1 << ADDEN);
     caa:	80 68       	ori	r24, 0x80	; 128
     cac:	80 93 e3 00 	sts	0x00E3, r24

	USB_Device_SetDeviceAddress(DeviceAddress);
	USB_DeviceState = (DeviceAddress) ? DEVICE_STATE_Addressed : DEVICE_STATE_Default;
     cb0:	11 23       	and	r17, r17
     cb2:	11 f4       	brne	.+4      	; 0xcb8 <USB_Device_ProcessControlRequest+0x18e>
     cb4:	82 e0       	ldi	r24, 0x02	; 2
     cb6:	01 c0       	rjmp	.+2      	; 0xcba <USB_Device_ProcessControlRequest+0x190>
     cb8:	83 e0       	ldi	r24, 0x03	; 3
     cba:	8e bb       	out	0x1e, r24	; 30
			static inline void SetGlobalInterruptMask(const uint_reg_t GlobalIntState)
			{
				GCC_MEMORY_BARRIER();

				#if (ARCH == ARCH_AVR8)
				SREG = GlobalIntState;
     cbc:	0f bf       	out	0x3f, r16	; 63
				  __builtin_csrf(AVR32_SR_GM_OFFSET);
				#elif (ARCH == ARCH_XMEGA)
				SREG = GlobalIntState;
				#endif

				GCC_MEMORY_BARRIER();
     cbe:	85 c0       	rjmp	.+266    	; 0xdca <USB_Device_ProcessControlRequest+0x2a0>
				if (bmRequestType == (REQDIR_HOSTTODEVICE | REQTYPE_STANDARD | REQREC_DEVICE))
				  USB_Device_SetAddress();

				break;
			case REQ_GetDescriptor:
				if ((bmRequestType == (REQDIR_DEVICETOHOST | REQTYPE_STANDARD | REQREC_DEVICE)) ||
     cc0:	80 58       	subi	r24, 0x80	; 128
     cc2:	82 30       	cpi	r24, 0x02	; 2
     cc4:	08 f0       	brcs	.+2      	; 0xcc8 <USB_Device_ProcessControlRequest+0x19e>
     cc6:	81 c0       	rjmp	.+258    	; 0xdca <USB_Device_ProcessControlRequest+0x2a0>
	    !(defined(USE_FLASH_DESCRIPTORS) || defined(USE_EEPROM_DESCRIPTORS) || defined(USE_RAM_DESCRIPTORS))
	uint8_t DescriptorAddressSpace;
	#endif

	#if !defined(NO_INTERNAL_SERIAL) && (USE_INTERNAL_SERIAL != NO_DESCRIPTOR)
	if (USB_ControlRequest.wValue == ((DTYPE_String << 8) | USE_INTERNAL_SERIAL))
     cc8:	80 91 4a 02 	lds	r24, 0x024A
     ccc:	90 91 4b 02 	lds	r25, 0x024B
     cd0:	23 e0       	ldi	r18, 0x03	; 3
     cd2:	8c 3d       	cpi	r24, 0xDC	; 220
     cd4:	92 07       	cpc	r25, r18
     cd6:	09 f0       	breq	.+2      	; 0xcda <USB_Device_ProcessControlRequest+0x1b0>
     cd8:	33 c0       	rjmp	.+102    	; 0xd40 <USB_Device_ProcessControlRequest+0x216>
	{
		USB_Descriptor_Header_t Header;
		uint16_t                UnicodeString[INTERNAL_SERIAL_LENGTH_BITS / 4];
	} SignatureDescriptor;

	SignatureDescriptor.Header.Type = DTYPE_String;
     cda:	83 e0       	ldi	r24, 0x03	; 3
     cdc:	8c 83       	std	Y+4, r24	; 0x04
	SignatureDescriptor.Header.Size = USB_STRING_LEN(INTERNAL_SERIAL_LENGTH_BITS / 4);
     cde:	8a e2       	ldi	r24, 0x2A	; 42
     ce0:	8b 83       	std	Y+3, r24	; 0x03
			static inline uint_reg_t GetGlobalInterruptMask(void)
			{
				GCC_MEMORY_BARRIER();

				#if (ARCH == ARCH_AVR8)
				return SREG;
     ce2:	7f b7       	in	r23, 0x3f	; 63
			static inline void GlobalInterruptDisable(void)
			{
				GCC_MEMORY_BARRIER();

				#if (ARCH == ARCH_AVR8)
				cli();
     ce4:	f8 94       	cli
				__builtin_ssrf(AVR32_SR_GM_OFFSET);
				#elif (ARCH == ARCH_XMEGA)
				cli();
				#endif

				GCC_MEMORY_BARRIER();
     ce6:	de 01       	movw	r26, r28
     ce8:	15 96       	adiw	r26, 0x05	; 5
     cea:	6e e0       	ldi	r22, 0x0E	; 14
     cec:	40 e0       	ldi	r20, 0x00	; 0
     cee:	50 e0       	ldi	r21, 0x00	; 0

				uint8_t SigReadAddress = INTERNAL_SERIAL_START_ADDRESS;

				for (uint8_t SerialCharNum = 0; SerialCharNum < (INTERNAL_SERIAL_LENGTH_BITS / 4); SerialCharNum++)
				{
					uint8_t SerialByte = boot_signature_byte_get(SigReadAddress);
     cf0:	11 e2       	ldi	r17, 0x21	; 33
     cf2:	e6 2f       	mov	r30, r22
     cf4:	f0 e0       	ldi	r31, 0x00	; 0
     cf6:	10 93 57 00 	sts	0x0057, r17
     cfa:	84 91       	lpm	r24, Z+

					if (SerialCharNum & 0x01)
     cfc:	40 ff       	sbrs	r20, 0
     cfe:	03 c0       	rjmp	.+6      	; 0xd06 <USB_Device_ProcessControlRequest+0x1dc>
					{
						SerialByte >>= 4;
     d00:	82 95       	swap	r24
     d02:	8f 70       	andi	r24, 0x0F	; 15
						SigReadAddress++;
     d04:	6f 5f       	subi	r22, 0xFF	; 255
					}

					SerialByte &= 0x0F;
     d06:	8f 70       	andi	r24, 0x0F	; 15
     d08:	28 2f       	mov	r18, r24
     d0a:	30 e0       	ldi	r19, 0x00	; 0

					UnicodeString[SerialCharNum] = cpu_to_le16((SerialByte >= 10) ?
     d0c:	8a 30       	cpi	r24, 0x0A	; 10
     d0e:	18 f0       	brcs	.+6      	; 0xd16 <USB_Device_ProcessControlRequest+0x1ec>
     d10:	c9 01       	movw	r24, r18
     d12:	c7 96       	adiw	r24, 0x37	; 55
     d14:	02 c0       	rjmp	.+4      	; 0xd1a <USB_Device_ProcessControlRequest+0x1f0>
     d16:	c9 01       	movw	r24, r18
     d18:	c0 96       	adiw	r24, 0x30	; 48
     d1a:	8d 93       	st	X+, r24
     d1c:	9d 93       	st	X+, r25
     d1e:	4f 5f       	subi	r20, 0xFF	; 255
     d20:	5f 4f       	sbci	r21, 0xFF	; 255
				uint_reg_t CurrentGlobalInt = GetGlobalInterruptMask();
				GlobalInterruptDisable();

				uint8_t SigReadAddress = INTERNAL_SERIAL_START_ADDRESS;

				for (uint8_t SerialCharNum = 0; SerialCharNum < (INTERNAL_SERIAL_LENGTH_BITS / 4); SerialCharNum++)
     d22:	44 31       	cpi	r20, 0x14	; 20
     d24:	51 05       	cpc	r21, r1
     d26:	29 f7       	brne	.-54     	; 0xcf2 <USB_Device_ProcessControlRequest+0x1c8>
			static inline void SetGlobalInterruptMask(const uint_reg_t GlobalIntState)
			{
				GCC_MEMORY_BARRIER();

				#if (ARCH == ARCH_AVR8)
				SREG = GlobalIntState;
     d28:	7f bf       	out	0x3f, r23	; 63
			 *  \note This is not applicable for non CONTROL type endpoints.
			 */
			static inline void Endpoint_ClearSETUP(void) ATTR_ALWAYS_INLINE;
			static inline void Endpoint_ClearSETUP(void)
			{
				UEINTX &= ~(1 << RXSTPI);
     d2a:	80 91 e8 00 	lds	r24, 0x00E8
     d2e:	87 7f       	andi	r24, 0xF7	; 247
     d30:	80 93 e8 00 	sts	0x00E8, r24

	USB_Device_GetSerialString(SignatureDescriptor.UnicodeString);

	Endpoint_ClearSETUP();

	Endpoint_Write_Control_Stream_LE(&SignatureDescriptor, sizeof(SignatureDescriptor));
     d34:	ce 01       	movw	r24, r28
     d36:	03 96       	adiw	r24, 0x03	; 3
     d38:	6a e2       	ldi	r22, 0x2A	; 42
     d3a:	70 e0       	ldi	r23, 0x00	; 0
     d3c:	2c de       	rcall	.-936    	; 0x996 <Endpoint_Write_Control_Stream_LE>
     d3e:	12 c0       	rjmp	.+36     	; 0xd64 <USB_Device_ProcessControlRequest+0x23a>
		USB_Device_GetInternalSerialDescriptor();
		return;
	}
	#endif

	if ((DescriptorSize = CALLBACK_USB_GetDescriptor(USB_ControlRequest.wValue, USB_ControlRequest.wIndex,
     d40:	60 91 4c 02 	lds	r22, 0x024C
     d44:	ae 01       	movw	r20, r28
     d46:	4f 5f       	subi	r20, 0xFF	; 255
     d48:	5f 4f       	sbci	r21, 0xFF	; 255
     d4a:	db db       	rcall	.-2122   	; 0x502 <CALLBACK_USB_GetDescriptor>
     d4c:	bc 01       	movw	r22, r24
     d4e:	00 97       	sbiw	r24, 0x00	; 0
     d50:	09 f4       	brne	.+2      	; 0xd54 <USB_Device_ProcessControlRequest+0x22a>
     d52:	3b c0       	rjmp	.+118    	; 0xdca <USB_Device_ProcessControlRequest+0x2a0>
     d54:	80 91 e8 00 	lds	r24, 0x00E8
     d58:	87 7f       	andi	r24, 0xF7	; 247
     d5a:	80 93 e8 00 	sts	0x00E8, r24
	#if defined(USE_RAM_DESCRIPTORS) || !defined(ARCH_HAS_MULTI_ADDRESS_SPACE)
	Endpoint_Write_Control_Stream_LE(DescriptorPointer, DescriptorSize);
	#elif defined(USE_EEPROM_DESCRIPTORS)
	Endpoint_Write_Control_EStream_LE(DescriptorPointer, DescriptorSize);
	#elif defined(USE_FLASH_DESCRIPTORS)
	Endpoint_Write_Control_PStream_LE(DescriptorPointer, DescriptorSize);
     d5e:	89 81       	ldd	r24, Y+1	; 0x01
     d60:	9a 81       	ldd	r25, Y+2	; 0x02
     d62:	7d de       	rcall	.-774    	; 0xa5e <Endpoint_Write_Control_PStream_LE>
			 */
			static inline void Endpoint_ClearOUT(void) ATTR_ALWAYS_INLINE;
			static inline void Endpoint_ClearOUT(void)
			{
				#if !defined(CONTROL_ONLY_DEVICE)
					UEINTX &= ~((1 << RXOUTI) | (1 << FIFOCON));
     d64:	80 91 e8 00 	lds	r24, 0x00E8
     d68:	8b 77       	andi	r24, 0x7B	; 123
     d6a:	80 93 e8 00 	sts	0x00E8, r24
     d6e:	2d c0       	rjmp	.+90     	; 0xdca <USB_Device_ProcessControlRequest+0x2a0>
					USB_Device_GetDescriptor();
				}

				break;
			case REQ_GetConfiguration:
				if (bmRequestType == (REQDIR_DEVICETOHOST | REQTYPE_STANDARD | REQREC_DEVICE))
     d70:	80 38       	cpi	r24, 0x80	; 128
     d72:	59 f5       	brne	.+86     	; 0xdca <USB_Device_ProcessControlRequest+0x2a0>
			 *  \note This is not applicable for non CONTROL type endpoints.
			 */
			static inline void Endpoint_ClearSETUP(void) ATTR_ALWAYS_INLINE;
			static inline void Endpoint_ClearSETUP(void)
			{
				UEINTX &= ~(1 << RXSTPI);
     d74:	80 91 e8 00 	lds	r24, 0x00E8
     d78:	87 7f       	andi	r24, 0xF7	; 247
     d7a:	80 93 e8 00 	sts	0x00E8, r24

static void USB_Device_GetConfiguration(void)
{
	Endpoint_ClearSETUP();

	Endpoint_Write_8(USB_Device_ConfigurationNumber);
     d7e:	80 91 44 02 	lds	r24, 0x0244
			 *  \param[in] Data  Data to write into the the currently selected endpoint's FIFO buffer.
			 */
			static inline void Endpoint_Write_8(const uint8_t Data) ATTR_ALWAYS_INLINE;
			static inline void Endpoint_Write_8(const uint8_t Data)
			{
				UEDATX = Data;
     d82:	80 93 f1 00 	sts	0x00F1, r24
			 */
			static inline void Endpoint_ClearIN(void) ATTR_ALWAYS_INLINE;
			static inline void Endpoint_ClearIN(void)
			{
				#if !defined(CONTROL_ONLY_DEVICE)
					UEINTX &= ~((1 << TXINI) | (1 << FIFOCON));
     d86:	80 91 e8 00 	lds	r24, 0x00E8
     d8a:	8e 77       	andi	r24, 0x7E	; 126
     d8c:	80 93 e8 00 	sts	0x00E8, r24
	Endpoint_ClearIN();

	Endpoint_ClearStatusStage();
     d90:	5a dc       	rcall	.-1868   	; 0x646 <Endpoint_ClearStatusStage>
     d92:	1b c0       	rjmp	.+54     	; 0xdca <USB_Device_ProcessControlRequest+0x2a0>
				if (bmRequestType == (REQDIR_DEVICETOHOST | REQTYPE_STANDARD | REQREC_DEVICE))
				  USB_Device_GetConfiguration();

				break;
			case REQ_SetConfiguration:
				if (bmRequestType == (REQDIR_HOSTTODEVICE | REQTYPE_STANDARD | REQREC_DEVICE))
     d94:	88 23       	and	r24, r24
     d96:	c9 f4       	brne	.+50     	; 0xdca <USB_Device_ProcessControlRequest+0x2a0>
}

static void USB_Device_SetConfiguration(void)
{
	#if defined(FIXED_NUM_CONFIGURATIONS)
	if ((uint8_t)USB_ControlRequest.wValue > FIXED_NUM_CONFIGURATIONS)
     d98:	90 91 4a 02 	lds	r25, 0x024A
     d9c:	92 30       	cpi	r25, 0x02	; 2
     d9e:	a8 f4       	brcc	.+42     	; 0xdca <USB_Device_ProcessControlRequest+0x2a0>
			 *  \note This is not applicable for non CONTROL type endpoints.
			 */
			static inline void Endpoint_ClearSETUP(void) ATTR_ALWAYS_INLINE;
			static inline void Endpoint_ClearSETUP(void)
			{
				UEINTX &= ~(1 << RXSTPI);
     da0:	80 91 e8 00 	lds	r24, 0x00E8
     da4:	87 7f       	andi	r24, 0xF7	; 247
     da6:	80 93 e8 00 	sts	0x00E8, r24
	#endif
	#endif

	Endpoint_ClearSETUP();

	USB_Device_ConfigurationNumber = (uint8_t)USB_ControlRequest.wValue;
     daa:	90 93 44 02 	sts	0x0244, r25

	Endpoint_ClearStatusStage();
     dae:	4b dc       	rcall	.-1898   	; 0x646 <Endpoint_ClearStatusStage>

	if (USB_Device_ConfigurationNumber)
     db0:	80 91 44 02 	lds	r24, 0x0244
     db4:	88 23       	and	r24, r24
     db6:	31 f4       	brne	.+12     	; 0xdc4 <USB_Device_ProcessControlRequest+0x29a>
			}

			static inline bool USB_Device_IsAddressSet(void) ATTR_ALWAYS_INLINE ATTR_WARN_UNUSED_RESULT;
			static inline bool USB_Device_IsAddressSet(void)
			{
				return (UDADDR & (1 << ADDEN));
     db8:	80 91 e3 00 	lds	r24, 0x00E3
	  USB_DeviceState = DEVICE_STATE_Configured;
	else
	  USB_DeviceState = (USB_Device_IsAddressSet()) ? DEVICE_STATE_Configured : DEVICE_STATE_Powered;
     dbc:	87 fd       	sbrc	r24, 7
     dbe:	02 c0       	rjmp	.+4      	; 0xdc4 <USB_Device_ProcessControlRequest+0x29a>
     dc0:	81 e0       	ldi	r24, 0x01	; 1
     dc2:	01 c0       	rjmp	.+2      	; 0xdc6 <USB_Device_ProcessControlRequest+0x29c>
     dc4:	84 e0       	ldi	r24, 0x04	; 4
     dc6:	8e bb       	out	0x1e, r24	; 30

	EVENT_USB_Device_ConfigurationChanged();
     dc8:	a1 da       	rcall	.-2750   	; 0x30c <EVENT_USB_Device_ConfigurationChanged>
			 *  \return Boolean \c true if the selected endpoint has received a SETUP packet, \c false otherwise.
			 */
			static inline bool Endpoint_IsSETUPReceived(void) ATTR_WARN_UNUSED_RESULT ATTR_ALWAYS_INLINE;
			static inline bool Endpoint_IsSETUPReceived(void)
			{
				return ((UEINTX & (1 << RXSTPI)) ? true : false);
     dca:	80 91 e8 00 	lds	r24, 0x00E8

				break;
		}
	}

	if (Endpoint_IsSETUPReceived())
     dce:	83 ff       	sbrs	r24, 3
     dd0:	0a c0       	rjmp	.+20     	; 0xde6 <USB_Device_ProcessControlRequest+0x2bc>
			 *  \ingroup Group_EndpointPacketManagement_AVR8
			 */
			static inline void Endpoint_StallTransaction(void) ATTR_ALWAYS_INLINE;
			static inline void Endpoint_StallTransaction(void)
			{
				UECONX |= (1 << STALLRQ);
     dd2:	80 91 eb 00 	lds	r24, 0x00EB
     dd6:	80 62       	ori	r24, 0x20	; 32
     dd8:	80 93 eb 00 	sts	0x00EB, r24
			 *  \note This is not applicable for non CONTROL type endpoints.
			 */
			static inline void Endpoint_ClearSETUP(void) ATTR_ALWAYS_INLINE;
			static inline void Endpoint_ClearSETUP(void)
			{
				UEINTX &= ~(1 << RXSTPI);
     ddc:	80 91 e8 00 	lds	r24, 0x00E8
     de0:	87 7f       	andi	r24, 0xF7	; 247
     de2:	80 93 e8 00 	sts	0x00E8, r24
	{
		Endpoint_StallTransaction();
		Endpoint_ClearSETUP();
	}
}
     de6:	ac 96       	adiw	r28, 0x2c	; 44
     de8:	0f b6       	in	r0, 0x3f	; 63
     dea:	f8 94       	cli
     dec:	de bf       	out	0x3e, r29	; 62
     dee:	0f be       	out	0x3f, r0	; 63
     df0:	cd bf       	out	0x3d, r28	; 61
     df2:	cf 91       	pop	r28
     df4:	df 91       	pop	r29
     df6:	1f 91       	pop	r17
     df8:	0f 91       	pop	r16
     dfa:	08 95       	ret

00000dfc <USB_Event_Stub>:

// cppcheck-suppress unusedFunction
void USB_Event_Stub(void)
{

}
     dfc:	08 95       	ret

00000dfe <USB_USBTask>:
#if defined(USB_CAN_BE_DEVICE) && !defined(DEVICE_STATE_AS_GPIOR)
volatile uint8_t     USB_DeviceState;
#endif

void USB_USBTask(void)
{
     dfe:	1f 93       	push	r17
}

#if defined(USB_CAN_BE_DEVICE)
static void USB_DeviceTask(void)
{
	if (USB_DeviceState != DEVICE_STATE_Unattached)
     e00:	8e b3       	in	r24, 0x1e	; 30
     e02:	88 23       	and	r24, r24
     e04:	71 f0       	breq	.+28     	; 0xe22 <USB_USBTask+0x24>
			 */
			static inline uint8_t Endpoint_GetCurrentEndpoint(void) ATTR_WARN_UNUSED_RESULT ATTR_ALWAYS_INLINE;
			static inline uint8_t Endpoint_GetCurrentEndpoint(void)
			{
				#if !defined(CONTROL_ONLY_DEVICE)
					return ((UENUM & ENDPOINT_EPNUM_MASK) | Endpoint_GetEndpointDirection());
     e06:	10 91 e9 00 	lds	r17, 0x00E9
			 *  \return The currently selected endpoint's direction, as a \c ENDPOINT_DIR_* mask.
			 */
			static inline uint8_t Endpoint_GetEndpointDirection(void) ATTR_WARN_UNUSED_RESULT ATTR_ALWAYS_INLINE;
			static inline uint8_t Endpoint_GetEndpointDirection(void)
			{
				return (UECFG0X & (1 << EPDIR)) ? ENDPOINT_DIR_IN : ENDPOINT_DIR_OUT;
     e0a:	80 91 ec 00 	lds	r24, 0x00EC
			 */
			static inline void Endpoint_SelectEndpoint(const uint8_t Address) ATTR_ALWAYS_INLINE;
			static inline void Endpoint_SelectEndpoint(const uint8_t Address)
			{
				#if !defined(CONTROL_ONLY_DEVICE)
					UENUM = (Address & ENDPOINT_EPNUM_MASK);
     e0e:	10 92 e9 00 	sts	0x00E9, r1
			 *  \return Boolean \c true if the selected endpoint has received a SETUP packet, \c false otherwise.
			 */
			static inline bool Endpoint_IsSETUPReceived(void) ATTR_WARN_UNUSED_RESULT ATTR_ALWAYS_INLINE;
			static inline bool Endpoint_IsSETUPReceived(void)
			{
				return ((UEINTX & (1 << RXSTPI)) ? true : false);
     e12:	80 91 e8 00 	lds	r24, 0x00E8
	{
		uint8_t PrevEndpoint = Endpoint_GetCurrentEndpoint();

		Endpoint_SelectEndpoint(ENDPOINT_CONTROLEP);

		if (Endpoint_IsSETUPReceived())
     e16:	83 ff       	sbrs	r24, 3
     e18:	01 c0       	rjmp	.+2      	; 0xe1c <USB_USBTask+0x1e>
		  USB_Device_ProcessControlRequest();
     e1a:	87 de       	rcall	.-754    	; 0xb2a <USB_Device_ProcessControlRequest>
			 */
			static inline void Endpoint_SelectEndpoint(const uint8_t Address) ATTR_ALWAYS_INLINE;
			static inline void Endpoint_SelectEndpoint(const uint8_t Address)
			{
				#if !defined(CONTROL_ONLY_DEVICE)
					UENUM = (Address & ENDPOINT_EPNUM_MASK);
     e1c:	1f 70       	andi	r17, 0x0F	; 15
     e1e:	10 93 e9 00 	sts	0x00E9, r17
		#if defined(USB_CAN_BE_HOST)
		else if (USB_CurrentMode == USB_MODE_Host)
		  USB_HostTask();
		#endif
	#endif
}
     e22:	1f 91       	pop	r17
     e24:	08 95       	ret

00000e26 <CDC_Device_ReceiveByte>:

int16_t CDC_Device_ReceiveByte(USB_ClassInfo_CDC_Device_t* const CDCInterfaceInfo)
{
     e26:	fc 01       	movw	r30, r24
	if ((USB_DeviceState != DEVICE_STATE_Configured) || !(CDCInterfaceInfo->State.LineEncoding.BaudRateBPS))
     e28:	8e b3       	in	r24, 0x1e	; 30
     e2a:	84 30       	cpi	r24, 0x04	; 4
     e2c:	99 f5       	brne	.+102    	; 0xe94 <CDC_Device_ReceiveByte+0x6e>
     e2e:	84 89       	ldd	r24, Z+20	; 0x14
     e30:	95 89       	ldd	r25, Z+21	; 0x15
     e32:	a6 89       	ldd	r26, Z+22	; 0x16
     e34:	b7 89       	ldd	r27, Z+23	; 0x17
     e36:	00 97       	sbiw	r24, 0x00	; 0
     e38:	a1 05       	cpc	r26, r1
     e3a:	b1 05       	cpc	r27, r1
     e3c:	59 f1       	breq	.+86     	; 0xe94 <CDC_Device_ReceiveByte+0x6e>
			 */
			static inline void Endpoint_SelectEndpoint(const uint8_t Address) ATTR_ALWAYS_INLINE;
			static inline void Endpoint_SelectEndpoint(const uint8_t Address)
			{
				#if !defined(CONTROL_ONLY_DEVICE)
					UENUM = (Address & ENDPOINT_EPNUM_MASK);
     e3e:	86 81       	ldd	r24, Z+6	; 0x06
     e40:	8f 70       	andi	r24, 0x0F	; 15
     e42:	80 93 e9 00 	sts	0x00E9, r24
			 *  \return Boolean \c true if current endpoint is has received an OUT packet, \c false otherwise.
			 */
			static inline bool Endpoint_IsOUTReceived(void) ATTR_WARN_UNUSED_RESULT ATTR_ALWAYS_INLINE;
			static inline bool Endpoint_IsOUTReceived(void)
			{
				return ((UEINTX & (1 << RXOUTI)) ? true : false);
     e46:	80 91 e8 00 	lds	r24, 0x00E8

	int16_t ReceivedByte = -1;

	Endpoint_SelectEndpoint(CDCInterfaceInfo->Config.DataOUTEndpoint.Address);

	if (Endpoint_IsOUTReceived())
     e4a:	82 ff       	sbrs	r24, 2
     e4c:	23 c0       	rjmp	.+70     	; 0xe94 <CDC_Device_ReceiveByte+0x6e>
			static inline uint16_t Endpoint_BytesInEndpoint(void)
			{
				#if (defined(USB_SERIES_6_AVR) || defined(USB_SERIES_7_AVR)) && !defined(__AVR_ATmega32U6__)
					return UEBCX;
				#elif defined(USB_SERIES_4_AVR) || defined(__AVR_ATmega32U6__)
					return (((uint16_t)UEBCHX << 8) | UEBCLX);
     e4e:	40 91 f3 00 	lds	r20, 0x00F3
     e52:	20 91 f2 00 	lds	r18, 0x00F2
	{
		if (Endpoint_BytesInEndpoint())
     e56:	94 2f       	mov	r25, r20
     e58:	80 e0       	ldi	r24, 0x00	; 0
     e5a:	30 e0       	ldi	r19, 0x00	; 0
     e5c:	82 2b       	or	r24, r18
     e5e:	93 2b       	or	r25, r19
     e60:	89 2b       	or	r24, r25
     e62:	19 f4       	brne	.+6      	; 0xe6a <CDC_Device_ReceiveByte+0x44>
     e64:	6f ef       	ldi	r22, 0xFF	; 255
     e66:	7f ef       	ldi	r23, 0xFF	; 255
     e68:	04 c0       	rjmp	.+8      	; 0xe72 <CDC_Device_ReceiveByte+0x4c>
			 *  \return Next byte in the currently selected endpoint's FIFO buffer.
			 */
			static inline uint8_t Endpoint_Read_8(void) ATTR_WARN_UNUSED_RESULT ATTR_ALWAYS_INLINE;
			static inline uint8_t Endpoint_Read_8(void)
			{
				return UEDATX;
     e6a:	80 91 f1 00 	lds	r24, 0x00F1
		  ReceivedByte = Endpoint_Read_8();
     e6e:	68 2f       	mov	r22, r24
     e70:	70 e0       	ldi	r23, 0x00	; 0
			static inline uint16_t Endpoint_BytesInEndpoint(void)
			{
				#if (defined(USB_SERIES_6_AVR) || defined(USB_SERIES_7_AVR)) && !defined(__AVR_ATmega32U6__)
					return UEBCX;
				#elif defined(USB_SERIES_4_AVR) || defined(__AVR_ATmega32U6__)
					return (((uint16_t)UEBCHX << 8) | UEBCLX);
     e72:	40 91 f3 00 	lds	r20, 0x00F3
     e76:	20 91 f2 00 	lds	r18, 0x00F2

		if (!(Endpoint_BytesInEndpoint()))
     e7a:	94 2f       	mov	r25, r20
     e7c:	80 e0       	ldi	r24, 0x00	; 0
     e7e:	30 e0       	ldi	r19, 0x00	; 0
     e80:	82 2b       	or	r24, r18
     e82:	93 2b       	or	r25, r19
     e84:	89 2b       	or	r24, r25
     e86:	41 f4       	brne	.+16     	; 0xe98 <CDC_Device_ReceiveByte+0x72>
			 */
			static inline void Endpoint_ClearOUT(void) ATTR_ALWAYS_INLINE;
			static inline void Endpoint_ClearOUT(void)
			{
				#if !defined(CONTROL_ONLY_DEVICE)
					UEINTX &= ~((1 << RXOUTI) | (1 << FIFOCON));
     e88:	80 91 e8 00 	lds	r24, 0x00E8
     e8c:	8b 77       	andi	r24, 0x7B	; 123
     e8e:	80 93 e8 00 	sts	0x00E8, r24
     e92:	02 c0       	rjmp	.+4      	; 0xe98 <CDC_Device_ReceiveByte+0x72>
     e94:	6f ef       	ldi	r22, 0xFF	; 255
     e96:	7f ef       	ldi	r23, 0xFF	; 255
		  Endpoint_ClearOUT();
	}

	return ReceivedByte;
}
     e98:	cb 01       	movw	r24, r22
     e9a:	08 95       	ret

00000e9c <CDC_Device_Event_Stub>:

// cppcheck-suppress unusedFunction
void CDC_Device_Event_Stub(void)
{

}
     e9c:	08 95       	ret

00000e9e <CDC_Device_Flush>:
	Endpoint_Write_8(Data);
	return ENDPOINT_READYWAIT_NoError;
}

uint8_t CDC_Device_Flush(USB_ClassInfo_CDC_Device_t* const CDCInterfaceInfo)
{
     e9e:	fc 01       	movw	r30, r24
	if ((USB_DeviceState != DEVICE_STATE_Configured) || !(CDCInterfaceInfo->State.LineEncoding.BaudRateBPS))
     ea0:	8e b3       	in	r24, 0x1e	; 30
     ea2:	84 30       	cpi	r24, 0x04	; 4
     ea4:	51 f5       	brne	.+84     	; 0xefa <CDC_Device_Flush+0x5c>
     ea6:	84 89       	ldd	r24, Z+20	; 0x14
     ea8:	95 89       	ldd	r25, Z+21	; 0x15
     eaa:	a6 89       	ldd	r26, Z+22	; 0x16
     eac:	b7 89       	ldd	r27, Z+23	; 0x17
     eae:	00 97       	sbiw	r24, 0x00	; 0
     eb0:	a1 05       	cpc	r26, r1
     eb2:	b1 05       	cpc	r27, r1
     eb4:	11 f1       	breq	.+68     	; 0xefa <CDC_Device_Flush+0x5c>
			 */
			static inline void Endpoint_SelectEndpoint(const uint8_t Address) ATTR_ALWAYS_INLINE;
			static inline void Endpoint_SelectEndpoint(const uint8_t Address)
			{
				#if !defined(CONTROL_ONLY_DEVICE)
					UENUM = (Address & ENDPOINT_EPNUM_MASK);
     eb6:	81 81       	ldd	r24, Z+1	; 0x01
     eb8:	8f 70       	andi	r24, 0x0F	; 15
     eba:	80 93 e9 00 	sts	0x00E9, r24
			static inline uint16_t Endpoint_BytesInEndpoint(void)
			{
				#if (defined(USB_SERIES_6_AVR) || defined(USB_SERIES_7_AVR)) && !defined(__AVR_ATmega32U6__)
					return UEBCX;
				#elif defined(USB_SERIES_4_AVR) || defined(__AVR_ATmega32U6__)
					return (((uint16_t)UEBCHX << 8) | UEBCLX);
     ebe:	40 91 f3 00 	lds	r20, 0x00F3
     ec2:	20 91 f2 00 	lds	r18, 0x00F2

	uint8_t ErrorCode;

	Endpoint_SelectEndpoint(CDCInterfaceInfo->Config.DataINEndpoint.Address);

	if (!(Endpoint_BytesInEndpoint()))
     ec6:	94 2f       	mov	r25, r20
     ec8:	80 e0       	ldi	r24, 0x00	; 0
     eca:	30 e0       	ldi	r19, 0x00	; 0
     ecc:	82 2b       	or	r24, r18
     ece:	93 2b       	or	r25, r19
     ed0:	89 2b       	or	r24, r25
     ed2:	a9 f0       	breq	.+42     	; 0xefe <CDC_Device_Flush+0x60>
			 *          on its direction.
			 */
			static inline bool Endpoint_IsReadWriteAllowed(void) ATTR_WARN_UNUSED_RESULT ATTR_ALWAYS_INLINE;
			static inline bool Endpoint_IsReadWriteAllowed(void)
			{
				return ((UEINTX & (1 << RWAL)) ? true : false);
     ed4:	90 91 e8 00 	lds	r25, 0x00E8
			 */
			static inline void Endpoint_ClearIN(void) ATTR_ALWAYS_INLINE;
			static inline void Endpoint_ClearIN(void)
			{
				#if !defined(CONTROL_ONLY_DEVICE)
					UEINTX &= ~((1 << TXINI) | (1 << FIFOCON));
     ed8:	80 91 e8 00 	lds	r24, 0x00E8
     edc:	8e 77       	andi	r24, 0x7E	; 126
     ede:	80 93 e8 00 	sts	0x00E8, r24

	bool BankFull = !(Endpoint_IsReadWriteAllowed());

	Endpoint_ClearIN();

	if (BankFull)
     ee2:	95 fd       	sbrc	r25, 5
     ee4:	0c c0       	rjmp	.+24     	; 0xefe <CDC_Device_Flush+0x60>
	{
		if ((ErrorCode = Endpoint_WaitUntilReady()) != ENDPOINT_READYWAIT_NoError)
     ee6:	ce db       	rcall	.-2148   	; 0x684 <Endpoint_WaitUntilReady>
     ee8:	98 2f       	mov	r25, r24
     eea:	88 23       	and	r24, r24
     eec:	49 f4       	brne	.+18     	; 0xf00 <CDC_Device_Flush+0x62>
     eee:	80 91 e8 00 	lds	r24, 0x00E8
     ef2:	8e 77       	andi	r24, 0x7E	; 126
     ef4:	80 93 e8 00 	sts	0x00E8, r24
     ef8:	03 c0       	rjmp	.+6      	; 0xf00 <CDC_Device_Flush+0x62>
     efa:	92 e0       	ldi	r25, 0x02	; 2
     efc:	01 c0       	rjmp	.+2      	; 0xf00 <CDC_Device_Flush+0x62>
     efe:	90 e0       	ldi	r25, 0x00	; 0

		Endpoint_ClearIN();
	}

	return ENDPOINT_READYWAIT_NoError;
}
     f00:	89 2f       	mov	r24, r25
     f02:	08 95       	ret

00000f04 <CDC_Device_USBTask>:

	return true;
}

void CDC_Device_USBTask(USB_ClassInfo_CDC_Device_t* const CDCInterfaceInfo)
{
     f04:	fc 01       	movw	r30, r24
	if ((USB_DeviceState != DEVICE_STATE_Configured) || !(CDCInterfaceInfo->State.LineEncoding.BaudRateBPS))
     f06:	8e b3       	in	r24, 0x1e	; 30
     f08:	84 30       	cpi	r24, 0x04	; 4
     f0a:	51 f4       	brne	.+20     	; 0xf20 <CDC_Device_USBTask+0x1c>
     f0c:	84 89       	ldd	r24, Z+20	; 0x14
     f0e:	95 89       	ldd	r25, Z+21	; 0x15
     f10:	a6 89       	ldd	r26, Z+22	; 0x16
     f12:	b7 89       	ldd	r27, Z+23	; 0x17
     f14:	00 97       	sbiw	r24, 0x00	; 0
     f16:	a1 05       	cpc	r26, r1
     f18:	b1 05       	cpc	r27, r1
     f1a:	11 f0       	breq	.+4      	; 0xf20 <CDC_Device_USBTask+0x1c>
	  return;

	#if !defined(NO_CLASS_DRIVER_AUTOFLUSH)
	CDC_Device_Flush(CDCInterfaceInfo);
     f1c:	cf 01       	movw	r24, r30
     f1e:	bf cf       	rjmp	.-130    	; 0xe9e <CDC_Device_Flush>
     f20:	08 95       	ret

00000f22 <CDC_Device_SendByte>:
	return Endpoint_Write_Stream_LE(Buffer, Length, NULL);
}

uint8_t CDC_Device_SendByte(USB_ClassInfo_CDC_Device_t* const CDCInterfaceInfo,
                            const uint8_t Data)
{
     f22:	1f 93       	push	r17
     f24:	fc 01       	movw	r30, r24
     f26:	16 2f       	mov	r17, r22
	if ((USB_DeviceState != DEVICE_STATE_Configured) || !(CDCInterfaceInfo->State.LineEncoding.BaudRateBPS))
     f28:	8e b3       	in	r24, 0x1e	; 30
     f2a:	84 30       	cpi	r24, 0x04	; 4
     f2c:	e1 f4       	brne	.+56     	; 0xf66 <CDC_Device_SendByte+0x44>
     f2e:	84 89       	ldd	r24, Z+20	; 0x14
     f30:	95 89       	ldd	r25, Z+21	; 0x15
     f32:	a6 89       	ldd	r26, Z+22	; 0x16
     f34:	b7 89       	ldd	r27, Z+23	; 0x17
     f36:	00 97       	sbiw	r24, 0x00	; 0
     f38:	a1 05       	cpc	r26, r1
     f3a:	b1 05       	cpc	r27, r1
     f3c:	a1 f0       	breq	.+40     	; 0xf66 <CDC_Device_SendByte+0x44>
			 */
			static inline void Endpoint_SelectEndpoint(const uint8_t Address) ATTR_ALWAYS_INLINE;
			static inline void Endpoint_SelectEndpoint(const uint8_t Address)
			{
				#if !defined(CONTROL_ONLY_DEVICE)
					UENUM = (Address & ENDPOINT_EPNUM_MASK);
     f3e:	81 81       	ldd	r24, Z+1	; 0x01
     f40:	8f 70       	andi	r24, 0x0F	; 15
     f42:	80 93 e9 00 	sts	0x00E9, r24
			 *          on its direction.
			 */
			static inline bool Endpoint_IsReadWriteAllowed(void) ATTR_WARN_UNUSED_RESULT ATTR_ALWAYS_INLINE;
			static inline bool Endpoint_IsReadWriteAllowed(void)
			{
				return ((UEINTX & (1 << RWAL)) ? true : false);
     f46:	80 91 e8 00 	lds	r24, 0x00E8
	  return ENDPOINT_RWSTREAM_DeviceDisconnected;

	Endpoint_SelectEndpoint(CDCInterfaceInfo->Config.DataINEndpoint.Address);

	if (!(Endpoint_IsReadWriteAllowed()))
     f4a:	85 fd       	sbrc	r24, 5
     f4c:	08 c0       	rjmp	.+16     	; 0xf5e <CDC_Device_SendByte+0x3c>
			 */
			static inline void Endpoint_ClearIN(void) ATTR_ALWAYS_INLINE;
			static inline void Endpoint_ClearIN(void)
			{
				#if !defined(CONTROL_ONLY_DEVICE)
					UEINTX &= ~((1 << TXINI) | (1 << FIFOCON));
     f4e:	80 91 e8 00 	lds	r24, 0x00E8
     f52:	8e 77       	andi	r24, 0x7E	; 126
     f54:	80 93 e8 00 	sts	0x00E8, r24
	{
		Endpoint_ClearIN();

		uint8_t ErrorCode;

		if ((ErrorCode = Endpoint_WaitUntilReady()) != ENDPOINT_READYWAIT_NoError)
     f58:	95 db       	rcall	.-2262   	; 0x684 <Endpoint_WaitUntilReady>
     f5a:	88 23       	and	r24, r24
     f5c:	29 f4       	brne	.+10     	; 0xf68 <CDC_Device_SendByte+0x46>
			 *  \param[in] Data  Data to write into the the currently selected endpoint's FIFO buffer.
			 */
			static inline void Endpoint_Write_8(const uint8_t Data) ATTR_ALWAYS_INLINE;
			static inline void Endpoint_Write_8(const uint8_t Data)
			{
				UEDATX = Data;
     f5e:	10 93 f1 00 	sts	0x00F1, r17
     f62:	80 e0       	ldi	r24, 0x00	; 0
     f64:	01 c0       	rjmp	.+2      	; 0xf68 <CDC_Device_SendByte+0x46>
		  return ErrorCode;
	}

	Endpoint_Write_8(Data);
	return ENDPOINT_READYWAIT_NoError;
     f66:	82 e0       	ldi	r24, 0x02	; 2
}
     f68:	1f 91       	pop	r17
     f6a:	08 95       	ret

00000f6c <CDC_Device_ConfigureEndpoints>:
			break;
	}
}

bool CDC_Device_ConfigureEndpoints(USB_ClassInfo_CDC_Device_t* const CDCInterfaceInfo)
{
     f6c:	cf 93       	push	r28
     f6e:	df 93       	push	r29
     f70:	ec 01       	movw	r28, r24
	memset(&CDCInterfaceInfo->State, 0x00, sizeof(CDCInterfaceInfo->State));
     f72:	40 96       	adiw	r24, 0x10	; 16
     f74:	fc 01       	movw	r30, r24
     f76:	8b e0       	ldi	r24, 0x0B	; 11
     f78:	df 01       	movw	r26, r30
     f7a:	1d 92       	st	X+, r1
     f7c:	8a 95       	dec	r24
     f7e:	e9 f7       	brne	.-6      	; 0xf7a <CDC_Device_ConfigureEndpoints+0xe>

	CDCInterfaceInfo->Config.DataINEndpoint.Type       = EP_TYPE_BULK;
     f80:	82 e0       	ldi	r24, 0x02	; 2
     f82:	8c 83       	std	Y+4, r24	; 0x04
	CDCInterfaceInfo->Config.DataOUTEndpoint.Type      = EP_TYPE_BULK;
     f84:	89 87       	std	Y+9, r24	; 0x09
	CDCInterfaceInfo->Config.NotificationEndpoint.Type = EP_TYPE_INTERRUPT;
     f86:	83 e0       	ldi	r24, 0x03	; 3
     f88:	8e 87       	std	Y+14, r24	; 0x0e

	if (!(Endpoint_ConfigureEndpointTable(&CDCInterfaceInfo->Config.DataINEndpoint, 1)))
     f8a:	ce 01       	movw	r24, r28
     f8c:	01 96       	adiw	r24, 0x01	; 1
     f8e:	61 e0       	ldi	r22, 0x01	; 1
     f90:	1e db       	rcall	.-2500   	; 0x5ce <Endpoint_ConfigureEndpointTable>
     f92:	88 23       	and	r24, r24
     f94:	71 f0       	breq	.+28     	; 0xfb2 <CDC_Device_ConfigureEndpoints+0x46>
	  return false;

	if (!(Endpoint_ConfigureEndpointTable(&CDCInterfaceInfo->Config.DataOUTEndpoint, 1)))
     f96:	ce 01       	movw	r24, r28
     f98:	06 96       	adiw	r24, 0x06	; 6
     f9a:	61 e0       	ldi	r22, 0x01	; 1
     f9c:	18 db       	rcall	.-2512   	; 0x5ce <Endpoint_ConfigureEndpointTable>
     f9e:	88 23       	and	r24, r24
     fa0:	41 f0       	breq	.+16     	; 0xfb2 <CDC_Device_ConfigureEndpoints+0x46>
	  return false;

	if (!(Endpoint_ConfigureEndpointTable(&CDCInterfaceInfo->Config.NotificationEndpoint, 1)))
     fa2:	ce 01       	movw	r24, r28
     fa4:	0b 96       	adiw	r24, 0x0b	; 11
     fa6:	61 e0       	ldi	r22, 0x01	; 1
     fa8:	12 db       	rcall	.-2524   	; 0x5ce <Endpoint_ConfigureEndpointTable>
     faa:	88 23       	and	r24, r24
     fac:	19 f0       	breq	.+6      	; 0xfb4 <CDC_Device_ConfigureEndpoints+0x48>
     fae:	81 e0       	ldi	r24, 0x01	; 1
     fb0:	01 c0       	rjmp	.+2      	; 0xfb4 <CDC_Device_ConfigureEndpoints+0x48>
     fb2:	80 e0       	ldi	r24, 0x00	; 0
	  return false;

	return true;
}
     fb4:	df 91       	pop	r29
     fb6:	cf 91       	pop	r28
     fb8:	08 95       	ret

00000fba <CDC_Device_ProcessControlRequest>:
#define  __INCLUDE_FROM_CDC_DRIVER
#define  __INCLUDE_FROM_CDC_DEVICE_C
#include "CDCClassDevice.h"

void CDC_Device_ProcessControlRequest(USB_ClassInfo_CDC_Device_t* const CDCInterfaceInfo)
{
     fba:	cf 93       	push	r28
     fbc:	df 93       	push	r29
     fbe:	ec 01       	movw	r28, r24
			 *  \return Boolean \c true if the selected endpoint has received a SETUP packet, \c false otherwise.
			 */
			static inline bool Endpoint_IsSETUPReceived(void) ATTR_WARN_UNUSED_RESULT ATTR_ALWAYS_INLINE;
			static inline bool Endpoint_IsSETUPReceived(void)
			{
				return ((UEINTX & (1 << RXSTPI)) ? true : false);
     fc0:	80 91 e8 00 	lds	r24, 0x00E8
	if (!(Endpoint_IsSETUPReceived()))
     fc4:	83 ff       	sbrs	r24, 3
     fc6:	a2 c0       	rjmp	.+324    	; 0x110c <CDC_Device_ProcessControlRequest+0x152>
	  return;

	if (USB_ControlRequest.wIndex != CDCInterfaceInfo->Config.ControlInterfaceNumber)
     fc8:	88 81       	ld	r24, Y
     fca:	90 e0       	ldi	r25, 0x00	; 0
     fcc:	20 91 4c 02 	lds	r18, 0x024C
     fd0:	30 91 4d 02 	lds	r19, 0x024D
     fd4:	28 17       	cp	r18, r24
     fd6:	39 07       	cpc	r19, r25
     fd8:	09 f0       	breq	.+2      	; 0xfdc <CDC_Device_ProcessControlRequest+0x22>
     fda:	98 c0       	rjmp	.+304    	; 0x110c <CDC_Device_ProcessControlRequest+0x152>
	  return;

	switch (USB_ControlRequest.bRequest)
     fdc:	80 91 49 02 	lds	r24, 0x0249
     fe0:	81 32       	cpi	r24, 0x21	; 33
     fe2:	69 f0       	breq	.+26     	; 0xffe <CDC_Device_ProcessControlRequest+0x44>
     fe4:	82 32       	cpi	r24, 0x22	; 34
     fe6:	20 f4       	brcc	.+8      	; 0xff0 <CDC_Device_ProcessControlRequest+0x36>
     fe8:	80 32       	cpi	r24, 0x20	; 32
     fea:	09 f0       	breq	.+2      	; 0xfee <CDC_Device_ProcessControlRequest+0x34>
     fec:	8f c0       	rjmp	.+286    	; 0x110c <CDC_Device_ProcessControlRequest+0x152>
     fee:	3c c0       	rjmp	.+120    	; 0x1068 <CDC_Device_ProcessControlRequest+0xae>
     ff0:	82 32       	cpi	r24, 0x22	; 34
     ff2:	09 f4       	brne	.+2      	; 0xff6 <CDC_Device_ProcessControlRequest+0x3c>
     ff4:	6a c0       	rjmp	.+212    	; 0x10ca <CDC_Device_ProcessControlRequest+0x110>
     ff6:	83 32       	cpi	r24, 0x23	; 35
     ff8:	09 f0       	breq	.+2      	; 0xffc <CDC_Device_ProcessControlRequest+0x42>
     ffa:	88 c0       	rjmp	.+272    	; 0x110c <CDC_Device_ProcessControlRequest+0x152>
     ffc:	79 c0       	rjmp	.+242    	; 0x10f0 <CDC_Device_ProcessControlRequest+0x136>
	{
		case CDC_REQ_GetLineEncoding:
			if (USB_ControlRequest.bmRequestType == (REQDIR_DEVICETOHOST | REQTYPE_CLASS | REQREC_INTERFACE))
     ffe:	80 91 48 02 	lds	r24, 0x0248
    1002:	81 3a       	cpi	r24, 0xA1	; 161
    1004:	09 f0       	breq	.+2      	; 0x1008 <CDC_Device_ProcessControlRequest+0x4e>
    1006:	82 c0       	rjmp	.+260    	; 0x110c <CDC_Device_ProcessControlRequest+0x152>
			 *  \note This is not applicable for non CONTROL type endpoints.
			 */
			static inline void Endpoint_ClearSETUP(void) ATTR_ALWAYS_INLINE;
			static inline void Endpoint_ClearSETUP(void)
			{
				UEINTX &= ~(1 << RXSTPI);
    1008:	80 91 e8 00 	lds	r24, 0x00E8
    100c:	87 7f       	andi	r24, 0xF7	; 247
    100e:	80 93 e8 00 	sts	0x00E8, r24
			 *  \return Boolean \c true if the current endpoint is ready for an IN packet, \c false otherwise.
			 */
			static inline bool Endpoint_IsINReady(void) ATTR_WARN_UNUSED_RESULT ATTR_ALWAYS_INLINE;
			static inline bool Endpoint_IsINReady(void)
			{
				return ((UEINTX & (1 << TXINI)) ? true : false);
    1012:	80 91 e8 00 	lds	r24, 0x00E8
			{
				Endpoint_ClearSETUP();

				while (!(Endpoint_IsINReady()));
    1016:	80 ff       	sbrs	r24, 0
    1018:	fc cf       	rjmp	.-8      	; 0x1012 <CDC_Device_ProcessControlRequest+0x58>

				Endpoint_Write_32_LE(CDCInterfaceInfo->State.LineEncoding.BaudRateBPS);
    101a:	8c 89       	ldd	r24, Y+20	; 0x14
    101c:	9d 89       	ldd	r25, Y+21	; 0x15
    101e:	ae 89       	ldd	r26, Y+22	; 0x16
    1020:	bf 89       	ldd	r27, Y+23	; 0x17
			 *  \param[in] Data  Data to write to the currently selected endpoint's FIFO buffer.
			 */
			static inline void Endpoint_Write_32_LE(const uint32_t Data) ATTR_ALWAYS_INLINE;
			static inline void Endpoint_Write_32_LE(const uint32_t Data)
			{
				UEDATX = (Data &  0xFF);
    1022:	80 93 f1 00 	sts	0x00F1, r24
				UEDATX = (Data >> 8);
    1026:	29 2f       	mov	r18, r25
    1028:	3a 2f       	mov	r19, r26
    102a:	4b 2f       	mov	r20, r27
    102c:	55 27       	eor	r21, r21
    102e:	20 93 f1 00 	sts	0x00F1, r18
				UEDATX = (Data >> 16);
    1032:	9d 01       	movw	r18, r26
    1034:	44 27       	eor	r20, r20
    1036:	55 27       	eor	r21, r21
    1038:	20 93 f1 00 	sts	0x00F1, r18
				UEDATX = (Data >> 24);
    103c:	8b 2f       	mov	r24, r27
    103e:	99 27       	eor	r25, r25
    1040:	aa 27       	eor	r26, r26
    1042:	bb 27       	eor	r27, r27
    1044:	80 93 f1 00 	sts	0x00F1, r24
				Endpoint_Write_8(CDCInterfaceInfo->State.LineEncoding.CharFormat);
    1048:	88 8d       	ldd	r24, Y+24	; 0x18
			 *  \param[in] Data  Data to write into the the currently selected endpoint's FIFO buffer.
			 */
			static inline void Endpoint_Write_8(const uint8_t Data) ATTR_ALWAYS_INLINE;
			static inline void Endpoint_Write_8(const uint8_t Data)
			{
				UEDATX = Data;
    104a:	80 93 f1 00 	sts	0x00F1, r24
				Endpoint_Write_8(CDCInterfaceInfo->State.LineEncoding.ParityType);
    104e:	89 8d       	ldd	r24, Y+25	; 0x19
    1050:	80 93 f1 00 	sts	0x00F1, r24
				Endpoint_Write_8(CDCInterfaceInfo->State.LineEncoding.DataBits);
    1054:	8a 8d       	ldd	r24, Y+26	; 0x1a
    1056:	80 93 f1 00 	sts	0x00F1, r24
			 */
			static inline void Endpoint_ClearIN(void) ATTR_ALWAYS_INLINE;
			static inline void Endpoint_ClearIN(void)
			{
				#if !defined(CONTROL_ONLY_DEVICE)
					UEINTX &= ~((1 << TXINI) | (1 << FIFOCON));
    105a:	80 91 e8 00 	lds	r24, 0x00E8
    105e:	8e 77       	andi	r24, 0x7E	; 126
    1060:	80 93 e8 00 	sts	0x00E8, r24

				Endpoint_ClearIN();
				Endpoint_ClearStatusStage();
    1064:	f0 da       	rcall	.-2592   	; 0x646 <Endpoint_ClearStatusStage>
    1066:	52 c0       	rjmp	.+164    	; 0x110c <CDC_Device_ProcessControlRequest+0x152>
			}

			break;
		case CDC_REQ_SetLineEncoding:
			if (USB_ControlRequest.bmRequestType == (REQDIR_HOSTTODEVICE | REQTYPE_CLASS | REQREC_INTERFACE))
    1068:	80 91 48 02 	lds	r24, 0x0248
    106c:	81 32       	cpi	r24, 0x21	; 33
    106e:	09 f0       	breq	.+2      	; 0x1072 <CDC_Device_ProcessControlRequest+0xb8>
    1070:	4d c0       	rjmp	.+154    	; 0x110c <CDC_Device_ProcessControlRequest+0x152>
			 *  \note This is not applicable for non CONTROL type endpoints.
			 */
			static inline void Endpoint_ClearSETUP(void) ATTR_ALWAYS_INLINE;
			static inline void Endpoint_ClearSETUP(void)
			{
				UEINTX &= ~(1 << RXSTPI);
    1072:	80 91 e8 00 	lds	r24, 0x00E8
    1076:	87 7f       	andi	r24, 0xF7	; 247
    1078:	80 93 e8 00 	sts	0x00E8, r24
    107c:	04 c0       	rjmp	.+8      	; 0x1086 <CDC_Device_ProcessControlRequest+0xcc>
			{
				Endpoint_ClearSETUP();

				while (!(Endpoint_IsOUTReceived()))
				{
					if (USB_DeviceState == DEVICE_STATE_Unattached)
    107e:	8e b3       	in	r24, 0x1e	; 30
    1080:	88 23       	and	r24, r24
    1082:	09 f4       	brne	.+2      	; 0x1086 <CDC_Device_ProcessControlRequest+0xcc>
    1084:	43 c0       	rjmp	.+134    	; 0x110c <CDC_Device_ProcessControlRequest+0x152>
			 *  \return Boolean \c true if current endpoint is has received an OUT packet, \c false otherwise.
			 */
			static inline bool Endpoint_IsOUTReceived(void) ATTR_WARN_UNUSED_RESULT ATTR_ALWAYS_INLINE;
			static inline bool Endpoint_IsOUTReceived(void)
			{
				return ((UEINTX & (1 << RXOUTI)) ? true : false);
    1086:	80 91 e8 00 	lds	r24, 0x00E8
		case CDC_REQ_SetLineEncoding:
			if (USB_ControlRequest.bmRequestType == (REQDIR_HOSTTODEVICE | REQTYPE_CLASS | REQREC_INTERFACE))
			{
				Endpoint_ClearSETUP();

				while (!(Endpoint_IsOUTReceived()))
    108a:	82 ff       	sbrs	r24, 2
    108c:	f8 cf       	rjmp	.-16     	; 0x107e <CDC_Device_ProcessControlRequest+0xc4>
				{
					uint32_t Value;
					uint8_t  Bytes[4];
				} Data;

				Data.Bytes[0] = UEDATX;
    108e:	80 91 f1 00 	lds	r24, 0x00F1
				Data.Bytes[1] = UEDATX;
    1092:	90 91 f1 00 	lds	r25, 0x00F1
				Data.Bytes[2] = UEDATX;
    1096:	20 91 f1 00 	lds	r18, 0x00F1
				Data.Bytes[3] = UEDATX;
    109a:	30 91 f1 00 	lds	r19, 0x00F1
				{
					if (USB_DeviceState == DEVICE_STATE_Unattached)
					  return;
				}
				
				CDCInterfaceInfo->State.LineEncoding.BaudRateBPS = Endpoint_Read_32_LE();
    109e:	8c 8b       	std	Y+20, r24	; 0x14
    10a0:	9d 8b       	std	Y+21, r25	; 0x15
    10a2:	2e 8b       	std	Y+22, r18	; 0x16
    10a4:	3f 8b       	std	Y+23, r19	; 0x17
			 *  \return Next byte in the currently selected endpoint's FIFO buffer.
			 */
			static inline uint8_t Endpoint_Read_8(void) ATTR_WARN_UNUSED_RESULT ATTR_ALWAYS_INLINE;
			static inline uint8_t Endpoint_Read_8(void)
			{
				return UEDATX;
    10a6:	80 91 f1 00 	lds	r24, 0x00F1
				CDCInterfaceInfo->State.LineEncoding.CharFormat  = Endpoint_Read_8();
    10aa:	88 8f       	std	Y+24, r24	; 0x18
    10ac:	80 91 f1 00 	lds	r24, 0x00F1
				CDCInterfaceInfo->State.LineEncoding.ParityType  = Endpoint_Read_8();
    10b0:	89 8f       	std	Y+25, r24	; 0x19
    10b2:	80 91 f1 00 	lds	r24, 0x00F1
				CDCInterfaceInfo->State.LineEncoding.DataBits    = Endpoint_Read_8();
    10b6:	8a 8f       	std	Y+26, r24	; 0x1a
			 */
			static inline void Endpoint_ClearOUT(void) ATTR_ALWAYS_INLINE;
			static inline void Endpoint_ClearOUT(void)
			{
				#if !defined(CONTROL_ONLY_DEVICE)
					UEINTX &= ~((1 << RXOUTI) | (1 << FIFOCON));
    10b8:	80 91 e8 00 	lds	r24, 0x00E8
    10bc:	8b 77       	andi	r24, 0x7B	; 123
    10be:	80 93 e8 00 	sts	0x00E8, r24

				Endpoint_ClearOUT();
				Endpoint_ClearStatusStage();
    10c2:	c1 da       	rcall	.-2686   	; 0x646 <Endpoint_ClearStatusStage>

				EVENT_CDC_Device_LineEncodingChanged(CDCInterfaceInfo);
    10c4:	ce 01       	movw	r24, r28
    10c6:	c5 d8       	rcall	.-3702   	; 0x252 <EVENT_CDC_Device_LineEncodingChanged>
    10c8:	21 c0       	rjmp	.+66     	; 0x110c <CDC_Device_ProcessControlRequest+0x152>
			}

			break;
		case CDC_REQ_SetControlLineState:
			if (USB_ControlRequest.bmRequestType == (REQDIR_HOSTTODEVICE | REQTYPE_CLASS | REQREC_INTERFACE))
    10ca:	80 91 48 02 	lds	r24, 0x0248
    10ce:	81 32       	cpi	r24, 0x21	; 33
    10d0:	e9 f4       	brne	.+58     	; 0x110c <CDC_Device_ProcessControlRequest+0x152>
			 *  \note This is not applicable for non CONTROL type endpoints.
			 */
			static inline void Endpoint_ClearSETUP(void) ATTR_ALWAYS_INLINE;
			static inline void Endpoint_ClearSETUP(void)
			{
				UEINTX &= ~(1 << RXSTPI);
    10d2:	80 91 e8 00 	lds	r24, 0x00E8
    10d6:	87 7f       	andi	r24, 0xF7	; 247
    10d8:	80 93 e8 00 	sts	0x00E8, r24
			{
				Endpoint_ClearSETUP();
				Endpoint_ClearStatusStage();
    10dc:	b4 da       	rcall	.-2712   	; 0x646 <Endpoint_ClearStatusStage>

				CDCInterfaceInfo->State.ControlLineStates.HostToDevice = USB_ControlRequest.wValue;
    10de:	80 91 4a 02 	lds	r24, 0x024A
    10e2:	90 91 4b 02 	lds	r25, 0x024B
    10e6:	99 8b       	std	Y+17, r25	; 0x11
    10e8:	88 8b       	std	Y+16, r24	; 0x10

				EVENT_CDC_Device_ControLineStateChanged(CDCInterfaceInfo);
    10ea:	ce 01       	movw	r24, r28
    10ec:	d7 de       	rcall	.-594    	; 0xe9c <CDC_Device_Event_Stub>
    10ee:	0e c0       	rjmp	.+28     	; 0x110c <CDC_Device_ProcessControlRequest+0x152>
			}

			break;
		case CDC_REQ_SendBreak:
			if (USB_ControlRequest.bmRequestType == (REQDIR_HOSTTODEVICE | REQTYPE_CLASS | REQREC_INTERFACE))
    10f0:	80 91 48 02 	lds	r24, 0x0248
    10f4:	81 32       	cpi	r24, 0x21	; 33
    10f6:	51 f4       	brne	.+20     	; 0x110c <CDC_Device_ProcessControlRequest+0x152>
    10f8:	80 91 e8 00 	lds	r24, 0x00E8
    10fc:	87 7f       	andi	r24, 0xF7	; 247
    10fe:	80 93 e8 00 	sts	0x00E8, r24
			{
				Endpoint_ClearSETUP();
				Endpoint_ClearStatusStage();
    1102:	a1 da       	rcall	.-2750   	; 0x646 <Endpoint_ClearStatusStage>

				EVENT_CDC_Device_BreakSent(CDCInterfaceInfo, (uint8_t)USB_ControlRequest.wValue);
    1104:	ce 01       	movw	r24, r28
    1106:	60 91 4a 02 	lds	r22, 0x024A
    110a:	c8 de       	rcall	.-624    	; 0xe9c <CDC_Device_Event_Stub>
			}

			break;
	}
}
    110c:	df 91       	pop	r29
    110e:	cf 91       	pop	r28
    1110:	08 95       	ret

00001112 <__udivmodsi4>:
    1112:	a1 e2       	ldi	r26, 0x21	; 33
    1114:	1a 2e       	mov	r1, r26
    1116:	aa 1b       	sub	r26, r26
    1118:	bb 1b       	sub	r27, r27
    111a:	fd 01       	movw	r30, r26
    111c:	0d c0       	rjmp	.+26     	; 0x1138 <__udivmodsi4_ep>

0000111e <__udivmodsi4_loop>:
    111e:	aa 1f       	adc	r26, r26
    1120:	bb 1f       	adc	r27, r27
    1122:	ee 1f       	adc	r30, r30
    1124:	ff 1f       	adc	r31, r31
    1126:	a2 17       	cp	r26, r18
    1128:	b3 07       	cpc	r27, r19
    112a:	e4 07       	cpc	r30, r20
    112c:	f5 07       	cpc	r31, r21
    112e:	20 f0       	brcs	.+8      	; 0x1138 <__udivmodsi4_ep>
    1130:	a2 1b       	sub	r26, r18
    1132:	b3 0b       	sbc	r27, r19
    1134:	e4 0b       	sbc	r30, r20
    1136:	f5 0b       	sbc	r31, r21

00001138 <__udivmodsi4_ep>:
    1138:	66 1f       	adc	r22, r22
    113a:	77 1f       	adc	r23, r23
    113c:	88 1f       	adc	r24, r24
    113e:	99 1f       	adc	r25, r25
    1140:	1a 94       	dec	r1
    1142:	69 f7       	brne	.-38     	; 0x111e <__udivmodsi4_loop>
    1144:	60 95       	com	r22
    1146:	70 95       	com	r23
    1148:	80 95       	com	r24
    114a:	90 95       	com	r25
    114c:	9b 01       	movw	r18, r22
    114e:	ac 01       	movw	r20, r24
    1150:	bd 01       	movw	r22, r26
    1152:	cf 01       	movw	r24, r30
    1154:	08 95       	ret

00001156 <_exit>:
    1156:	f8 94       	cli

00001158 <__stop_program>:
    1158:	ff cf       	rjmp	.-2      	; 0x1158 <__stop_program>
